Archive member included because of file (symbol)

/home/konstantinos/Desktop/isense_sdk/iSense/lib/jennic/ba-elf-float-double-moddiv.a(dp-bit.o)
                              out/isense/isense_os_standalone.o (__adddf3)
/home/konstantinos/Desktop/isense_sdk/iSense/lib/jennic/ba-elf-float-double-moddiv.a(_ashldi3.o)
                              /home/konstantinos/Desktop/isense_sdk/iSense/lib/jennic/ba-elf-float-double-moddiv.a(dp-bit.o) (__ashldi3)
/home/konstantinos/Desktop/isense_sdk/iSense/lib/jennic/ba-elf-float-double-moddiv.a(__divsi3.o)
                              out/isense/PLTT_passive_app.o (__divsi3)
/home/konstantinos/Desktop/isense_sdk/iSense/lib/jennic/ba-elf-float-double-moddiv.a(_lshrdi3.o)
                              /home/konstantinos/Desktop/isense_sdk/iSense/lib/jennic/ba-elf-float-double-moddiv.a(dp-bit.o) (__lshrdi3)
/home/konstantinos/Desktop/isense_sdk/iSense/lib/jennic/ba-elf-float-double-moddiv.a(_muldi3.o)
                              /home/konstantinos/Desktop/isense_sdk/iSense/lib/jennic/ba-elf-float-double-moddiv.a(dp-bit.o) (__muldi3)
/home/konstantinos/Desktop/isense_sdk/iSense/lib/jennic/ba-elf-float-double-moddiv.a(fp-bit.o)
                              /home/konstantinos/Desktop/isense_sdk/iSense/lib/jennic/ba-elf-float-double-moddiv.a(dp-bit.o) (__make_fp)
/home/konstantinos/Desktop/isense_sdk/iSense/lib/jennic/iSenseLibraryJN5139R1.a(os.o)
                              out/isense/PLTT_passive_app.o (isense::Os::time())
/home/konstantinos/Desktop/isense_sdk/iSense/lib/jennic/iSenseLibraryJN5139R1.a(time.o)
                              out/isense/PLTT_passive_app.o (isense::Time::operator=(isense::Time const&) volatile)
/home/konstantinos/Desktop/isense_sdk/iSense/lib/jennic/iSenseLibraryJN5139R1.a(application.o)
                              out/isense/isense_os_standalone.o (vtable for isense::Application)
/home/konstantinos/Desktop/isense_sdk/iSense/lib/jennic/iSenseLibraryJN5139R1.a(dispatcher.o)
                              out/isense/PLTT_passive_app.o (isense::Dispatcher::add_receiver(isense::Receiver*))
/home/konstantinos/Desktop/isense_sdk/iSense/lib/jennic/iSenseLibraryJN5139R1.a(queue.o)
                              /home/konstantinos/Desktop/isense_sdk/iSense/lib/jennic/iSenseLibraryJN5139R1.a(dispatcher.o) (isense::Queue::pull())
/home/konstantinos/Desktop/isense_sdk/iSense/lib/jennic/iSenseLibraryJN5139R1.a(isense_object.o)
                              out/isense/isense_os_standalone.o (isense::iSenseObject::operator delete(void*))
/home/konstantinos/Desktop/isense_sdk/iSense/lib/jennic/iSenseLibraryJN5139R1.a(isense_memory.o)
                              /home/konstantinos/Desktop/isense_sdk/iSense/lib/jennic/iSenseLibraryJN5139R1.a(dispatcher.o) (isense::free(void*))
/home/konstantinos/Desktop/isense_sdk/iSense/lib/jennic/iSenseLibraryJN5139R1.a(default_disable_restore_interrupts.o)
                              /home/konstantinos/Desktop/isense_sdk/iSense/lib/jennic/iSenseLibraryJN5139R1.a(os.o) (disable_interrupts)
/home/konstantinos/Desktop/isense_sdk/iSense/lib/jennic/iSenseLibraryJN5139R1.a(pseudo_random_number_generator.o)
                              out/isense/PLTT_passive_app.o (isense::PseudoRandomNumberGenerator::srand(unsigned long))
/home/konstantinos/Desktop/isense_sdk/iSense/lib/jennic/iSenseLibraryJN5139R1.a(simple_memory.o)
                              /home/konstantinos/Desktop/isense_sdk/iSense/lib/jennic/iSenseLibraryJN5139R1.a(isense_memory.o) (SimpleMemory::malloc(unsigned long))
/home/konstantinos/Desktop/isense_sdk/iSense/lib/jennic/iSenseLibraryJN5139R1.a(cxa_pure_virtual.o)
                              out/isense/isense_os_standalone.o (__cxa_pure_virtual)
/home/konstantinos/Desktop/isense_sdk/iSense/lib/jennic/iSenseLibraryJN5139R1.a(memmove.o)
                              /home/konstantinos/Desktop/isense_sdk/iSense/lib/jennic/iSenseLibraryJN5139R1.a(queue.o) (memmove)
/home/konstantinos/Desktop/isense_sdk/iSense/lib/jennic/iSenseLibraryJN5139R1.a(vsnprintf.o)
                              out/isense/PLTT_passive_app.o (vsnprintf)
/home/konstantinos/Desktop/isense_sdk/iSense/lib/jennic/iSenseLibraryJN5139R1.a(jennic_boot.o)
                              (AppWarmStart)
/home/konstantinos/Desktop/isense_sdk/iSense/lib/jennic/iSenseLibraryJN5139R1.a(jennic_power_management.o)
                              /home/konstantinos/Desktop/isense_sdk/iSense/lib/jennic/iSenseLibraryJN5139R1.a(jennic_boot.o) (isense::JennicPowerManagement::JennicPowerManagement())
/home/konstantinos/Desktop/isense_sdk/iSense/lib/jennic/iSenseLibraryJN5139R1.a(jennic_gpio.o)
                              /home/konstantinos/Desktop/isense_sdk/iSense/lib/jennic/iSenseLibraryJN5139R1.a(jennic_power_management.o) (isense::gpio_callback(unsigned long, unsigned long))
/home/konstantinos/Desktop/isense_sdk/iSense/lib/jennic/iSenseLibraryJN5139R1.a(jennic_os.o)
                              /home/konstantinos/Desktop/isense_sdk/iSense/lib/jennic/iSenseLibraryJN5139R1.a(jennic_boot.o) (isense::JennicOs::id())
/home/konstantinos/Desktop/isense_sdk/iSense/lib/jennic/iSenseLibraryJN5139R1.a(jennic_uart.o)
                              /home/konstantinos/Desktop/isense_sdk/iSense/lib/jennic/iSenseLibraryJN5139R1.a(jennic_os.o) (isense::JennicUart::jennic_uart0)
/home/konstantinos/Desktop/isense_sdk/iSense/lib/jennic/iSenseLibraryJN5139R1.a(jennic_timer.o)
                              /home/konstantinos/Desktop/isense_sdk/iSense/lib/jennic/iSenseLibraryJN5139R1.a(jennic_os.o) (isense::JennicTimer::isense_jennic_timer0)
/home/konstantinos/Desktop/isense_sdk/iSense/lib/jennic/iSenseLibraryJN5139R1.a(jennic_i2c.o)
                              /home/konstantinos/Desktop/isense_sdk/iSense/lib/jennic/iSenseLibraryJN5139R1.a(jennic_os.o) (vtable for isense::JennicI2C)
/home/konstantinos/Desktop/isense_sdk/iSense/lib/jennic/iSenseLibraryJN5139R1.a(AHI_DioPatch.o)
                              /home/konstantinos/Desktop/isense_sdk/iSense/lib/jennic/iSenseLibraryJN5139R1.a(jennic_gpio.o) (u32AHI_DioWakeStatus)
/home/konstantinos/Desktop/isense_sdk/iSense/lib/jennic/iSenseLibraryJN5139R1.a(AHI_FlashPatch.o)
                              /home/konstantinos/Desktop/isense_sdk/iSense/lib/jennic/iSenseLibraryJN5139R1.a(jennic_power_management.o) (vAHI_FlashPowerDown)
/home/konstantinos/Desktop/isense_sdk/iSense/lib/jennic/iSenseLibraryJN5139R1.a(AHI_SystemPatch_513xR1.o)
                              /home/konstantinos/Desktop/isense_sdk/iSense/lib/jennic/iSenseLibraryJN5139R1.a(jennic_power_management.o) (vAHI_PowerDown)
/home/konstantinos/Desktop/isense_sdk/iSense/lib/jennic/iSenseLibraryJN5139R1.a(AHI_TimerPatch.o)
                              /home/konstantinos/Desktop/isense_sdk/iSense/lib/jennic/iSenseLibraryJN5139R1.a(jennic_timer.o) (vAHI_TimerEnable)
/home/konstantinos/Desktop/isense_sdk/iSense/lib/jennic/iSenseLibraryJN5139R1.a(csma_radio.o)
                              /home/konstantinos/Desktop/isense_sdk/iSense/lib/jennic/iSenseLibraryJN5139R1.a(jennic_os.o) (vtable for isense::CsmaRadio)
/home/konstantinos/Desktop/isense_sdk/iSense/lib/jennic/iSenseLibraryJN5139R1.a(timer.o)
                              /home/konstantinos/Desktop/isense_sdk/iSense/lib/jennic/iSenseLibraryJN5139R1.a(jennic_timer.o) (vtable for isense::Timer)
/home/konstantinos/Desktop/isense_sdk/iSense/lib/jennic/iSenseLibraryJN5139R1.a(hardware_radio.o)
                              /home/konstantinos/Desktop/isense_sdk/iSense/lib/jennic/iSenseLibraryJN5139R1.a(csma_radio.o) (isense::HardwareRadio::os())
/home/konstantinos/Desktop/isense_sdk/iSense/lib/jennic/iSenseLibraryJN5139R1.a(radio.o)
                              /home/konstantinos/Desktop/isense_sdk/iSense/lib/jennic/iSenseLibraryJN5139R1.a(csma_radio.o) (isense::Radio::set_receiver(isense::Receiver*))
/home/konstantinos/Desktop/isense_sdk/iSense/lib/jennic/iSenseLibraryJN5139R1.a(power_management.o)
                              /home/konstantinos/Desktop/isense_sdk/iSense/lib/jennic/iSenseLibraryJN5139R1.a(jennic_power_management.o) (isense::PowerManagement::handle_interrupt(unsigned long, unsigned long))
/home/konstantinos/Desktop/isense_sdk/iSense/lib/jennic/iSenseLibraryJN5139R1.a(link_layer_interface.o)
                              /home/konstantinos/Desktop/isense_sdk/iSense/lib/jennic/iSenseLibraryJN5139R1.a(radio.o) (isense::LinkLayerInterface::LinkLayerInterface())
/home/konstantinos/Desktop/isense_sdk/iSense/lib/jennic/iSenseLibraryJN5139R1.a(uart.o)
                              /home/konstantinos/Desktop/isense_sdk/iSense/lib/jennic/iSenseLibraryJN5139R1.a(jennic_uart.o) (isense::Uart::write_packet(unsigned char, char const*, unsigned long))
/home/konstantinos/Desktop/isense_sdk/iSense/lib/jennic/iSenseLibraryJN5139R1.a(sprint_number.o)
                              /home/konstantinos/Desktop/isense_sdk/iSense/lib/jennic/iSenseLibraryJN5139R1.a(vsnprintf.o) (sprint_number)
/home/konstantinos/Desktop/isense_sdk/iSense/lib/jennic/iSenseLibraryJN5139R1.a(core_module_clock.o)
                              /home/konstantinos/Desktop/isense_sdk/iSense/lib/jennic/iSenseLibraryJN5139R1.a(jennic_boot.o) (vtable for isense::CoreModuleClock)
/home/konstantinos/Desktop/isense_sdk/iSense/lib/jennic/iSenseLibraryJN5139R1.a(jennic_radio.o)
                              /home/konstantinos/Desktop/isense_sdk/iSense/lib/jennic/iSenseLibraryJN5139R1.a(jennic_os.o) (isense::JennicRadio::jennic_radio)
/home/konstantinos/Desktop/isense_sdk/iSense/lib/jennic/iSenseLibraryJN5139R1.a(AHI_WakeTimerPatch.o)
                              /home/konstantinos/Desktop/isense_sdk/iSense/lib/jennic/iSenseLibraryJN5139R1.a(core_module_clock.o) (u32AHI_WakeTimerCalibrate)
/home/konstantinos/Desktop/isense_sdk/iSense/lib/jennic/iSenseLibraryJN5139R1.a(JN513x2_Patch.o)
                              /home/konstantinos/Desktop/isense_sdk/iSense/lib/jennic/iSenseLibraryJN5139R1.a(jennic_radio.o) (vAHI_ProtocolPower)
/home/konstantinos/Desktop/isense_sdk/iSense/lib/jennic/iSenseLibraryJN5139R1.a(PhySetChannelPatch.o)
                              /home/konstantinos/Desktop/isense_sdk/iSense/lib/jennic/iSenseLibraryJN5139R1.a(JN513x2_Patch.o) (vPhySetChannelPatch)
/home/konstantinos/Desktop/isense_sdk/iSense/lib/jennic/iSenseLibraryJN5139R1.a(min.o)
                              /home/konstantinos/Desktop/isense_sdk/iSense/lib/jennic/iSenseLibraryJN5139R1.a(core_module_clock.o) (min)

Allocating common symbols
Common symbol       size              file

sBbcIdleBugTimer    0x10              /home/konstantinos/Desktop/isense_sdk/iSense/lib/jennic/iSenseLibraryJN5139R1.a(JN513x2_Patch.o)
g_tSpiConfiguration
                    0x4               /home/konstantinos/Desktop/isense_sdk/iSense/lib/jennic/iSenseLibraryJN5139R1.a(AHI_FlashPatch.o)
ba_redzone_size     0x4               /home/konstantinos/Desktop/isense_sdk/iSense/lib/jennic/ba-elf-float-double-moddiv.a(dp-bit.o)
pSPIflashFncTable   0x4               /home/konstantinos/Desktop/isense_sdk/iSense/lib/jennic/iSenseLibraryJN5139R1.a(AHI_FlashPatch.o)
ba_abi_level        0x4               /home/konstantinos/Desktop/isense_sdk/iSense/lib/jennic/ba-elf-float-double-moddiv.a(dp-bit.o)

Discarded input sections

 _ZN7wiselib24iSenseWiselibApplication14application_idEv
                0x00000000        0x0 out/isense/isense_os_standalone.o
 _ZN7wiselib24iSenseWiselibApplication17software_revisionEv
                0x00000000        0x0 out/isense/isense_os_standalone.o
 _ZN7wiselib14StandaloneMathINS_13iSenseOsModelEE8sqrt_epsEdd
                0x00000000        0x0 out/isense/isense_os_standalone.o
 _ZN7wiselib14StandaloneMathINS_13iSenseOsModelEE4sqrtEd
                0x00000000        0x0 out/isense/isense_os_standalone.o
 _ZN7wiselib24iSenseWiselibApplicationD1Ev
                0x00000000        0x0 out/isense/isense_os_standalone.o
 _ZN6isense4TaskD0Ev
                0x00000000        0x0 out/isense/isense_os_standalone.o
 _ZN6isense4TaskD1Ev
                0x00000000        0x0 out/isense/isense_os_standalone.o
 _ZN7wiselib24iSenseWiselibApplication4bootEv
                0x00000000        0x0 out/isense/isense_os_standalone.o
 _ZN7wiselib24iSenseWiselibApplicationD0Ev
                0x00000000        0x0 out/isense/isense_os_standalone.o
 _ZTVN6isense4TaskE
                0x00000000        0x0 out/isense/isense_os_standalone.o
 _ZTVN7wiselib24iSenseWiselibApplicationE
                0x00000000        0x0 out/isense/isense_os_standalone.o
 .text          0x00000000        0x0 out/isense/isense_os_standalone.o
 .data          0x00000000        0x0 out/isense/isense_os_standalone.o
 .bss           0x00000000        0x0 out/isense/isense_os_standalone.o
 .dtors         0x00000000        0x0 out/isense/isense_os_standalone.o
 .text.fabs     0x00000000        0x0 out/isense/isense_os_standalone.o
 .text._ZN7wiselib14StandaloneMathINS_13iSenseOsModelEE8sqrt_epsEdd
                0x00000000        0x0 out/isense/isense_os_standalone.o
 .text._ZN7wiselib14StandaloneMathINS_13iSenseOsModelEE4sqrtEd
                0x00000000        0x0 out/isense/isense_os_standalone.o
 .text.sqrt     0x00000000        0x0 out/isense/isense_os_standalone.o
 .text._GLOBAL__D__ZN7wiselib129_GLOBAL__N__home_konstantinos_Desktop_wiselib_wiselib.stable_external_interface_isense_isense_os_standalone.cpp_00000000_8D3100DE22isense_timer_callbacksE
                0x00000000        0x0 out/isense/isense_os_standalone.o
 _ZN6isense4TimeC1Em
                0x00000000        0x0 out/isense/PLTT_passive_app.o
 _ZN7wiselib18ReliableRadio_TypeINS_13iSenseOsModelENS_26iSenseExtendedTxRadioModelIS1_EENS_16iSenseClockModelIS1_N6isense4TimeEEENS_16iSenseTimerModelIS1_EENS_15iSenseRandModelIS1_EENS_11iSenseDebugIS1_EEEC1Ev
                0x00000000        0x0 out/isense/PLTT_passive_app.o
 _ZN7wiselib26iSenseExtendedTxRadioModelINS_13iSenseOsModelEE11set_channelEi
                0x00000000        0x0 out/isense/PLTT_passive_app.o
 _ZN7wiselib26iSenseExtendedTxRadioModelINS_13iSenseOsModelEE12enable_radioEv
                0x00000000        0x0 out/isense/PLTT_passive_app.o
 _ZN7wiselib14PLTT_TraceTypeINS_13iSenseOsModelENS_26iSenseExtendedTxRadioModelIS1_EEhhhNS_8NodeTypeIS1_S3_tNS_14Position2DTypeIS1_S3_tNS_11iSenseDebugIS1_EEEES7_EEtS7_EC1Ev
                0x00000000        0x0 out/isense/PLTT_passive_app.o
 _ZN7wiselib13vector_staticINS_13iSenseOsModelENS_14PLTT_TraceTypeIS1_NS_26iSenseExtendedTxRadioModelIS1_EEhhhNS_8NodeTypeIS1_S4_tNS_14Position2DTypeIS1_S4_tNS_11iSenseDebugIS1_EEEES8_EEtS8_EELi5EEC1Ev
                0x00000000        0x0 out/isense/PLTT_passive_app.o
 _ZN7wiselib20PLTT_SecureTraceTypeINS_13iSenseOsModelENS_26iSenseExtendedTxRadioModelIS1_EEhhhNS_8NodeTypeIS1_S3_tNS_14Position2DTypeIS1_S3_tNS_11iSenseDebugIS1_EEEES7_EEtS7_EC1Ev
                0x00000000        0x0 out/isense/PLTT_passive_app.o
 _ZN7wiselib13vector_staticINS_13iSenseOsModelENS_20PLTT_SecureTraceTypeIS1_NS_26iSenseExtendedTxRadioModelIS1_EEhhhNS_8NodeTypeIS1_S4_tNS_14Position2DTypeIS1_S4_tNS_11iSenseDebugIS1_EEEES8_EEtS8_EELi25EEC1Ev
                0x00000000        0x0 out/isense/PLTT_passive_app.o
 _ZN7wiselib16PLTT_PassiveTypeINS_13iSenseOsModelENS_8NodeTypeIS1_NS_26iSenseExtendedTxRadioModelIS1_EEtNS_14Position2DTypeIS1_S4_tNS_11iSenseDebugIS1_EEEES7_EENS_13PLTT_NodeTypeIS1_S4_S9_NS_19PLTT_NodeTargetTypeIS1_S4_thS7_EENS_13vector_staticIS1_SC_Li5EEENSD_IS1_NS_14PLTT_TraceTypeIS1_S4_hhhS9_tS7_EELi5EEES7_EENSD_IS1_SI_Li25EEESG_SH_NS_20PLTT_SecureTraceTypeIS1_S4_hhhS9_tS7_EENSD_IS1_SL_Li25EEENS_14PLTT_AgentTypeIS1_S4_thS7_EENS_22NeighborDiscovery_TypeIS1_S4_NS_16iSenseClockModelIS1_N6isense4TimeEEENS_16iSenseTimerModelIS1_EENS_15iSenseRandModelIS1_EES7_EESV_S4_NS_18ReliableRadio_TypeIS1_S4_ST_SV_SX_S7_EESX_ST_S7_EC1Ev
                0x00000000        0x0 out/isense/PLTT_passive_app.o
 _ZN7wiselib26iSenseExtendedTxRadioModelINS_13iSenseOsModelEE17reg_recv_callbackINS_18ReliableRadio_TypeIS1_S2_NS_16iSenseClockModelIS1_N6isense4TimeEEENS_16iSenseTimerModelIS1_EENS_15iSenseRandModelIS1_EENS_11iSenseDebugIS1_EEEEXadL_ZNSF_7receiveEthPhRKNS2_12ExtendedDataEEEEEiPT_
                0x00000000        0x0 out/isense/PLTT_passive_app.o
 _ZN7wiselib21ProtocolSettings_TypeINS_13iSenseOsModelENS_26iSenseExtendedTxRadioModelIS1_EENS_16iSenseTimerModelIS1_EENS_11iSenseDebugIS1_EEEC1EhhhhhhhhhahmhhmhhhhmmNS_20ProtocolPayload_TypeIS1_S3_S7_EE
                0x00000000        0x0 out/isense/PLTT_passive_app.o
 _ZN7wiselib13Protocol_TypeINS_13iSenseOsModelENS_26iSenseExtendedTxRadioModelIS1_EENS_16iSenseClockModelIS1_N6isense4TimeEEENS_16iSenseTimerModelIS1_EENS_11iSenseDebugIS1_EEE13null_callbackEhthPh
                0x00000000        0x0 out/isense/PLTT_passive_app.o
 _ZN7wiselib21ProtocolSettings_TypeINS_13iSenseOsModelENS_26iSenseExtendedTxRadioModelIS1_EENS_16iSenseTimerModelIS1_EENS_11iSenseDebugIS1_EEEC1Ev
                0x00000000        0x0 out/isense/PLTT_passive_app.o
 _ZN7wiselib13vector_staticINS_13iSenseOsModelENS_13Neighbor_TypeIS1_NS_26iSenseExtendedTxRadioModelIS1_EENS_16iSenseClockModelIS1_N6isense4TimeEEENS_16iSenseTimerModelIS1_EENS_11iSenseDebugIS1_EEEELi25EEC1Ev
                0x00000000        0x0 out/isense/PLTT_passive_app.o
 _ZN7wiselib13Protocol_TypeINS_13iSenseOsModelENS_26iSenseExtendedTxRadioModelIS1_EENS_16iSenseClockModelIS1_N6isense4TimeEEENS_16iSenseTimerModelIS1_EENS_11iSenseDebugIS1_EEEC1Ev
                0x00000000        0x0 out/isense/PLTT_passive_app.o
 _ZN7wiselib13vector_staticINS_13iSenseOsModelENS_13Protocol_TypeIS1_NS_26iSenseExtendedTxRadioModelIS1_EENS_16iSenseClockModelIS1_N6isense4TimeEEENS_16iSenseTimerModelIS1_EENS_11iSenseDebugIS1_EEEELi2EEC1Ev
                0x00000000        0x0 out/isense/PLTT_passive_app.o
 _ZN7wiselib22NeighborDiscovery_TypeINS_13iSenseOsModelENS_26iSenseExtendedTxRadioModelIS1_EENS_16iSenseClockModelIS1_N6isense4TimeEEENS_16iSenseTimerModelIS1_EENS_15iSenseRandModelIS1_EENS_11iSenseDebugIS1_EEEC1Ev
                0x00000000        0x0 out/isense/PLTT_passive_app.o
 _ZN7wiselib26iSenseExtendedTxRadioModelINS_13iSenseOsModelEE4sendEthPh
                0x00000000        0x0 out/isense/PLTT_passive_app.o
 _ZN7wiselib18ReliableRadio_TypeINS_13iSenseOsModelENS_26iSenseExtendedTxRadioModelIS1_EENS_16iSenseClockModelIS1_N6isense4TimeEEENS_16iSenseTimerModelIS1_EENS_15iSenseRandModelIS1_EENS_11iSenseDebugIS1_EEE13replies_checkEh
                0x00000000        0x0 out/isense/PLTT_passive_app.o
 _ZNK9delegate4IvthPhRKN7wiselib26iSenseExtendedTxRadioModelINS1_13iSenseOsModelEE12ExtendedDataEEclEthS0_S7_
                0x00000000        0x0 out/isense/PLTT_passive_app.o
 _ZN7wiselib11Beacon_TypeINS_13iSenseOsModelENS_26iSenseExtendedTxRadioModelIS1_EENS_16iSenseClockModelIS1_N6isense4TimeEEENS_16iSenseTimerModelIS1_EENS_11iSenseDebugIS1_EEEC1Ev
                0x00000000        0x0 out/isense/PLTT_passive_app.o
 _ZN7wiselib11Beacon_TypeINS_13iSenseOsModelENS_26iSenseExtendedTxRadioModelIS1_EENS_16iSenseClockModelIS1_N6isense4TimeEEENS_16iSenseTimerModelIS1_EENS_11iSenseDebugIS1_EEE11serial_sizeEv
                0x00000000        0x0 out/isense/PLTT_passive_app.o
 _ZN7wiselib14Position2DTypeINS_13iSenseOsModelENS_26iSenseExtendedTxRadioModelIS1_EEhNS_11iSenseDebugIS1_EEE9serializeEPhh
                0x00000000        0x0 out/isense/PLTT_passive_app.o
 _ZN7wiselib26iSenseExtendedTxRadioModelINS_13iSenseOsModelEE17reg_recv_callbackINS_22NeighborDiscovery_TypeIS1_S2_NS_16iSenseClockModelIS1_N6isense4TimeEEENS_16iSenseTimerModelIS1_EENS_15iSenseRandModelIS1_EENS_11iSenseDebugIS1_EEEEXadL_ZNSF_7receiveEthPhRKNS2_12ExtendedDataEEEEEiPT_
                0x00000000        0x0 out/isense/PLTT_passive_app.o
 _ZN7wiselib26iSenseExtendedTxRadioModelINS_13iSenseOsModelEE17reg_recv_callbackINS_16PLTT_PassiveTypeIS1_NS_8NodeTypeIS1_S2_tNS_14Position2DTypeIS1_S2_tNS_11iSenseDebugIS1_EEEES8_EENS_13PLTT_NodeTypeIS1_S2_SA_NS_19PLTT_NodeTargetTypeIS1_S2_thS8_EENS_13vector_staticIS1_SD_Li5EEENSE_IS1_NS_14PLTT_TraceTypeIS1_S2_hhhSA_tS8_EELi5EEES8_EENSE_IS1_SJ_Li25EEESH_SI_NS_20PLTT_SecureTraceTypeIS1_S2_hhhSA_tS8_EENSE_IS1_SM_Li25EEENS_14PLTT_AgentTypeIS1_S2_thS8_EENS_22NeighborDiscovery_TypeIS1_S2_NS_16iSenseClockModelIS1_N6isense4TimeEEENS_16iSenseTimerModelIS1_EENS_15iSenseRandModelIS1_EES8_EESW_S2_NS_18ReliableRadio_TypeIS1_S2_SU_SW_SY_S8_EESY_SU_S8_EEXadL_ZNS12_7receiveEthPhRKNS2_12ExtendedDataEEEEEiPT_
                0x00000000        0x0 out/isense/PLTT_passive_app.o
 _ZN7wiselib18ReliableRadio_TypeINS_13iSenseOsModelENS_26iSenseExtendedTxRadioModelIS1_EENS_16iSenseClockModelIS1_N6isense4TimeEEENS_16iSenseTimerModelIS1_EENS_15iSenseRandModelIS1_EENS_11iSenseDebugIS1_EEE17reg_recv_callbackINS_16PLTT_PassiveTypeIS1_NS_8NodeTypeIS1_S3_tNS_14Position2DTypeIS1_S3_tSD_EESD_EENS_13PLTT_NodeTypeIS1_S3_SK_NS_19PLTT_NodeTargetTypeIS1_S3_thSD_EENS_13vector_staticIS1_SN_Li5EEENSO_IS1_NS_14PLTT_TraceTypeIS1_S3_hhhSK_tSD_EELi5EEESD_EENSO_IS1_ST_Li25EEESR_SS_NS_20PLTT_SecureTraceTypeIS1_S3_hhhSK_tSD_EENSO_IS1_SW_Li25EEENS_14PLTT_AgentTypeIS1_S3_thSD_EENS_22NeighborDiscovery_TypeIS1_S3_S7_S9_SB_SD_EES9_S3_SE_SB_S7_SD_EEXadL_ZNS12_7receiveEthPhRKNS3_12ExtendedDataEEEEEmPT_
                0x00000000        0x0 out/isense/PLTT_passive_app.o
 _ZN9delegate4IvhthPhE11method_stubIN7wiselib13Protocol_TypeINS3_13iSenseOsModelENS3_26iSenseExtendedTxRadioModelIS5_EENS3_16iSenseClockModelIS5_N6isense4TimeEEENS3_16iSenseTimerModelIS5_EENS3_11iSenseDebugIS5_EEEEXadL_ZNSG_13null_callbackEhthS0_EEEEvPvhthS0_
                0x00000000        0x0 out/isense/PLTT_passive_app.o
 _ZN9delegate4IvthPhRKN7wiselib26iSenseExtendedTxRadioModelINS1_13iSenseOsModelEE12ExtendedDataEE11method_stubINS1_18ReliableRadio_TypeIS3_S4_NS1_16iSenseClockModelIS3_N6isense4TimeEEENS1_16iSenseTimerModelIS3_EENS1_15iSenseRandModelIS3_EENS1_11iSenseDebugIS3_EEEEXadL_ZNSL_7receiveEthS0_S7_EEEEvPvthS0_S7_
                0x00000000        0x0 out/isense/PLTT_passive_app.o
 _ZN7wiselib21ProtocolSettings_TypeINS_13iSenseOsModelENS_26iSenseExtendedTxRadioModelIS1_EENS_16iSenseTimerModelIS1_EENS_11iSenseDebugIS1_EEEaSERKS8_
                0x00000000        0x0 out/isense/PLTT_passive_app.o
 _ZN9delegate4IvhthPhE11method_stubIN7wiselib16PLTT_PassiveTypeINS3_13iSenseOsModelENS3_8NodeTypeIS5_NS3_26iSenseExtendedTxRadioModelIS5_EEtNS3_14Position2DTypeIS5_S8_tNS3_11iSenseDebugIS5_EEEESB_EENS3_13PLTT_NodeTypeIS5_S8_SD_NS3_19PLTT_NodeTargetTypeIS5_S8_thSB_EENS3_13vector_staticIS5_SG_Li5EEENSH_IS5_NS3_14PLTT_TraceTypeIS5_S8_hhhSD_tSB_EELi5EEESB_EENSH_IS5_SM_Li25EEESK_SL_NS3_20PLTT_SecureTraceTypeIS5_S8_hhhSD_tSB_EENSH_IS5_SP_Li25EEENS3_14PLTT_AgentTypeIS5_S8_thSB_EENS3_22NeighborDiscovery_TypeIS5_S8_NS3_16iSenseClockModelIS5_N6isense4TimeEEENS3_16iSenseTimerModelIS5_EENS3_15iSenseRandModelIS5_EESB_EESZ_S8_NS3_18ReliableRadio_TypeIS5_S8_SX_SZ_S11_SB_EES11_SX_SB_EEXadL_ZNS15_14sync_neighborsEhthS0_EEEEvPvhthS0_
                0x00000000        0x0 out/isense/PLTT_passive_app.o
 _ZN7wiselib26iSenseExtendedTxRadioModelINS_13iSenseOsModelEE13disable_radioEv
                0x00000000        0x0 out/isense/PLTT_passive_app.o
 _ZNK9delegate4IvhthPhEclEhthS0_
                0x00000000        0x0 out/isense/PLTT_passive_app.o
 _ZN7wiselib14Position2DTypeINS_13iSenseOsModelENS_26iSenseExtendedTxRadioModelIS1_EEhNS_11iSenseDebugIS1_EEE12de_serializeEPhh
                0x00000000        0x0 out/isense/PLTT_passive_app.o
 _ZN9delegate4IvhthPhE11method_stubIN7wiselib22NeighborDiscovery_TypeINS3_13iSenseOsModelENS3_26iSenseExtendedTxRadioModelIS5_EENS3_16iSenseClockModelIS5_N6isense4TimeEEENS3_16iSenseTimerModelIS5_EENS3_15iSenseRandModelIS5_EENS3_11iSenseDebugIS5_EEEEXadL_ZNSI_15events_callbackEhthS0_EEEEvPvhthS0_
                0x00000000        0x0 out/isense/PLTT_passive_app.o
 _ZN7wiselib13Neighbor_TypeINS_13iSenseOsModelENS_26iSenseExtendedTxRadioModelIS1_EENS_16iSenseClockModelIS1_N6isense4TimeEEENS_16iSenseTimerModelIS1_EENS_11iSenseDebugIS1_EEE30update_link_stab_ratio_inverseEhh
                0x00000000        0x0 out/isense/PLTT_passive_app.o
 _ZN7wiselib13Protocol_TypeINS_13iSenseOsModelENS_26iSenseExtendedTxRadioModelIS1_EENS_16iSenseClockModelIS1_N6isense4TimeEEENS_16iSenseTimerModelIS1_EENS_11iSenseDebugIS1_EEE25resolve_overflow_strategyEt
                0x00000000        0x0 out/isense/PLTT_passive_app.o
 _ZN7wiselib11Beacon_TypeINS_13iSenseOsModelENS_26iSenseExtendedTxRadioModelIS1_EENS_16iSenseClockModelIS1_N6isense4TimeEEENS_16iSenseTimerModelIS1_EENS_11iSenseDebugIS1_EEE21set_protocol_payloadsERNS_13vector_staticIS1_NS_13Protocol_TypeIS1_S3_S7_S9_SB_EELi2EEE
                0x00000000        0x0 out/isense/PLTT_passive_app.o
 _ZN7wiselib18PrivacyMessageTypeINS_13iSenseOsModelENS_26iSenseExtendedTxRadioModelIS1_EEE11set_payloadEhPh
                0x00000000        0x0 out/isense/PLTT_passive_app.o
 _ZN7wiselib26iSenseExtendedTxRadioModelINS_13iSenseOsModelEE9set_powerENS2_7TxPowerE
                0x00000000        0x0 out/isense/PLTT_passive_app.o
 _ZN9delegate1IvPvE11method_stubIN7wiselib16PLTT_PassiveTypeINS3_13iSenseOsModelENS3_8NodeTypeIS5_NS3_26iSenseExtendedTxRadioModelIS5_EEtNS3_14Position2DTypeIS5_S8_tNS3_11iSenseDebugIS5_EEEESB_EENS3_13PLTT_NodeTypeIS5_S8_SD_NS3_19PLTT_NodeTargetTypeIS5_S8_thSB_EENS3_13vector_staticIS5_SG_Li5EEENSH_IS5_NS3_14PLTT_TraceTypeIS5_S8_hhhSD_tSB_EELi5EEESB_EENSH_IS5_SM_Li25EEESK_SL_NS3_20PLTT_SecureTraceTypeIS5_S8_hhhSD_tSB_EENSH_IS5_SP_Li25EEENS3_14PLTT_AgentTypeIS5_S8_thSB_EENS3_22NeighborDiscovery_TypeIS5_S8_NS3_16iSenseClockModelIS5_N6isense4TimeEEENS3_16iSenseTimerModelIS5_EENS3_15iSenseRandModelIS5_EESB_EESZ_S8_NS3_18ReliableRadio_TypeIS5_S8_SX_SZ_S11_SB_EES11_SX_SB_EEXadL_ZNS15_31neighbor_discovery_disable_taskES0_EEEEvS0_S0_
                0x00000000        0x0 out/isense/PLTT_passive_app.o
 _ZN9delegate1IvPvE11method_stubIN7wiselib18ReliableRadio_TypeINS3_13iSenseOsModelENS3_26iSenseExtendedTxRadioModelIS5_EENS3_16iSenseClockModelIS5_N6isense4TimeEEENS3_16iSenseTimerModelIS5_EENS3_15iSenseRandModelIS5_EENS3_11iSenseDebugIS5_EEEEXadL_ZNSI_6daemonES0_EEEEvS0_S0_
                0x00000000        0x0 out/isense/PLTT_passive_app.o
 _ZN9delegate1IvPvE11method_stubIN7wiselib22NeighborDiscovery_TypeINS3_13iSenseOsModelENS3_26iSenseExtendedTxRadioModelIS5_EENS3_16iSenseClockModelIS5_N6isense4TimeEEENS3_16iSenseTimerModelIS5_EENS3_15iSenseRandModelIS5_EENS3_11iSenseDebugIS5_EEEEXadL_ZNSI_17nd_metrics_daemonES0_EEEEvS0_S0_
                0x00000000        0x0 out/isense/PLTT_passive_app.o
 _ZN7wiselib20ProtocolPayload_TypeINS_13iSenseOsModelENS_26iSenseExtendedTxRadioModelIS1_EENS_11iSenseDebugIS1_EEE12de_serializeEPhh
                0x00000000        0x0 out/isense/PLTT_passive_app.o
 _ZN7wiselib13Neighbor_TypeINS_13iSenseOsModelENS_26iSenseExtendedTxRadioModelIS1_EENS_16iSenseClockModelIS1_N6isense4TimeEEENS_16iSenseTimerModelIS1_EENS_11iSenseDebugIS1_EEE12de_serializeEPhh
                0x00000000        0x0 out/isense/PLTT_passive_app.o
 _ZN9delegate4IvthPhRKN7wiselib26iSenseExtendedTxRadioModelINS1_13iSenseOsModelEE12ExtendedDataEE11method_stubINS1_22NeighborDiscovery_TypeIS3_S4_NS1_16iSenseClockModelIS3_N6isense4TimeEEENS1_16iSenseTimerModelIS3_EENS1_15iSenseRandModelIS3_EENS1_11iSenseDebugIS3_EEEEXadL_ZNSL_7receiveEthS0_S7_EEEEvPvthS0_S7_
                0x00000000        0x0 out/isense/PLTT_passive_app.o
 _ZN7wiselib20ProtocolPayload_TypeINS_13iSenseOsModelENS_26iSenseExtendedTxRadioModelIS1_EENS_11iSenseDebugIS1_EEE9serializeEPhh
                0x00000000        0x0 out/isense/PLTT_passive_app.o
 _ZN7wiselib13Neighbor_TypeINS_13iSenseOsModelENS_26iSenseExtendedTxRadioModelIS1_EENS_16iSenseClockModelIS1_N6isense4TimeEEENS_16iSenseTimerModelIS1_EENS_11iSenseDebugIS1_EEE9serializeEPhh
                0x00000000        0x0 out/isense/PLTT_passive_app.o
 _ZN7wiselib11Beacon_TypeINS_13iSenseOsModelENS_26iSenseExtendedTxRadioModelIS1_EENS_16iSenseClockModelIS1_N6isense4TimeEEENS_16iSenseTimerModelIS1_EENS_11iSenseDebugIS1_EEE9serializeEPhh
                0x00000000        0x0 out/isense/PLTT_passive_app.o
 _ZN7wiselib20PLTT_SecureTraceTypeINS_13iSenseOsModelENS_26iSenseExtendedTxRadioModelIS1_EEhhhNS_8NodeTypeIS1_S3_tNS_14Position2DTypeIS1_S3_tNS_11iSenseDebugIS1_EEEES7_EEtS7_EaSERKSA_
                0x00000000        0x0 out/isense/PLTT_passive_app.o
 _ZN7wiselib13vector_staticINS_13iSenseOsModelENS_20PLTT_SecureTraceTypeIS1_NS_26iSenseExtendedTxRadioModelIS1_EEhhhNS_8NodeTypeIS1_S4_tNS_14Position2DTypeIS1_S4_tNS_11iSenseDebugIS1_EEEES8_EEtS8_EELi25EE5eraseENS_15normal_iteratorIS1_PSB_SC_EE
                0x00000000        0x0 out/isense/PLTT_passive_app.o
 _ZN7wiselib20PLTT_SecureTraceTypeINS_13iSenseOsModelENS_26iSenseExtendedTxRadioModelIS1_EEhhhNS_8NodeTypeIS1_S3_tNS_14Position2DTypeIS1_S3_tNS_11iSenseDebugIS1_EEEES7_EEtS7_EC1ERKSA_
                0x00000000        0x0 out/isense/PLTT_passive_app.o
 _ZN7wiselib13vector_staticINS_13iSenseOsModelENS_20PLTT_SecureTraceTypeIS1_NS_26iSenseExtendedTxRadioModelIS1_EEhhhNS_8NodeTypeIS1_S4_tNS_14Position2DTypeIS1_S4_tNS_11iSenseDebugIS1_EEEES8_EEtS8_EELi25EE9push_backERKSB_
                0x00000000        0x0 out/isense/PLTT_passive_app.o
 _ZN7wiselib16PLTT_PassiveTypeINS_13iSenseOsModelENS_8NodeTypeIS1_NS_26iSenseExtendedTxRadioModelIS1_EEtNS_14Position2DTypeIS1_S4_tNS_11iSenseDebugIS1_EEEES7_EENS_13PLTT_NodeTypeIS1_S4_S9_NS_19PLTT_NodeTargetTypeIS1_S4_thS7_EENS_13vector_staticIS1_SC_Li5EEENSD_IS1_NS_14PLTT_TraceTypeIS1_S4_hhhS9_tS7_EELi5EEES7_EENSD_IS1_SI_Li25EEESG_SH_NS_20PLTT_SecureTraceTypeIS1_S4_hhhS9_tS7_EENSD_IS1_SL_Li25EEENS_14PLTT_AgentTypeIS1_S4_thS7_EENS_22NeighborDiscovery_TypeIS1_S4_NS_16iSenseClockModelIS1_N6isense4TimeEEENS_16iSenseTimerModelIS1_EENS_15iSenseRandModelIS1_EES7_EESV_S4_NS_18ReliableRadio_TypeIS1_S4_ST_SV_SX_S7_EESX_ST_S7_E26store_inhibit_secure_traceESL_h
                0x00000000        0x0 out/isense/PLTT_passive_app.o
 _ZN9delegate4IvthPhRKN7wiselib26iSenseExtendedTxRadioModelINS1_13iSenseOsModelEE12ExtendedDataEE11method_stubINS1_16PLTT_PassiveTypeIS3_NS1_8NodeTypeIS3_S4_tNS1_14Position2DTypeIS3_S4_tNS1_11iSenseDebugIS3_EEEESE_EENS1_13PLTT_NodeTypeIS3_S4_SG_NS1_19PLTT_NodeTargetTypeIS3_S4_thSE_EENS1_13vector_staticIS3_SJ_Li5EEENSK_IS3_NS1_14PLTT_TraceTypeIS3_S4_hhhSG_tSE_EELi5EEESE_EENSK_IS3_SP_Li25EEESN_SO_NS1_20PLTT_SecureTraceTypeIS3_S4_hhhSG_tSE_EENSK_IS3_SS_Li25EEENS1_14PLTT_AgentTypeIS3_S4_thSE_EENS1_22NeighborDiscovery_TypeIS3_S4_NS1_16iSenseClockModelIS3_N6isense4TimeEEENS1_16iSenseTimerModelIS3_EENS1_15iSenseRandModelIS3_EESE_EES12_S4_NS1_18ReliableRadio_TypeIS3_S4_S10_S12_S14_SE_EES14_S10_SE_EEXadL_ZNS18_7receiveEthS0_S7_EEEEvPvthS0_S7_
                0x00000000        0x0 out/isense/PLTT_passive_app.o
 _ZN9delegate1IvPvE11method_stubIN7wiselib22NeighborDiscovery_TypeINS3_13iSenseOsModelENS3_26iSenseExtendedTxRadioModelIS5_EENS3_16iSenseClockModelIS5_N6isense4TimeEEENS3_16iSenseTimerModelIS5_EENS3_15iSenseRandModelIS5_EENS3_11iSenseDebugIS5_EEEEXadL_ZNSI_7beaconsES0_EEEEvS0_S0_
                0x00000000        0x0 out/isense/PLTT_passive_app.o
 _ZN9delegate1IvPvE11method_stubIN7wiselib22NeighborDiscovery_TypeINS3_13iSenseOsModelENS3_26iSenseExtendedTxRadioModelIS5_EENS3_16iSenseClockModelIS5_N6isense4TimeEEENS3_16iSenseTimerModelIS5_EENS3_15iSenseRandModelIS5_EENS3_11iSenseDebugIS5_EEEEXadL_ZNSI_9nd_daemonES0_EEEEvS0_S0_
                0x00000000        0x0 out/isense/PLTT_passive_app.o
 _ZN7wiselib8NodeTypeINS_13iSenseOsModelENS_26iSenseExtendedTxRadioModelIS1_EEtNS_14Position2DTypeIS1_S3_tNS_11iSenseDebugIS1_EEEES6_E12de_serializeEPhh
                0x00000000        0x0 out/isense/PLTT_passive_app.o
 _ZN7wiselib20PLTT_SecureTraceTypeINS_13iSenseOsModelENS_26iSenseExtendedTxRadioModelIS1_EEhhhNS_8NodeTypeIS1_S3_tNS_14Position2DTypeIS1_S3_tNS_11iSenseDebugIS1_EEEES7_EEtS7_E12de_serializeEPhh
                0x00000000        0x0 out/isense/PLTT_passive_app.o
 _ZN7wiselib20PLTT_SecureTraceTypeINS_13iSenseOsModelENS_26iSenseExtendedTxRadioModelIS1_EEhhhNS_8NodeTypeIS1_S3_tNS_14Position2DTypeIS1_S3_tNS_11iSenseDebugIS1_EEEES7_EEtS7_EC1EPhh
                0x00000000        0x0 out/isense/PLTT_passive_app.o
 _ZN7wiselib13vector_staticINS_13iSenseOsModelENS_8NodeTypeIS1_NS_26iSenseExtendedTxRadioModelIS1_EEtNS_14Position2DTypeIS1_S4_tNS_11iSenseDebugIS1_EEEES7_EELi100EE5eraseENS_15normal_iteratorIS1_PS9_SA_EE
                0x00000000        0x0 out/isense/PLTT_passive_app.o
 _ZN7wiselib20PLTT_SecureTraceTypeINS_13iSenseOsModelENS_26iSenseExtendedTxRadioModelIS1_EEhhhNS_8NodeTypeIS1_S3_tNS_14Position2DTypeIS1_S3_tNS_11iSenseDebugIS1_EEEES7_EEtS7_E11serial_sizeEv
                0x00000000        0x0 out/isense/PLTT_passive_app.o
 _ZN7wiselib16PLTT_PassiveTypeINS_13iSenseOsModelENS_8NodeTypeIS1_NS_26iSenseExtendedTxRadioModelIS1_EEtNS_14Position2DTypeIS1_S4_tNS_11iSenseDebugIS1_EEEES7_EENS_13PLTT_NodeTypeIS1_S4_S9_NS_19PLTT_NodeTargetTypeIS1_S4_thS7_EENS_13vector_staticIS1_SC_Li5EEENSD_IS1_NS_14PLTT_TraceTypeIS1_S4_hhhS9_tS7_EELi5EEES7_EENSD_IS1_SI_Li25EEESG_SH_NS_20PLTT_SecureTraceTypeIS1_S4_hhhS9_tS7_EENSD_IS1_SL_Li25EEENS_14PLTT_AgentTypeIS1_S4_thS7_EENS_22NeighborDiscovery_TypeIS1_S4_NS_16iSenseClockModelIS1_N6isense4TimeEEENS_16iSenseTimerModelIS1_EENS_15iSenseRandModelIS1_EES7_EESV_S4_NS_18ReliableRadio_TypeIS1_S4_ST_SV_SX_S7_EESX_ST_S7_E18erase_secure_traceESL_
                0x00000000        0x0 out/isense/PLTT_passive_app.o
 _ZN9delegate1IvPvE11method_stubIN7wiselib16PLTT_PassiveTypeINS3_13iSenseOsModelENS3_8NodeTypeIS5_NS3_26iSenseExtendedTxRadioModelIS5_EEtNS3_14Position2DTypeIS5_S8_tNS3_11iSenseDebugIS5_EEEESB_EENS3_13PLTT_NodeTypeIS5_S8_SD_NS3_19PLTT_NodeTargetTypeIS5_S8_thSB_EENS3_13vector_staticIS5_SG_Li5EEENSH_IS5_NS3_14PLTT_TraceTypeIS5_S8_hhhSD_tSB_EELi5EEESB_EENSH_IS5_SM_Li25EEESK_SL_NS3_20PLTT_SecureTraceTypeIS5_S8_hhhSD_tSB_EENSH_IS5_SP_Li25EEENS3_14PLTT_AgentTypeIS5_S8_thSB_EENS3_22NeighborDiscovery_TypeIS5_S8_NS3_16iSenseClockModelIS5_N6isense4TimeEEENS3_16iSenseTimerModelIS5_EENS3_15iSenseRandModelIS5_EESB_EESZ_S8_NS3_18ReliableRadio_TypeIS5_S8_SX_SZ_S11_SB_EES11_SX_SB_EEXadL_ZNS15_13update_tracesES0_EEEEvS0_S0_
                0x00000000        0x0 out/isense/PLTT_passive_app.o
 _ZN9delegate1IvPvE11method_stubIN7wiselib16PLTT_PassiveTypeINS3_13iSenseOsModelENS3_8NodeTypeIS5_NS3_26iSenseExtendedTxRadioModelIS5_EEtNS3_14Position2DTypeIS5_S8_tNS3_11iSenseDebugIS5_EEEESB_EENS3_13PLTT_NodeTypeIS5_S8_SD_NS3_19PLTT_NodeTargetTypeIS5_S8_thSB_EENS3_13vector_staticIS5_SG_Li5EEENSH_IS5_NS3_14PLTT_TraceTypeIS5_S8_hhhSD_tSB_EELi5EEESB_EENSH_IS5_SM_Li25EEESK_SL_NS3_20PLTT_SecureTraceTypeIS5_S8_hhhSD_tSB_EENSH_IS5_SP_Li25EEENS3_14PLTT_AgentTypeIS5_S8_thSB_EENS3_22NeighborDiscovery_TypeIS5_S8_NS3_16iSenseClockModelIS5_N6isense4TimeEEENS3_16iSenseTimerModelIS5_EENS3_15iSenseRandModelIS5_EESB_EESZ_S8_NS3_18ReliableRadio_TypeIS5_S8_SX_SZ_S11_SB_EES11_SX_SB_EEXadL_ZNS15_25decryption_request_daemonES0_EEEEvS0_S0_
                0x00000000        0x0 out/isense/PLTT_passive_app.o
 _ZN7wiselib8NodeTypeINS_13iSenseOsModelENS_26iSenseExtendedTxRadioModelIS1_EEtNS_14Position2DTypeIS1_S3_tNS_11iSenseDebugIS1_EEEES6_E9serializeEPhh
                0x00000000        0x0 out/isense/PLTT_passive_app.o
 _ZN7wiselib20PLTT_SecureTraceTypeINS_13iSenseOsModelENS_26iSenseExtendedTxRadioModelIS1_EEhhhNS_8NodeTypeIS1_S3_tNS_14Position2DTypeIS1_S3_tNS_11iSenseDebugIS1_EEEES7_EEtS7_E9serializeEPhh
                0x00000000        0x0 out/isense/PLTT_passive_app.o
 _ZN9delegate1IvPvE11method_stubIN7wiselib16PLTT_PassiveTypeINS3_13iSenseOsModelENS3_8NodeTypeIS5_NS3_26iSenseExtendedTxRadioModelIS5_EEtNS3_14Position2DTypeIS5_S8_tNS3_11iSenseDebugIS5_EEEESB_EENS3_13PLTT_NodeTypeIS5_S8_SD_NS3_19PLTT_NodeTargetTypeIS5_S8_thSB_EENS3_13vector_staticIS5_SG_Li5EEENSH_IS5_NS3_14PLTT_TraceTypeIS5_S8_hhhSD_tSB_EELi5EEESB_EENSH_IS5_SM_Li25EEESK_SL_NS3_20PLTT_SecureTraceTypeIS5_S8_hhhSD_tSB_EENSH_IS5_SP_Li25EEENS3_14PLTT_AgentTypeIS5_S8_thSB_EENS3_22NeighborDiscovery_TypeIS5_S8_NS3_16iSenseClockModelIS5_N6isense4TimeEEENS3_16iSenseTimerModelIS5_EENS3_15iSenseRandModelIS5_EESB_EESZ_S8_NS3_18ReliableRadio_TypeIS5_S8_SX_SZ_S11_SB_EES11_SX_SB_EEXadL_ZNS15_19spread_secure_traceES0_EEEEvS0_S0_
                0x00000000        0x0 out/isense/PLTT_passive_app.o
 _ZN9delegate1IvPvE11method_stubIN7wiselib16PLTT_PassiveTypeINS3_13iSenseOsModelENS3_8NodeTypeIS5_NS3_26iSenseExtendedTxRadioModelIS5_EEtNS3_14Position2DTypeIS5_S8_tNS3_11iSenseDebugIS5_EEEESB_EENS3_13PLTT_NodeTypeIS5_S8_SD_NS3_19PLTT_NodeTargetTypeIS5_S8_thSB_EENS3_13vector_staticIS5_SG_Li5EEENSH_IS5_NS3_14PLTT_TraceTypeIS5_S8_hhhSD_tSB_EELi5EEESB_EENSH_IS5_SM_Li25EEESK_SL_NS3_20PLTT_SecureTraceTypeIS5_S8_hhhSD_tSB_EENSH_IS5_SP_Li25EEENS3_14PLTT_AgentTypeIS5_S8_thSB_EENS3_22NeighborDiscovery_TypeIS5_S8_NS3_16iSenseClockModelIS5_N6isense4TimeEEENS3_16iSenseTimerModelIS5_EENS3_15iSenseRandModelIS5_EESB_EESZ_S8_NS3_18ReliableRadio_TypeIS5_S8_SX_SZ_S11_SB_EES11_SX_SB_EEXadL_ZNS15_23send_decryption_requestES0_EEEEvS0_S0_
                0x00000000        0x0 out/isense/PLTT_passive_app.o
 _ZNK9delegate3IvthPhEclEthS0_
                0x00000000        0x0 out/isense/PLTT_passive_app.o
 _ZN7wiselib26iSenseExtendedTxRadioModelINS_13iSenseOsModelEE7receiveEhPKhtttthhN6isense4TimeE
                0x00000000        0x0 out/isense/PLTT_passive_app.o
 _ZN6isense4TaskD0Ev
                0x00000000        0x0 out/isense/PLTT_passive_app.o
 _ZN6isense4TaskD1Ev
                0x00000000        0x0 out/isense/PLTT_passive_app.o
 _ZN6isense8ReceiverD0Ev
                0x00000000        0x0 out/isense/PLTT_passive_app.o
 _ZN6isense8ReceiverD1Ev
                0x00000000        0x0 out/isense/PLTT_passive_app.o
 _ZN7wiselib26iSenseExtendedTxRadioModelINS_13iSenseOsModelEED1Ev
                0x00000000        0x0 out/isense/PLTT_passive_app.o
 _ZN7wiselib26iSenseExtendedTxRadioModelINS_13iSenseOsModelEEC1ERN6isense2OsE
                0x00000000        0x0 out/isense/PLTT_passive_app.o
 _ZN7wiselib13FacetProviderINS_13iSenseOsModelENS_26iSenseExtendedTxRadioModelIS1_EEE9get_facetERN6isense2OsE
                0x00000000        0x0 out/isense/PLTT_passive_app.o
 _ZN7wiselib13FacetProviderINS_13iSenseOsModelENS_16iSenseClockModelIS1_N6isense4TimeEEEE9get_facetERNS3_2OsE
                0x00000000        0x0 out/isense/PLTT_passive_app.o
 _ZN7wiselib13FacetProviderINS_13iSenseOsModelENS_15iSenseRandModelIS1_EEE9get_facetERN6isense2OsE
                0x00000000        0x0 out/isense/PLTT_passive_app.o
 _ZN7wiselib13FacetProviderINS_13iSenseOsModelENS_11iSenseDebugIS1_EEE9get_facetERN6isense2OsE
                0x00000000        0x0 out/isense/PLTT_passive_app.o
 _ZN7wiselib13FacetProviderINS_13iSenseOsModelENS_16iSenseTimerModelIS1_EEE9get_facetERN6isense2OsE
                0x00000000        0x0 out/isense/PLTT_passive_app.o
 _ZN7wiselib14PLTT_AgentTypeINS_13iSenseOsModelENS_26iSenseExtendedTxRadioModelIS1_EEthNS_11iSenseDebugIS1_EEE9serializeEPhh
                0x00000000        0x0 out/isense/PLTT_passive_app.o
 _ZN7wiselib14PLTT_AgentTypeINS_13iSenseOsModelENS_26iSenseExtendedTxRadioModelIS1_EEthNS_11iSenseDebugIS1_EEE12de_serializeEPhh
                0x00000000        0x0 out/isense/PLTT_passive_app.o
 _ZN7wiselib13vector_staticINS_13iSenseOsModelENS_13Neighbor_TypeIS1_NS_26iSenseExtendedTxRadioModelIS1_EENS_16iSenseClockModelIS1_N6isense4TimeEEENS_16iSenseTimerModelIS1_EENS_11iSenseDebugIS1_EEEELi25EEaSERKSE_
                0x00000000        0x0 out/isense/PLTT_passive_app.o
 _ZN7wiselib13vector_staticINS_13iSenseOsModelENS_13Neighbor_TypeIS1_NS_26iSenseExtendedTxRadioModelIS1_EENS_16iSenseClockModelIS1_N6isense4TimeEEENS_16iSenseTimerModelIS1_EENS_11iSenseDebugIS1_EEEELi25EEC1ERKSE_
                0x00000000        0x0 out/isense/PLTT_passive_app.o
 _ZN7wiselib13Protocol_TypeINS_13iSenseOsModelENS_26iSenseExtendedTxRadioModelIS1_EENS_16iSenseClockModelIS1_N6isense4TimeEEENS_16iSenseTimerModelIS1_EENS_11iSenseDebugIS1_EEEaSERKSC_
                0x00000000        0x0 out/isense/PLTT_passive_app.o
 _ZN7wiselib13vector_staticINS_13iSenseOsModelENS_13Protocol_TypeIS1_NS_26iSenseExtendedTxRadioModelIS1_EENS_16iSenseClockModelIS1_N6isense4TimeEEENS_16iSenseTimerModelIS1_EENS_11iSenseDebugIS1_EEEELi2EE9push_backERKSD_
                0x00000000        0x0 out/isense/PLTT_passive_app.o
 _ZN7wiselib22NeighborDiscovery_TypeINS_13iSenseOsModelENS_26iSenseExtendedTxRadioModelIS1_EENS_16iSenseClockModelIS1_N6isense4TimeEEENS_16iSenseTimerModelIS1_EENS_15iSenseRandModelIS1_EENS_11iSenseDebugIS1_EEE17register_protocolINS_16PLTT_PassiveTypeIS1_NS_8NodeTypeIS1_S3_tNS_14Position2DTypeIS1_S3_tSD_EESD_EENS_13PLTT_NodeTypeIS1_S3_SK_NS_19PLTT_NodeTargetTypeIS1_S3_thSD_EENS_13vector_staticIS1_SN_Li5EEENSO_IS1_NS_14PLTT_TraceTypeIS1_S3_hhhSK_tSD_EELi5EEESD_EENSO_IS1_ST_Li25EEESR_SS_NS_20PLTT_SecureTraceTypeIS1_S3_hhhSK_tSD_EENSO_IS1_SW_Li25EEENS_14PLTT_AgentTypeIS1_S3_thSD_EESE_S9_S3_NS_18ReliableRadio_TypeIS1_S3_S7_S9_SB_SD_EESB_S7_SD_EEXadL_ZNS12_14sync_neighborsEhthPhEEEEhhNS_21ProtocolSettings_TypeIS1_S3_S9_SD_EEPT_
                0x00000000        0x0 out/isense/PLTT_passive_app.o
 _ZN7wiselib25ReliableRadioMessage_TypeINS_13iSenseOsModelENS_26iSenseExtendedTxRadioModelIS1_EENS_11iSenseDebugIS1_EEEaSERKS6_
                0x00000000        0x0 out/isense/PLTT_passive_app.o
 _ZN7wiselib13vector_staticINS_13iSenseOsModelENS_25ReliableRadioMessage_TypeIS1_NS_26iSenseExtendedTxRadioModelIS1_EENS_11iSenseDebugIS1_EEEELi20EE9push_backERKS7_
                0x00000000        0x0 out/isense/PLTT_passive_app.o
 _ZN7wiselib18ReliableRadio_TypeINS_13iSenseOsModelENS_26iSenseExtendedTxRadioModelIS1_EENS_16iSenseClockModelIS1_N6isense4TimeEEENS_16iSenseTimerModelIS1_EENS_15iSenseRandModelIS1_EENS_11iSenseDebugIS1_EEE29insert_reliable_radio_messageENS_25ReliableRadioMessage_TypeIS1_S3_SD_EE
                0x00000000        0x0 out/isense/PLTT_passive_app.o
 _ZN7wiselib18ReliableRadio_TypeINS_13iSenseOsModelENS_26iSenseExtendedTxRadioModelIS1_EENS_16iSenseClockModelIS1_N6isense4TimeEEENS_16iSenseTimerModelIS1_EENS_15iSenseRandModelIS1_EENS_11iSenseDebugIS1_EEE27insert_reliable_radio_replyENS_25ReliableRadioMessage_TypeIS1_S3_SD_EE
                0x00000000        0x0 out/isense/PLTT_passive_app.o
 _ZN7wiselib12Message_TypeINS_13iSenseOsModelENS_26iSenseExtendedTxRadioModelIS1_EENS_11iSenseDebugIS1_EEE11set_payloadEhPh
                0x00000000        0x0 out/isense/PLTT_passive_app.o
 _ZN7wiselib12Message_TypeINS_13iSenseOsModelENS_26iSenseExtendedTxRadioModelIS1_EENS_11iSenseDebugIS1_EEEC1Ev
                0x00000000        0x0 out/isense/PLTT_passive_app.o
 _ZN7wiselib25ReliableRadioMessage_TypeINS_13iSenseOsModelENS_26iSenseExtendedTxRadioModelIS1_EENS_11iSenseDebugIS1_EEE9serializeEPhm
                0x00000000        0x0 out/isense/PLTT_passive_app.o
 _ZN7wiselib25ReliableRadioMessage_TypeINS_13iSenseOsModelENS_26iSenseExtendedTxRadioModelIS1_EENS_11iSenseDebugIS1_EEE11set_payloadEmPh
                0x00000000        0x0 out/isense/PLTT_passive_app.o
 _ZN7wiselib25ReliableRadioMessage_TypeINS_13iSenseOsModelENS_26iSenseExtendedTxRadioModelIS1_EENS_11iSenseDebugIS1_EEE12de_serializeEPhm
                0x00000000        0x0 out/isense/PLTT_passive_app.o
 _ZN7wiselib13vector_staticINS_13iSenseOsModelENS_19PLTT_NodeTargetTypeIS1_NS_26iSenseExtendedTxRadioModelIS1_EEthNS_11iSenseDebugIS1_EEEELi5EEaSERKS8_
                0x00000000        0x0 out/isense/PLTT_passive_app.o
 _ZN7wiselib13PLTT_NodeTypeINS_13iSenseOsModelENS_26iSenseExtendedTxRadioModelIS1_EENS_8NodeTypeIS1_S3_tNS_14Position2DTypeIS1_S3_tNS_11iSenseDebugIS1_EEEES7_EENS_19PLTT_NodeTargetTypeIS1_S3_thS7_EENS_13vector_staticIS1_SB_Li5EEENSC_IS1_NS_14PLTT_TraceTypeIS1_S3_hhhS9_tS7_EELi5EEES7_EaSERKSH_
                0x00000000        0x0 out/isense/PLTT_passive_app.o
 _ZN7wiselib13vector_staticINS_13iSenseOsModelENS_13PLTT_NodeTypeIS1_NS_26iSenseExtendedTxRadioModelIS1_EENS_8NodeTypeIS1_S4_tNS_14Position2DTypeIS1_S4_tNS_11iSenseDebugIS1_EEEES8_EENS_19PLTT_NodeTargetTypeIS1_S4_thS8_EENS0_IS1_SC_Li5EEENS0_IS1_NS_14PLTT_TraceTypeIS1_S4_hhhSA_tS8_EELi5EEES8_EELi25EE5eraseENS_15normal_iteratorIS1_PSH_SI_EE
                0x00000000        0x0 out/isense/PLTT_passive_app.o
 _ZN7wiselib13vector_staticINS_13iSenseOsModelENS_13PLTT_NodeTypeIS1_NS_26iSenseExtendedTxRadioModelIS1_EENS_8NodeTypeIS1_S4_tNS_14Position2DTypeIS1_S4_tNS_11iSenseDebugIS1_EEEES8_EENS_19PLTT_NodeTargetTypeIS1_S4_thS8_EENS0_IS1_SC_Li5EEENS0_IS1_NS_14PLTT_TraceTypeIS1_S4_hhhSA_tS8_EELi5EEES8_EELi25EE9push_backERKSH_
                0x00000000        0x0 out/isense/PLTT_passive_app.o
 _ZN7wiselib16iSenseTimerModelINS_13iSenseOsModelEE9set_timerINS_16PLTT_PassiveTypeIS1_NS_8NodeTypeIS1_NS_26iSenseExtendedTxRadioModelIS1_EEtNS_14Position2DTypeIS1_S7_tNS_11iSenseDebugIS1_EEEESA_EENS_13PLTT_NodeTypeIS1_S7_SC_NS_19PLTT_NodeTargetTypeIS1_S7_thSA_EENS_13vector_staticIS1_SF_Li5EEENSG_IS1_NS_14PLTT_TraceTypeIS1_S7_hhhSC_tSA_EELi5EEESA_EENSG_IS1_SL_Li25EEESJ_SK_NS_20PLTT_SecureTraceTypeIS1_S7_hhhSC_tSA_EENSG_IS1_SO_Li25EEENS_14PLTT_AgentTypeIS1_S7_thSA_EENS_22NeighborDiscovery_TypeIS1_S7_NS_16iSenseClockModelIS1_N6isense4TimeEEES2_NS_15iSenseRandModelIS1_EESA_EES2_S7_NS_18ReliableRadio_TypeIS1_S7_SW_S2_SY_SA_EESY_SW_SA_EEXadL_ZNS12_23send_decryption_requestEPvEEEEimPT_S13_
                0x00000000        0x0 out/isense/PLTT_passive_app.o
 _ZN7wiselib16iSenseTimerModelINS_13iSenseOsModelEE9set_timerINS_16PLTT_PassiveTypeIS1_NS_8NodeTypeIS1_NS_26iSenseExtendedTxRadioModelIS1_EEtNS_14Position2DTypeIS1_S7_tNS_11iSenseDebugIS1_EEEESA_EENS_13PLTT_NodeTypeIS1_S7_SC_NS_19PLTT_NodeTargetTypeIS1_S7_thSA_EENS_13vector_staticIS1_SF_Li5EEENSG_IS1_NS_14PLTT_TraceTypeIS1_S7_hhhSC_tSA_EELi5EEESA_EENSG_IS1_SL_Li25EEESJ_SK_NS_20PLTT_SecureTraceTypeIS1_S7_hhhSC_tSA_EENSG_IS1_SO_Li25EEENS_14PLTT_AgentTypeIS1_S7_thSA_EENS_22NeighborDiscovery_TypeIS1_S7_NS_16iSenseClockModelIS1_N6isense4TimeEEES2_NS_15iSenseRandModelIS1_EESA_EES2_S7_NS_18ReliableRadio_TypeIS1_S7_SW_S2_SY_SA_EESY_SW_SA_EEXadL_ZNS12_19spread_secure_traceEPvEEEEimPT_S13_
                0x00000000        0x0 out/isense/PLTT_passive_app.o
 _ZN7wiselib16iSenseTimerModelINS_13iSenseOsModelEE9set_timerINS_16PLTT_PassiveTypeIS1_NS_8NodeTypeIS1_NS_26iSenseExtendedTxRadioModelIS1_EEtNS_14Position2DTypeIS1_S7_tNS_11iSenseDebugIS1_EEEESA_EENS_13PLTT_NodeTypeIS1_S7_SC_NS_19PLTT_NodeTargetTypeIS1_S7_thSA_EENS_13vector_staticIS1_SF_Li5EEENSG_IS1_NS_14PLTT_TraceTypeIS1_S7_hhhSC_tSA_EELi5EEESA_EENSG_IS1_SL_Li25EEESJ_SK_NS_20PLTT_SecureTraceTypeIS1_S7_hhhSC_tSA_EENSG_IS1_SO_Li25EEENS_14PLTT_AgentTypeIS1_S7_thSA_EENS_22NeighborDiscovery_TypeIS1_S7_NS_16iSenseClockModelIS1_N6isense4TimeEEES2_NS_15iSenseRandModelIS1_EESA_EES2_S7_NS_18ReliableRadio_TypeIS1_S7_SW_S2_SY_SA_EESY_SW_SA_EEXadL_ZNS12_25decryption_request_daemonEPvEEEEimPT_S13_
                0x00000000        0x0 out/isense/PLTT_passive_app.o
 _ZN7wiselib16iSenseTimerModelINS_13iSenseOsModelEE9set_timerINS_16PLTT_PassiveTypeIS1_NS_8NodeTypeIS1_NS_26iSenseExtendedTxRadioModelIS1_EEtNS_14Position2DTypeIS1_S7_tNS_11iSenseDebugIS1_EEEESA_EENS_13PLTT_NodeTypeIS1_S7_SC_NS_19PLTT_NodeTargetTypeIS1_S7_thSA_EENS_13vector_staticIS1_SF_Li5EEENSG_IS1_NS_14PLTT_TraceTypeIS1_S7_hhhSC_tSA_EELi5EEESA_EENSG_IS1_SL_Li25EEESJ_SK_NS_20PLTT_SecureTraceTypeIS1_S7_hhhSC_tSA_EENSG_IS1_SO_Li25EEENS_14PLTT_AgentTypeIS1_S7_thSA_EENS_22NeighborDiscovery_TypeIS1_S7_NS_16iSenseClockModelIS1_N6isense4TimeEEES2_NS_15iSenseRandModelIS1_EESA_EES2_S7_NS_18ReliableRadio_TypeIS1_S7_SW_S2_SY_SA_EESY_SW_SA_EEXadL_ZNS12_13update_tracesEPvEEEEimPT_S13_
                0x00000000        0x0 out/isense/PLTT_passive_app.o
 _ZN7wiselib16PLTT_PassiveTypeINS_13iSenseOsModelENS_8NodeTypeIS1_NS_26iSenseExtendedTxRadioModelIS1_EEtNS_14Position2DTypeIS1_S4_tNS_11iSenseDebugIS1_EEEES7_EENS_13PLTT_NodeTypeIS1_S4_S9_NS_19PLTT_NodeTargetTypeIS1_S4_thS7_EENS_13vector_staticIS1_SC_Li5EEENSD_IS1_NS_14PLTT_TraceTypeIS1_S4_hhhS9_tS7_EELi5EEES7_EENSD_IS1_SI_Li25EEESG_SH_NS_20PLTT_SecureTraceTypeIS1_S4_hhhS9_tS7_EENSD_IS1_SL_Li25EEENS_14PLTT_AgentTypeIS1_S4_thS7_EENS_22NeighborDiscovery_TypeIS1_S4_NS_16iSenseClockModelIS1_N6isense4TimeEEENS_16iSenseTimerModelIS1_EENS_15iSenseRandModelIS1_EES7_EESV_S4_NS_18ReliableRadio_TypeIS1_S4_ST_SV_SX_S7_EESX_ST_S7_E13update_tracesEPv
                0x00000000        0x0 out/isense/PLTT_passive_app.o
 _ZN7wiselib16iSenseTimerModelINS_13iSenseOsModelEE9set_timerINS_22NeighborDiscovery_TypeIS1_NS_26iSenseExtendedTxRadioModelIS1_EENS_16iSenseClockModelIS1_N6isense4TimeEEES2_NS_15iSenseRandModelIS1_EENS_11iSenseDebugIS1_EEEEXadL_ZNSF_9nd_daemonEPvEEEEimPT_SG_
                0x00000000        0x0 out/isense/PLTT_passive_app.o
 _ZN7wiselib16iSenseTimerModelINS_13iSenseOsModelEE9set_timerINS_22NeighborDiscovery_TypeIS1_NS_26iSenseExtendedTxRadioModelIS1_EENS_16iSenseClockModelIS1_N6isense4TimeEEES2_NS_15iSenseRandModelIS1_EENS_11iSenseDebugIS1_EEEEXadL_ZNSF_7beaconsEPvEEEEimPT_SG_
                0x00000000        0x0 out/isense/PLTT_passive_app.o
 _ZN7wiselib16iSenseTimerModelINS_13iSenseOsModelEE9set_timerINS_22NeighborDiscovery_TypeIS1_NS_26iSenseExtendedTxRadioModelIS1_EENS_16iSenseClockModelIS1_N6isense4TimeEEES2_NS_15iSenseRandModelIS1_EENS_11iSenseDebugIS1_EEEEXadL_ZNSF_17nd_metrics_daemonEPvEEEEimPT_SG_
                0x00000000        0x0 out/isense/PLTT_passive_app.o
 _ZN7wiselib16iSenseTimerModelINS_13iSenseOsModelEE9set_timerINS_18ReliableRadio_TypeIS1_NS_26iSenseExtendedTxRadioModelIS1_EENS_16iSenseClockModelIS1_N6isense4TimeEEES2_NS_15iSenseRandModelIS1_EENS_11iSenseDebugIS1_EEEEXadL_ZNSF_6daemonEPvEEEEimPT_SG_
                0x00000000        0x0 out/isense/PLTT_passive_app.o
 _ZN7wiselib18ReliableRadio_TypeINS_13iSenseOsModelENS_26iSenseExtendedTxRadioModelIS1_EENS_16iSenseClockModelIS1_N6isense4TimeEEENS_16iSenseTimerModelIS1_EENS_15iSenseRandModelIS1_EENS_11iSenseDebugIS1_EEE6daemonEPv
                0x00000000        0x0 out/isense/PLTT_passive_app.o
 _ZN7wiselib18ReliableRadio_TypeINS_13iSenseOsModelENS_26iSenseExtendedTxRadioModelIS1_EENS_16iSenseClockModelIS1_N6isense4TimeEEENS_16iSenseTimerModelIS1_EENS_15iSenseRandModelIS1_EENS_11iSenseDebugIS1_EEE12enable_radioEv
                0x00000000        0x0 out/isense/PLTT_passive_app.o
 _ZN7wiselib16iSenseTimerModelINS_13iSenseOsModelEE9set_timerINS_16PLTT_PassiveTypeIS1_NS_8NodeTypeIS1_NS_26iSenseExtendedTxRadioModelIS1_EEtNS_14Position2DTypeIS1_S7_tNS_11iSenseDebugIS1_EEEESA_EENS_13PLTT_NodeTypeIS1_S7_SC_NS_19PLTT_NodeTargetTypeIS1_S7_thSA_EENS_13vector_staticIS1_SF_Li5EEENSG_IS1_NS_14PLTT_TraceTypeIS1_S7_hhhSC_tSA_EELi5EEESA_EENSG_IS1_SL_Li25EEESJ_SK_NS_20PLTT_SecureTraceTypeIS1_S7_hhhSC_tSA_EENSG_IS1_SO_Li25EEENS_14PLTT_AgentTypeIS1_S7_thSA_EENS_22NeighborDiscovery_TypeIS1_S7_NS_16iSenseClockModelIS1_N6isense4TimeEEES2_NS_15iSenseRandModelIS1_EESA_EES2_S7_NS_18ReliableRadio_TypeIS1_S7_SW_S2_SY_SA_EESY_SW_SA_EEXadL_ZNS12_31neighbor_discovery_disable_taskEPvEEEEimPT_S13_
                0x00000000        0x0 out/isense/PLTT_passive_app.o
 _ZN7wiselib13Neighbor_TypeINS_13iSenseOsModelENS_26iSenseExtendedTxRadioModelIS1_EENS_16iSenseClockModelIS1_N6isense4TimeEEENS_16iSenseTimerModelIS1_EENS_11iSenseDebugIS1_EEEaSERKSC_
                0x00000000        0x0 out/isense/PLTT_passive_app.o
 _ZN7wiselib13vector_staticINS_13iSenseOsModelENS_13Neighbor_TypeIS1_NS_26iSenseExtendedTxRadioModelIS1_EENS_16iSenseClockModelIS1_N6isense4TimeEEENS_16iSenseTimerModelIS1_EENS_11iSenseDebugIS1_EEEELi25EE5eraseENS_15normal_iteratorIS1_PSD_SE_EE
                0x00000000        0x0 out/isense/PLTT_passive_app.o
 _ZN7wiselib22NeighborDiscovery_TypeINS_13iSenseOsModelENS_26iSenseExtendedTxRadioModelIS1_EENS_16iSenseClockModelIS1_N6isense4TimeEEENS_16iSenseTimerModelIS1_EENS_15iSenseRandModelIS1_EENS_11iSenseDebugIS1_EEE21remove_worst_neighborERNS_13Protocol_TypeIS1_S3_S7_S9_SD_EE
                0x00000000        0x0 out/isense/PLTT_passive_app.o
 _ZN7wiselib13vector_staticINS_13iSenseOsModelENS_13Neighbor_TypeIS1_NS_26iSenseExtendedTxRadioModelIS1_EENS_16iSenseClockModelIS1_N6isense4TimeEEENS_16iSenseTimerModelIS1_EENS_11iSenseDebugIS1_EEEELi25EE9push_backERKSD_
                0x00000000        0x0 out/isense/PLTT_passive_app.o
 _ZN7wiselib11Beacon_TypeINS_13iSenseOsModelENS_26iSenseExtendedTxRadioModelIS1_EENS_16iSenseClockModelIS1_N6isense4TimeEEENS_16iSenseTimerModelIS1_EENS_11iSenseDebugIS1_EEE16set_neighborhoodERNS_13vector_staticIS1_NS_13Neighbor_TypeIS1_S3_S7_S9_SB_EELi25EEEt
                0x00000000        0x0 out/isense/PLTT_passive_app.o
 _ZN7wiselib11Beacon_TypeINS_13iSenseOsModelENS_26iSenseExtendedTxRadioModelIS1_EENS_16iSenseClockModelIS1_N6isense4TimeEEENS_16iSenseTimerModelIS1_EENS_11iSenseDebugIS1_EEE12de_serializeEPhh
                0x00000000        0x0 out/isense/PLTT_passive_app.o
 _ZN7wiselib11iSenseDebugINS_13iSenseOsModelEE5debugEPKcz
                0x00000000        0x0 out/isense/PLTT_passive_app.o
 _ZN7wiselib16PLTT_PassiveTypeINS_13iSenseOsModelENS_8NodeTypeIS1_NS_26iSenseExtendedTxRadioModelIS1_EEtNS_14Position2DTypeIS1_S4_tNS_11iSenseDebugIS1_EEEES7_EENS_13PLTT_NodeTypeIS1_S4_S9_NS_19PLTT_NodeTargetTypeIS1_S4_thS7_EENS_13vector_staticIS1_SC_Li5EEENSD_IS1_NS_14PLTT_TraceTypeIS1_S4_hhhS9_tS7_EELi5EEES7_EENSD_IS1_SI_Li25EEESG_SH_NS_20PLTT_SecureTraceTypeIS1_S4_hhhS9_tS7_EENSD_IS1_SL_Li25EEENS_14PLTT_AgentTypeIS1_S4_thS7_EENS_22NeighborDiscovery_TypeIS1_S4_NS_16iSenseClockModelIS1_N6isense4TimeEEENS_16iSenseTimerModelIS1_EENS_15iSenseRandModelIS1_EES7_EESV_S4_NS_18ReliableRadio_TypeIS1_S4_ST_SV_SX_S7_EESX_ST_S7_E23send_decryption_requestEPv
                0x00000000        0x0 out/isense/PLTT_passive_app.o
 _ZN7wiselib22NeighborDiscovery_TypeINS_13iSenseOsModelENS_26iSenseExtendedTxRadioModelIS1_EENS_16iSenseClockModelIS1_N6isense4TimeEEENS_16iSenseTimerModelIS1_EENS_15iSenseRandModelIS1_EENS_11iSenseDebugIS1_EEE15events_callbackEhthPh
                0x00000000        0x0 out/isense/PLTT_passive_app.o
 _ZN7wiselib16PLTT_PassiveTypeINS_13iSenseOsModelENS_8NodeTypeIS1_NS_26iSenseExtendedTxRadioModelIS1_EEtNS_14Position2DTypeIS1_S4_tNS_11iSenseDebugIS1_EEEES7_EENS_13PLTT_NodeTypeIS1_S4_S9_NS_19PLTT_NodeTargetTypeIS1_S4_thS7_EENS_13vector_staticIS1_SC_Li5EEENSD_IS1_NS_14PLTT_TraceTypeIS1_S4_hhhS9_tS7_EELi5EEES7_EENSD_IS1_SI_Li25EEESG_SH_NS_20PLTT_SecureTraceTypeIS1_S4_hhhS9_tS7_EENSD_IS1_SL_Li25EEENS_14PLTT_AgentTypeIS1_S4_thS7_EENS_22NeighborDiscovery_TypeIS1_S4_NS_16iSenseClockModelIS1_N6isense4TimeEEENS_16iSenseTimerModelIS1_EENS_15iSenseRandModelIS1_EES7_EESV_S4_NS_18ReliableRadio_TypeIS1_S4_ST_SV_SX_S7_EESX_ST_S7_E14sync_neighborsEhthPh
                0x00000000        0x0 out/isense/PLTT_passive_app.o
 _ZN7wiselib13vector_staticINS_13iSenseOsModelENS_14PLTT_TraceTypeIS1_NS_26iSenseExtendedTxRadioModelIS1_EEhhhNS_8NodeTypeIS1_S4_tNS_14Position2DTypeIS1_S4_tNS_11iSenseDebugIS1_EEEES8_EEtS8_EELi5EE9push_backERKSB_
                0x00000000        0x0 out/isense/PLTT_passive_app.o
 _ZN7wiselib16PLTT_PassiveTypeINS_13iSenseOsModelENS_8NodeTypeIS1_NS_26iSenseExtendedTxRadioModelIS1_EEtNS_14Position2DTypeIS1_S4_tNS_11iSenseDebugIS1_EEEES7_EENS_13PLTT_NodeTypeIS1_S4_S9_NS_19PLTT_NodeTargetTypeIS1_S4_thS7_EENS_13vector_staticIS1_SC_Li5EEENSD_IS1_NS_14PLTT_TraceTypeIS1_S4_hhhS9_tS7_EELi5EEES7_EENSD_IS1_SI_Li25EEESG_SH_NS_20PLTT_SecureTraceTypeIS1_S4_hhhS9_tS7_EENSD_IS1_SL_Li25EEENS_14PLTT_AgentTypeIS1_S4_thS7_EENS_22NeighborDiscovery_TypeIS1_S4_NS_16iSenseClockModelIS1_N6isense4TimeEEENS_16iSenseTimerModelIS1_EENS_15iSenseRandModelIS1_EES7_EESV_S4_NS_18ReliableRadio_TypeIS1_S4_ST_SV_SX_S7_EESX_ST_S7_E19store_inhibit_traceESG_h
                0x00000000        0x0 out/isense/PLTT_passive_app.o
 _ZN7wiselib14PLTT_TraceTypeINS_13iSenseOsModelENS_26iSenseExtendedTxRadioModelIS1_EEhhhNS_8NodeTypeIS1_S3_tNS_14Position2DTypeIS1_S3_tNS_11iSenseDebugIS1_EEEES7_EEtS7_EC1ERKSA_
                0x00000000        0x0 out/isense/PLTT_passive_app.o
 _ZN7wiselib16PLTT_PassiveTypeINS_13iSenseOsModelENS_8NodeTypeIS1_NS_26iSenseExtendedTxRadioModelIS1_EEtNS_14Position2DTypeIS1_S4_tNS_11iSenseDebugIS1_EEEES7_EENS_13PLTT_NodeTypeIS1_S4_S9_NS_19PLTT_NodeTargetTypeIS1_S4_thS7_EENS_13vector_staticIS1_SC_Li5EEENSD_IS1_NS_14PLTT_TraceTypeIS1_S4_hhhS9_tS7_EELi5EEES7_EENSD_IS1_SI_Li25EEESG_SH_NS_20PLTT_SecureTraceTypeIS1_S4_hhhS9_tS7_EENSD_IS1_SL_Li25EEENS_14PLTT_AgentTypeIS1_S4_thS7_EENS_22NeighborDiscovery_TypeIS1_S4_NS_16iSenseClockModelIS1_N6isense4TimeEEENS_16iSenseTimerModelIS1_EENS_15iSenseRandModelIS1_EES7_EESV_S4_NS_18ReliableRadio_TypeIS1_S4_ST_SV_SX_S7_EESX_ST_S7_E25decryption_request_daemonEPv
                0x00000000        0x0 out/isense/PLTT_passive_app.o
 _ZN7wiselib16PLTT_PassiveTypeINS_13iSenseOsModelENS_8NodeTypeIS1_NS_26iSenseExtendedTxRadioModelIS1_EEtNS_14Position2DTypeIS1_S4_tNS_11iSenseDebugIS1_EEEES7_EENS_13PLTT_NodeTypeIS1_S4_S9_NS_19PLTT_NodeTargetTypeIS1_S4_thS7_EENS_13vector_staticIS1_SC_Li5EEENSD_IS1_NS_14PLTT_TraceTypeIS1_S4_hhhS9_tS7_EELi5EEES7_EENSD_IS1_SI_Li25EEESG_SH_NS_20PLTT_SecureTraceTypeIS1_S4_hhhS9_tS7_EENSD_IS1_SL_Li25EEENS_14PLTT_AgentTypeIS1_S4_thS7_EENS_22NeighborDiscovery_TypeIS1_S4_NS_16iSenseClockModelIS1_N6isense4TimeEEENS_16iSenseTimerModelIS1_EENS_15iSenseRandModelIS1_EES7_EESV_S4_NS_18ReliableRadio_TypeIS1_S4_ST_SV_SX_S7_EESX_ST_S7_E31neighbor_discovery_disable_taskEPv
                0x00000000        0x0 out/isense/PLTT_passive_app.o
 _ZN7wiselib16PLTT_PassiveTypeINS_13iSenseOsModelENS_8NodeTypeIS1_NS_26iSenseExtendedTxRadioModelIS1_EEtNS_14Position2DTypeIS1_S4_tNS_11iSenseDebugIS1_EEEES7_EENS_13PLTT_NodeTypeIS1_S4_S9_NS_19PLTT_NodeTargetTypeIS1_S4_thS7_EENS_13vector_staticIS1_SC_Li5EEENSD_IS1_NS_14PLTT_TraceTypeIS1_S4_hhhS9_tS7_EELi5EEES7_EENSD_IS1_SI_Li25EEESG_SH_NS_20PLTT_SecureTraceTypeIS1_S4_hhhS9_tS7_EENSD_IS1_SL_Li25EEENS_14PLTT_AgentTypeIS1_S4_thS7_EENS_22NeighborDiscovery_TypeIS1_S4_NS_16iSenseClockModelIS1_N6isense4TimeEEENS_16iSenseTimerModelIS1_EENS_15iSenseRandModelIS1_EES7_EESV_S4_NS_18ReliableRadio_TypeIS1_S4_ST_SV_SX_S7_EESX_ST_S7_E4sendEthPhh
                0x00000000        0x0 out/isense/PLTT_passive_app.o
 _ZN7wiselib26iSenseExtendedTxRadioModelINS_13iSenseOsModelEED0Ev
                0x00000000        0x0 out/isense/PLTT_passive_app.o
 _ZN7wiselib16PLTT_PassiveTypeINS_13iSenseOsModelENS_8NodeTypeIS1_NS_26iSenseExtendedTxRadioModelIS1_EEtNS_14Position2DTypeIS1_S4_tNS_11iSenseDebugIS1_EEEES7_EENS_13PLTT_NodeTypeIS1_S4_S9_NS_19PLTT_NodeTargetTypeIS1_S4_thS7_EENS_13vector_staticIS1_SC_Li5EEENSD_IS1_NS_14PLTT_TraceTypeIS1_S4_hhhS9_tS7_EELi5EEES7_EENSD_IS1_SI_Li25EEESG_SH_NS_20PLTT_SecureTraceTypeIS1_S4_hhhS9_tS7_EENSD_IS1_SL_Li25EEENS_14PLTT_AgentTypeIS1_S4_thS7_EENS_22NeighborDiscovery_TypeIS1_S4_NS_16iSenseClockModelIS1_N6isense4TimeEEENS_16iSenseTimerModelIS1_EENS_15iSenseRandModelIS1_EES7_EESV_S4_NS_18ReliableRadio_TypeIS1_S4_ST_SV_SX_S7_EESX_ST_S7_E27prepare_spread_secure_traceEPSL_RKNS4_12ExtendedDataE
                0x00000000        0x0 out/isense/PLTT_passive_app.o
 _ZN7wiselib18ReliableRadio_TypeINS_13iSenseOsModelENS_26iSenseExtendedTxRadioModelIS1_EENS_16iSenseClockModelIS1_N6isense4TimeEEENS_16iSenseTimerModelIS1_EENS_15iSenseRandModelIS1_EENS_11iSenseDebugIS1_EEE4sendEthPh
                0x00000000        0x0 out/isense/PLTT_passive_app.o
 _ZN7wiselib16PLTT_PassiveTypeINS_13iSenseOsModelENS_8NodeTypeIS1_NS_26iSenseExtendedTxRadioModelIS1_EEtNS_14Position2DTypeIS1_S4_tNS_11iSenseDebugIS1_EEEES7_EENS_13PLTT_NodeTypeIS1_S4_S9_NS_19PLTT_NodeTargetTypeIS1_S4_thS7_EENS_13vector_staticIS1_SC_Li5EEENSD_IS1_NS_14PLTT_TraceTypeIS1_S4_hhhS9_tS7_EELi5EEES7_EENSD_IS1_SI_Li25EEESG_SH_NS_20PLTT_SecureTraceTypeIS1_S4_hhhS9_tS7_EENSD_IS1_SL_Li25EEENS_14PLTT_AgentTypeIS1_S4_thS7_EENS_22NeighborDiscovery_TypeIS1_S4_NS_16iSenseClockModelIS1_N6isense4TimeEEENS_16iSenseTimerModelIS1_EENS_15iSenseRandModelIS1_EES7_EESV_S4_NS_18ReliableRadio_TypeIS1_S4_ST_SV_SX_S7_EESX_ST_S7_E19spread_secure_traceEPv
                0x00000000        0x0 out/isense/PLTT_passive_app.o
 _ZN7wiselib16PLTT_PassiveTypeINS_13iSenseOsModelENS_8NodeTypeIS1_NS_26iSenseExtendedTxRadioModelIS1_EEtNS_14Position2DTypeIS1_S4_tNS_11iSenseDebugIS1_EEEES7_EENS_13PLTT_NodeTypeIS1_S4_S9_NS_19PLTT_NodeTargetTypeIS1_S4_thS7_EENS_13vector_staticIS1_SC_Li5EEENSD_IS1_NS_14PLTT_TraceTypeIS1_S4_hhhS9_tS7_EELi5EEES7_EENSD_IS1_SI_Li25EEESG_SH_NS_20PLTT_SecureTraceTypeIS1_S4_hhhS9_tS7_EENSD_IS1_SL_Li25EEENS_14PLTT_AgentTypeIS1_S4_thS7_EENS_22NeighborDiscovery_TypeIS1_S4_NS_16iSenseClockModelIS1_N6isense4TimeEEENS_16iSenseTimerModelIS1_EENS_15iSenseRandModelIS1_EES7_EESV_S4_NS_18ReliableRadio_TypeIS1_S4_ST_SV_SX_S7_EESX_ST_S7_E14process_reportESO_
                0x00000000        0x0 out/isense/PLTT_passive_app.o
 _ZN7wiselib16PLTT_PassiveTypeINS_13iSenseOsModelENS_8NodeTypeIS1_NS_26iSenseExtendedTxRadioModelIS1_EEtNS_14Position2DTypeIS1_S4_tNS_11iSenseDebugIS1_EEEES7_EENS_13PLTT_NodeTypeIS1_S4_S9_NS_19PLTT_NodeTargetTypeIS1_S4_thS7_EENS_13vector_staticIS1_SC_Li5EEENSD_IS1_NS_14PLTT_TraceTypeIS1_S4_hhhS9_tS7_EELi5EEES7_EENSD_IS1_SI_Li25EEESG_SH_NS_20PLTT_SecureTraceTypeIS1_S4_hhhS9_tS7_EENSD_IS1_SL_Li25EEENS_14PLTT_AgentTypeIS1_S4_thS7_EENS_22NeighborDiscovery_TypeIS1_S4_NS_16iSenseClockModelIS1_N6isense4TimeEEENS_16iSenseTimerModelIS1_EENS_15iSenseRandModelIS1_EES7_EESV_S4_NS_18ReliableRadio_TypeIS1_S4_ST_SV_SX_S7_EESX_ST_S7_E13process_queryESO_
                0x00000000        0x0 out/isense/PLTT_passive_app.o
 _ZN7wiselib16PLTT_PassiveTypeINS_13iSenseOsModelENS_8NodeTypeIS1_NS_26iSenseExtendedTxRadioModelIS1_EEtNS_14Position2DTypeIS1_S4_tNS_11iSenseDebugIS1_EEEES7_EENS_13PLTT_NodeTypeIS1_S4_S9_NS_19PLTT_NodeTargetTypeIS1_S4_thS7_EENS_13vector_staticIS1_SC_Li5EEENSD_IS1_NS_14PLTT_TraceTypeIS1_S4_hhhS9_tS7_EELi5EEES7_EENSD_IS1_SI_Li25EEESG_SH_NS_20PLTT_SecureTraceTypeIS1_S4_hhhS9_tS7_EENSD_IS1_SL_Li25EEENS_14PLTT_AgentTypeIS1_S4_thS7_EENS_22NeighborDiscovery_TypeIS1_S4_NS_16iSenseClockModelIS1_N6isense4TimeEEENS_16iSenseTimerModelIS1_EENS_15iSenseRandModelIS1_EES7_EESV_S4_NS_18ReliableRadio_TypeIS1_S4_ST_SV_SX_S7_EESX_ST_S7_E7receiveEthPhRKNS4_12ExtendedDataE
                0x00000000        0x0 out/isense/PLTT_passive_app.o
 _ZN7wiselib13Neighbor_TypeINS_13iSenseOsModelENS_26iSenseExtendedTxRadioModelIS1_EENS_16iSenseClockModelIS1_N6isense4TimeEEENS_16iSenseTimerModelIS1_EENS_11iSenseDebugIS1_EEE5printERSB_RS3_NS_14Position2DTypeIS1_S3_hSB_EE
                0x00000000        0x0 out/isense/PLTT_passive_app.o
 _ZN7wiselib13Protocol_TypeINS_13iSenseOsModelENS_26iSenseExtendedTxRadioModelIS1_EENS_16iSenseClockModelIS1_N6isense4TimeEEENS_16iSenseTimerModelIS1_EENS_11iSenseDebugIS1_EEE5printERSB_RS3_RNS_14Position2DTypeIS1_S3_hSB_EE
                0x00000000        0x0 out/isense/PLTT_passive_app.o
 _ZN7wiselib22NeighborDiscovery_TypeINS_13iSenseOsModelENS_26iSenseExtendedTxRadioModelIS1_EENS_16iSenseClockModelIS1_N6isense4TimeEEENS_16iSenseTimerModelIS1_EENS_15iSenseRandModelIS1_EENS_11iSenseDebugIS1_EEE9nd_daemonEPv
                0x00000000        0x0 out/isense/PLTT_passive_app.o
 _ZN7wiselib22NeighborDiscovery_TypeINS_13iSenseOsModelENS_26iSenseExtendedTxRadioModelIS1_EENS_16iSenseClockModelIS1_N6isense4TimeEEENS_16iSenseTimerModelIS1_EENS_15iSenseRandModelIS1_EENS_11iSenseDebugIS1_EEE7receiveEthPhRKNS3_12ExtendedDataE
                0x00000000        0x0 out/isense/PLTT_passive_app.o
 _ZN7wiselib22NeighborDiscovery_TypeINS_13iSenseOsModelENS_26iSenseExtendedTxRadioModelIS1_EENS_16iSenseClockModelIS1_N6isense4TimeEEENS_16iSenseTimerModelIS1_EENS_15iSenseRandModelIS1_EENS_11iSenseDebugIS1_EEE17get_beacon_periodEv
                0x00000000        0x0 out/isense/PLTT_passive_app.o
 _ZN7wiselib22NeighborDiscovery_TypeINS_13iSenseOsModelENS_26iSenseExtendedTxRadioModelIS1_EENS_16iSenseClockModelIS1_N6isense4TimeEEENS_16iSenseTimerModelIS1_EENS_15iSenseRandModelIS1_EENS_11iSenseDebugIS1_EEE25get_transmission_power_dBEv
                0x00000000        0x0 out/isense/PLTT_passive_app.o
 _ZN7wiselib22NeighborDiscovery_TypeINS_13iSenseOsModelENS_26iSenseExtendedTxRadioModelIS1_EENS_16iSenseClockModelIS1_N6isense4TimeEEENS_16iSenseTimerModelIS1_EENS_15iSenseRandModelIS1_EENS_11iSenseDebugIS1_EEE4sendEthPhh
                0x00000000        0x0 out/isense/PLTT_passive_app.o
 _ZN7wiselib22NeighborDiscovery_TypeINS_13iSenseOsModelENS_26iSenseExtendedTxRadioModelIS1_EENS_16iSenseClockModelIS1_N6isense4TimeEEENS_16iSenseTimerModelIS1_EENS_15iSenseRandModelIS1_EENS_11iSenseDebugIS1_EEE7beaconsEPv
                0x00000000        0x0 out/isense/PLTT_passive_app.o
 _ZN7wiselib22NeighborDiscovery_TypeINS_13iSenseOsModelENS_26iSenseExtendedTxRadioModelIS1_EENS_16iSenseClockModelIS1_N6isense4TimeEEENS_16iSenseTimerModelIS1_EENS_15iSenseRandModelIS1_EENS_11iSenseDebugIS1_EEE17nd_metrics_daemonEPv
                0x00000000        0x0 out/isense/PLTT_passive_app.o
 _ZN7wiselib22NeighborDiscovery_TypeINS_13iSenseOsModelENS_26iSenseExtendedTxRadioModelIS1_EENS_16iSenseClockModelIS1_N6isense4TimeEEENS_16iSenseTimerModelIS1_EENS_15iSenseRandModelIS1_EENS_11iSenseDebugIS1_EEE6enableEv
                0x00000000        0x0 out/isense/PLTT_passive_app.o
 _ZN7wiselib16PLTT_PassiveTypeINS_13iSenseOsModelENS_8NodeTypeIS1_NS_26iSenseExtendedTxRadioModelIS1_EEtNS_14Position2DTypeIS1_S4_tNS_11iSenseDebugIS1_EEEES7_EENS_13PLTT_NodeTypeIS1_S4_S9_NS_19PLTT_NodeTargetTypeIS1_S4_thS7_EENS_13vector_staticIS1_SC_Li5EEENSD_IS1_NS_14PLTT_TraceTypeIS1_S4_hhhS9_tS7_EELi5EEES7_EENSD_IS1_SI_Li25EEESG_SH_NS_20PLTT_SecureTraceTypeIS1_S4_hhhS9_tS7_EENSD_IS1_SL_Li25EEENS_14PLTT_AgentTypeIS1_S4_thS7_EENS_22NeighborDiscovery_TypeIS1_S4_NS_16iSenseClockModelIS1_N6isense4TimeEEENS_16iSenseTimerModelIS1_EENS_15iSenseRandModelIS1_EES7_EESV_S4_NS_18ReliableRadio_TypeIS1_S4_ST_SV_SX_S7_EESX_ST_S7_E30neighbor_discovery_enable_taskEPv
                0x00000000        0x0 out/isense/PLTT_passive_app.o
 _ZN7wiselib16PLTT_PassiveTypeINS_13iSenseOsModelENS_8NodeTypeIS1_NS_26iSenseExtendedTxRadioModelIS1_EEtNS_14Position2DTypeIS1_S4_tNS_11iSenseDebugIS1_EEEES7_EENS_13PLTT_NodeTypeIS1_S4_S9_NS_19PLTT_NodeTargetTypeIS1_S4_thS7_EENS_13vector_staticIS1_SC_Li5EEENSD_IS1_NS_14PLTT_TraceTypeIS1_S4_hhhS9_tS7_EELi5EEES7_EENSD_IS1_SI_Li25EEESG_SH_NS_20PLTT_SecureTraceTypeIS1_S4_hhhS9_tS7_EENSD_IS1_SL_Li25EEENS_14PLTT_AgentTypeIS1_S4_thS7_EENS_22NeighborDiscovery_TypeIS1_S4_NS_16iSenseClockModelIS1_N6isense4TimeEEENS_16iSenseTimerModelIS1_EENS_15iSenseRandModelIS1_EES7_EESV_S4_NS_18ReliableRadio_TypeIS1_S4_ST_SV_SX_S7_EESX_ST_S7_E6enableEv
                0x00000000        0x0 out/isense/PLTT_passive_app.o
 _ZN7wiselib18ReliableRadio_TypeINS_13iSenseOsModelENS_26iSenseExtendedTxRadioModelIS1_EENS_16iSenseClockModelIS1_N6isense4TimeEEENS_16iSenseTimerModelIS1_EENS_15iSenseRandModelIS1_EENS_11iSenseDebugIS1_EEE7receiveEthPhRKNS3_12ExtendedDataE
                0x00000000        0x0 out/isense/PLTT_passive_app.o
 _Z13get_node_infoIN7wiselib14Position2DTypeINS0_13iSenseOsModelENS0_26iSenseExtendedTxRadioModelIS2_EEtNS0_11iSenseDebugIS2_EEEES4_ET_PT0_
                0x00000000        0x0 out/isense/PLTT_passive_app.o
 _ZTVN6isense4TaskE
                0x00000000        0x0 out/isense/PLTT_passive_app.o
 _ZN7wiselib13FacetProviderINS_13iSenseOsModelENS_26iSenseExtendedTxRadioModelIS1_EEE6facet_E
                0x00000000        0x0 out/isense/PLTT_passive_app.o
 _ZTVN7wiselib26iSenseExtendedTxRadioModelINS_13iSenseOsModelEEE
                0x00000000        0x0 out/isense/PLTT_passive_app.o
 _ZTVN6isense8ReceiverE
                0x00000000        0x0 out/isense/PLTT_passive_app.o
 _ZN7wiselib13FacetProviderINS_13iSenseOsModelENS_16iSenseTimerModelIS1_EEE6facet_E
                0x00000000        0x0 out/isense/PLTT_passive_app.o
 _ZN7wiselib13FacetProviderINS_13iSenseOsModelENS_11iSenseDebugIS1_EEE6facet_E
                0x00000000        0x0 out/isense/PLTT_passive_app.o
 _ZN7wiselib13FacetProviderINS_13iSenseOsModelENS_15iSenseRandModelIS1_EEE6facet_E
                0x00000000        0x0 out/isense/PLTT_passive_app.o
 _ZN7wiselib13FacetProviderINS_13iSenseOsModelENS_16iSenseClockModelIS1_N6isense4TimeEEEE6facet_E
                0x00000000        0x0 out/isense/PLTT_passive_app.o
 .text          0x00000000        0x0 out/isense/PLTT_passive_app.o
 .data          0x00000000        0x0 out/isense/PLTT_passive_app.o
 .bss           0x00000000        0x0 out/isense/PLTT_passive_app.o
 .dtors         0x00000000        0x0 out/isense/PLTT_passive_app.o
 .text._GLOBAL__D__ZN7wiselib51_GLOBAL__N_._PLTT_passive_app.cpp_00000000_47BADBE622isense_timer_callbacksE
                0x00000000        0x0 out/isense/PLTT_passive_app.o
 .text._ZN6isense4TaskD0Ev
                0x00000000        0x0 out/isense/PLTT_passive_app.o
 .text._ZN6isense4TaskD1Ev
                0x00000000        0x0 out/isense/PLTT_passive_app.o
 .rodata._ZTVN6isense4TaskE
                0x00000000        0x0 out/isense/PLTT_passive_app.o
 .text          0x00000000        0x0 /home/konstantinos/Desktop/isense_sdk/iSense/lib/jennic/ba-elf-float-double-moddiv.a(dp-bit.o)
 .data          0x00000000        0x0 /home/konstantinos/Desktop/isense_sdk/iSense/lib/jennic/ba-elf-float-double-moddiv.a(dp-bit.o)
 .bss           0x00000000        0x0 /home/konstantinos/Desktop/isense_sdk/iSense/lib/jennic/ba-elf-float-double-moddiv.a(dp-bit.o)
 .rodata        0x00000000        0x0 /home/konstantinos/Desktop/isense_sdk/iSense/lib/jennic/ba-elf-float-double-moddiv.a(dp-bit.o)
 .text          0x00000000        0x0 /home/konstantinos/Desktop/isense_sdk/iSense/lib/jennic/ba-elf-float-double-moddiv.a(_ashldi3.o)
 .data          0x00000000        0x0 /home/konstantinos/Desktop/isense_sdk/iSense/lib/jennic/ba-elf-float-double-moddiv.a(_ashldi3.o)
 .bss           0x00000000        0x0 /home/konstantinos/Desktop/isense_sdk/iSense/lib/jennic/ba-elf-float-double-moddiv.a(_ashldi3.o)
 .data          0x00000000        0x0 /home/konstantinos/Desktop/isense_sdk/iSense/lib/jennic/ba-elf-float-double-moddiv.a(__divsi3.o)
 .bss           0x00000000        0x0 /home/konstantinos/Desktop/isense_sdk/iSense/lib/jennic/ba-elf-float-double-moddiv.a(__divsi3.o)
 .text          0x00000000        0x0 /home/konstantinos/Desktop/isense_sdk/iSense/lib/jennic/ba-elf-float-double-moddiv.a(_lshrdi3.o)
 .data          0x00000000        0x0 /home/konstantinos/Desktop/isense_sdk/iSense/lib/jennic/ba-elf-float-double-moddiv.a(_lshrdi3.o)
 .bss           0x00000000        0x0 /home/konstantinos/Desktop/isense_sdk/iSense/lib/jennic/ba-elf-float-double-moddiv.a(_lshrdi3.o)
 .text          0x00000000        0x0 /home/konstantinos/Desktop/isense_sdk/iSense/lib/jennic/ba-elf-float-double-moddiv.a(_muldi3.o)
 .data          0x00000000        0x0 /home/konstantinos/Desktop/isense_sdk/iSense/lib/jennic/ba-elf-float-double-moddiv.a(_muldi3.o)
 .bss           0x00000000        0x0 /home/konstantinos/Desktop/isense_sdk/iSense/lib/jennic/ba-elf-float-double-moddiv.a(_muldi3.o)
 .text          0x00000000        0x0 /home/konstantinos/Desktop/isense_sdk/iSense/lib/jennic/ba-elf-float-double-moddiv.a(fp-bit.o)
 .data          0x00000000        0x0 /home/konstantinos/Desktop/isense_sdk/iSense/lib/jennic/ba-elf-float-double-moddiv.a(fp-bit.o)
 .bss           0x00000000        0x0 /home/konstantinos/Desktop/isense_sdk/iSense/lib/jennic/ba-elf-float-double-moddiv.a(fp-bit.o)
 .rodata        0x00000000        0x0 /home/konstantinos/Desktop/isense_sdk/iSense/lib/jennic/ba-elf-float-double-moddiv.a(fp-bit.o)
 _ZN6isense11DeferedTask7timeoutEPv
                0x00000000        0x0 /home/konstantinos/Desktop/isense_sdk/iSense/lib/jennic/iSenseLibraryJN5139R1.a(os.o)
 _ZN6isense4TaskD0Ev
                0x00000000        0x0 /home/konstantinos/Desktop/isense_sdk/iSense/lib/jennic/iSenseLibraryJN5139R1.a(os.o)
 _ZN6isense4TaskD1Ev
                0x00000000        0x0 /home/konstantinos/Desktop/isense_sdk/iSense/lib/jennic/iSenseLibraryJN5139R1.a(os.o)
 _ZN6isense14TimeoutHandlerD0Ev
                0x00000000        0x0 /home/konstantinos/Desktop/isense_sdk/iSense/lib/jennic/iSenseLibraryJN5139R1.a(os.o)
 _ZN6isense14TimeoutHandlerD1Ev
                0x00000000        0x0 /home/konstantinos/Desktop/isense_sdk/iSense/lib/jennic/iSenseLibraryJN5139R1.a(os.o)
 _ZN6isense11DeferedTaskD1Ev
                0x00000000        0x0 /home/konstantinos/Desktop/isense_sdk/iSense/lib/jennic/iSenseLibraryJN5139R1.a(os.o)
 _ZN6isense6SenderD0Ev
                0x00000000        0x0 /home/konstantinos/Desktop/isense_sdk/iSense/lib/jennic/iSenseLibraryJN5139R1.a(os.o)
 _ZN6isense6SenderD1Ev
                0x00000000        0x0 /home/konstantinos/Desktop/isense_sdk/iSense/lib/jennic/iSenseLibraryJN5139R1.a(os.o)
 _ZN6isense8ReceiverD0Ev
                0x00000000        0x0 /home/konstantinos/Desktop/isense_sdk/iSense/lib/jennic/iSenseLibraryJN5139R1.a(os.o)
 _ZN6isense8ReceiverD1Ev
                0x00000000        0x0 /home/konstantinos/Desktop/isense_sdk/iSense/lib/jennic/iSenseLibraryJN5139R1.a(os.o)
 _ZN6isense5QueueC1Et
                0x00000000        0x0 /home/konstantinos/Desktop/isense_sdk/iSense/lib/jennic/iSenseLibraryJN5139R1.a(os.o)
 _ZN6isense10DispatcherC1ERNS_2OsEh
                0x00000000        0x0 /home/konstantinos/Desktop/isense_sdk/iSense/lib/jennic/iSenseLibraryJN5139R1.a(os.o)
 _ZN6isense11DeferedTaskD0Ev
                0x00000000        0x0 /home/konstantinos/Desktop/isense_sdk/iSense/lib/jennic/iSenseLibraryJN5139R1.a(os.o)
 _ZTVN6isense2OsE
                0x00000000        0x0 /home/konstantinos/Desktop/isense_sdk/iSense/lib/jennic/iSenseLibraryJN5139R1.a(os.o)
 _ZTVN6isense8ReceiverE
                0x00000000        0x0 /home/konstantinos/Desktop/isense_sdk/iSense/lib/jennic/iSenseLibraryJN5139R1.a(os.o)
 _ZTVN6isense4TaskE
                0x00000000        0x0 /home/konstantinos/Desktop/isense_sdk/iSense/lib/jennic/iSenseLibraryJN5139R1.a(os.o)
 _ZTVN6isense11DeferedTaskE
                0x00000000        0x0 /home/konstantinos/Desktop/isense_sdk/iSense/lib/jennic/iSenseLibraryJN5139R1.a(os.o)
 _ZTVN6isense14TimeoutHandlerE
                0x00000000        0x0 /home/konstantinos/Desktop/isense_sdk/iSense/lib/jennic/iSenseLibraryJN5139R1.a(os.o)
 _ZTVN6isense6SenderE
                0x00000000        0x0 /home/konstantinos/Desktop/isense_sdk/iSense/lib/jennic/iSenseLibraryJN5139R1.a(os.o)
 .text          0x00000000        0x0 /home/konstantinos/Desktop/isense_sdk/iSense/lib/jennic/iSenseLibraryJN5139R1.a(os.o)
 .data          0x00000000        0x0 /home/konstantinos/Desktop/isense_sdk/iSense/lib/jennic/iSenseLibraryJN5139R1.a(os.o)
 .bss           0x00000000        0x0 /home/konstantinos/Desktop/isense_sdk/iSense/lib/jennic/iSenseLibraryJN5139R1.a(os.o)
 .text._ZN6isense2Os29maximum_flooding_backoff_timeEv
                0x00000000        0x0 /home/konstantinos/Desktop/isense_sdk/iSense/lib/jennic/iSenseLibraryJN5139R1.a(os.o)
 .text._ZN6isense2Os33set_maximum_flooding_backoff_timeEt
                0x00000000        0x0 /home/konstantinos/Desktop/isense_sdk/iSense/lib/jennic/iSenseLibraryJN5139R1.a(os.o)
 .text._ZN6isense2Os17sleepHandlerCountEv
                0x00000000        0x0 /home/konstantinos/Desktop/isense_sdk/iSense/lib/jennic/iSenseLibraryJN5139R1.a(os.o)
 .text._ZN6isense2Os4randEm
                0x00000000        0x0 /home/konstantinos/Desktop/isense_sdk/iSense/lib/jennic/iSenseLibraryJN5139R1.a(os.o)
 .text._ZN6isense2Os5srandEm
                0x00000000        0x0 /home/konstantinos/Desktop/isense_sdk/iSense/lib/jennic/iSenseLibraryJN5139R1.a(os.o)
 .text._ZN6isense2Os12task_q_checkEv
                0x00000000        0x0 /home/konstantinos/Desktop/isense_sdk/iSense/lib/jennic/iSenseLibraryJN5139R1.a(os.o)
 .text._ZN6isense4TaskD0Ev
                0x00000000        0x0 /home/konstantinos/Desktop/isense_sdk/iSense/lib/jennic/iSenseLibraryJN5139R1.a(os.o)
 .text._ZN6isense4TaskD1Ev
                0x00000000        0x0 /home/konstantinos/Desktop/isense_sdk/iSense/lib/jennic/iSenseLibraryJN5139R1.a(os.o)
 .text._ZN6isense8ReceiverD0Ev
                0x00000000        0x0 /home/konstantinos/Desktop/isense_sdk/iSense/lib/jennic/iSenseLibraryJN5139R1.a(os.o)
 .text._ZN6isense8ReceiverD1Ev
                0x00000000        0x0 /home/konstantinos/Desktop/isense_sdk/iSense/lib/jennic/iSenseLibraryJN5139R1.a(os.o)
 .text._ZN6isense2Os14remove_timeoutEhPNS_14TimeoutHandlerE
                0x00000000        0x0 /home/konstantinos/Desktop/isense_sdk/iSense/lib/jennic/iSenseLibraryJN5139R1.a(os.o)
 .text._ZN6isense2Os14add_timeout_inENS_4TimeEPNS_14TimeoutHandlerEPv
                0x00000000        0x0 /home/konstantinos/Desktop/isense_sdk/iSense/lib/jennic/iSenseLibraryJN5139R1.a(os.o)
 .text._ZN6isense2Os5statsEv
                0x00000000        0x0 /home/konstantinos/Desktop/isense_sdk/iSense/lib/jennic/iSenseLibraryJN5139R1.a(os.o)
 .text._ZN6isense2Os8set_timeENS_4TimeE
                0x00000000        0x0 /home/konstantinos/Desktop/isense_sdk/iSense/lib/jennic/iSenseLibraryJN5139R1.a(os.o)
 .rodata._ZTVN6isense8ReceiverE
                0x00000000        0x0 /home/konstantinos/Desktop/isense_sdk/iSense/lib/jennic/iSenseLibraryJN5139R1.a(os.o)
 .rodata._ZTVN6isense4TaskE
                0x00000000        0x0 /home/konstantinos/Desktop/isense_sdk/iSense/lib/jennic/iSenseLibraryJN5139R1.a(os.o)
 .text          0x00000000        0x0 /home/konstantinos/Desktop/isense_sdk/iSense/lib/jennic/iSenseLibraryJN5139R1.a(time.o)
 .data          0x00000000        0x0 /home/konstantinos/Desktop/isense_sdk/iSense/lib/jennic/iSenseLibraryJN5139R1.a(time.o)
 .bss           0x00000000        0x0 /home/konstantinos/Desktop/isense_sdk/iSense/lib/jennic/iSenseLibraryJN5139R1.a(time.o)
 .text._ZNVK6isense4Time9to_millisERm
                0x00000000        0x0 /home/konstantinos/Desktop/isense_sdk/iSense/lib/jennic/iSenseLibraryJN5139R1.a(time.o)
 _ZN6isense11ApplicationD0Ev
                0x00000000        0x0 /home/konstantinos/Desktop/isense_sdk/iSense/lib/jennic/iSenseLibraryJN5139R1.a(application.o)
 _ZN6isense11ApplicationD1Ev
                0x00000000        0x0 /home/konstantinos/Desktop/isense_sdk/iSense/lib/jennic/iSenseLibraryJN5139R1.a(application.o)
 _ZTVN6isense11ApplicationE
                0x00000000        0x0 /home/konstantinos/Desktop/isense_sdk/iSense/lib/jennic/iSenseLibraryJN5139R1.a(application.o)
 .text          0x00000000        0x0 /home/konstantinos/Desktop/isense_sdk/iSense/lib/jennic/iSenseLibraryJN5139R1.a(application.o)
 .data          0x00000000        0x0 /home/konstantinos/Desktop/isense_sdk/iSense/lib/jennic/iSenseLibraryJN5139R1.a(application.o)
 .bss           0x00000000        0x0 /home/konstantinos/Desktop/isense_sdk/iSense/lib/jennic/iSenseLibraryJN5139R1.a(application.o)
 .text._ZN6isense11Application2osEv
                0x00000000        0x0 /home/konstantinos/Desktop/isense_sdk/iSense/lib/jennic/iSenseLibraryJN5139R1.a(application.o)
 _ZN6isense8ReceiverD0Ev
                0x00000000        0x0 /home/konstantinos/Desktop/isense_sdk/iSense/lib/jennic/iSenseLibraryJN5139R1.a(dispatcher.o)
 _ZN6isense8ReceiverD1Ev
                0x00000000        0x0 /home/konstantinos/Desktop/isense_sdk/iSense/lib/jennic/iSenseLibraryJN5139R1.a(dispatcher.o)
 _ZN6isense4TaskD0Ev
                0x00000000        0x0 /home/konstantinos/Desktop/isense_sdk/iSense/lib/jennic/iSenseLibraryJN5139R1.a(dispatcher.o)
 _ZN6isense4TaskD1Ev
                0x00000000        0x0 /home/konstantinos/Desktop/isense_sdk/iSense/lib/jennic/iSenseLibraryJN5139R1.a(dispatcher.o)
 _ZTVN6isense10DispatcherE
                0x00000000        0x0 /home/konstantinos/Desktop/isense_sdk/iSense/lib/jennic/iSenseLibraryJN5139R1.a(dispatcher.o)
 _ZTVN6isense4TaskE
                0x00000000        0x0 /home/konstantinos/Desktop/isense_sdk/iSense/lib/jennic/iSenseLibraryJN5139R1.a(dispatcher.o)
 _ZTVN6isense8ReceiverE
                0x00000000        0x0 /home/konstantinos/Desktop/isense_sdk/iSense/lib/jennic/iSenseLibraryJN5139R1.a(dispatcher.o)
 .text          0x00000000        0x0 /home/konstantinos/Desktop/isense_sdk/iSense/lib/jennic/iSenseLibraryJN5139R1.a(dispatcher.o)
 .data          0x00000000        0x0 /home/konstantinos/Desktop/isense_sdk/iSense/lib/jennic/iSenseLibraryJN5139R1.a(dispatcher.o)
 .bss           0x00000000        0x0 /home/konstantinos/Desktop/isense_sdk/iSense/lib/jennic/iSenseLibraryJN5139R1.a(dispatcher.o)
 .text._ZN6isense10Dispatcher15remove_receiverEPNS_8ReceiverE
                0x00000000        0x0 /home/konstantinos/Desktop/isense_sdk/iSense/lib/jennic/iSenseLibraryJN5139R1.a(dispatcher.o)
 .text._ZN6isense10Dispatcher17set_fast_receiverEPNS_8ReceiverE
                0x00000000        0x0 /home/konstantinos/Desktop/isense_sdk/iSense/lib/jennic/iSenseLibraryJN5139R1.a(dispatcher.o)
 .text._ZN6isense10Dispatcher24set_promiscuous_receiverEPNS_8ReceiverE
                0x00000000        0x0 /home/konstantinos/Desktop/isense_sdk/iSense/lib/jennic/iSenseLibraryJN5139R1.a(dispatcher.o)
 .text._ZN6isense10Dispatcher12queue_lengthEv
                0x00000000        0x0 /home/konstantinos/Desktop/isense_sdk/iSense/lib/jennic/iSenseLibraryJN5139R1.a(dispatcher.o)
 .text._ZN6isense8ReceiverD0Ev
                0x00000000        0x0 /home/konstantinos/Desktop/isense_sdk/iSense/lib/jennic/iSenseLibraryJN5139R1.a(dispatcher.o)
 .text._ZN6isense8ReceiverD1Ev
                0x00000000        0x0 /home/konstantinos/Desktop/isense_sdk/iSense/lib/jennic/iSenseLibraryJN5139R1.a(dispatcher.o)
 .text._ZN6isense4TaskD0Ev
                0x00000000        0x0 /home/konstantinos/Desktop/isense_sdk/iSense/lib/jennic/iSenseLibraryJN5139R1.a(dispatcher.o)
 .text._ZN6isense4TaskD1Ev
                0x00000000        0x0 /home/konstantinos/Desktop/isense_sdk/iSense/lib/jennic/iSenseLibraryJN5139R1.a(dispatcher.o)
 .text._ZN6isense10DispatcherD2Ev
                0x00000000        0x0 /home/konstantinos/Desktop/isense_sdk/iSense/lib/jennic/iSenseLibraryJN5139R1.a(dispatcher.o)
 .rodata._ZTVN6isense4TaskE
                0x00000000        0x0 /home/konstantinos/Desktop/isense_sdk/iSense/lib/jennic/iSenseLibraryJN5139R1.a(dispatcher.o)
 .rodata._ZTVN6isense8ReceiverE
                0x00000000        0x0 /home/konstantinos/Desktop/isense_sdk/iSense/lib/jennic/iSenseLibraryJN5139R1.a(dispatcher.o)
 .text          0x00000000        0x0 /home/konstantinos/Desktop/isense_sdk/iSense/lib/jennic/iSenseLibraryJN5139R1.a(queue.o)
 .data          0x00000000        0x0 /home/konstantinos/Desktop/isense_sdk/iSense/lib/jennic/iSenseLibraryJN5139R1.a(queue.o)
 .bss           0x00000000        0x0 /home/konstantinos/Desktop/isense_sdk/iSense/lib/jennic/iSenseLibraryJN5139R1.a(queue.o)
 .text._ZN6isense13QueueIteratorC2ERNS_5QueueEhb
                0x00000000        0x0 /home/konstantinos/Desktop/isense_sdk/iSense/lib/jennic/iSenseLibraryJN5139R1.a(queue.o)
 .text._ZN6isense13QueueIteratorC1ERNS_5QueueEhb
                0x00000000        0x0 /home/konstantinos/Desktop/isense_sdk/iSense/lib/jennic/iSenseLibraryJN5139R1.a(queue.o)
 .text._ZN6isense13QueueIteratorppEv
                0x00000000        0x0 /home/konstantinos/Desktop/isense_sdk/iSense/lib/jennic/iSenseLibraryJN5139R1.a(queue.o)
 .text._ZN6isense13QueueIteratordeEv
                0x00000000        0x0 /home/konstantinos/Desktop/isense_sdk/iSense/lib/jennic/iSenseLibraryJN5139R1.a(queue.o)
 .text._ZN6isense13QueueIteratoreqERKS0_
                0x00000000        0x0 /home/konstantinos/Desktop/isense_sdk/iSense/lib/jennic/iSenseLibraryJN5139R1.a(queue.o)
 .text._ZN6isense5Queue6lengthEv
                0x00000000        0x0 /home/konstantinos/Desktop/isense_sdk/iSense/lib/jennic/iSenseLibraryJN5139R1.a(queue.o)
 .text._ZN6isense13QueueIterator6removeEv
                0x00000000        0x0 /home/konstantinos/Desktop/isense_sdk/iSense/lib/jennic/iSenseLibraryJN5139R1.a(queue.o)
 .text._ZN6isense5Queue3endEv
                0x00000000        0x0 /home/konstantinos/Desktop/isense_sdk/iSense/lib/jennic/iSenseLibraryJN5139R1.a(queue.o)
 .text._ZN6isense5Queue5beginEv
                0x00000000        0x0 /home/konstantinos/Desktop/isense_sdk/iSense/lib/jennic/iSenseLibraryJN5139R1.a(queue.o)
 .text._ZN6isense13QueueIteratorneERKS0_
                0x00000000        0x0 /home/konstantinos/Desktop/isense_sdk/iSense/lib/jennic/iSenseLibraryJN5139R1.a(queue.o)
 .text._ZN6isense13QueueIteratorppEi
                0x00000000        0x0 /home/konstantinos/Desktop/isense_sdk/iSense/lib/jennic/iSenseLibraryJN5139R1.a(queue.o)
 .text          0x00000000        0x0 /home/konstantinos/Desktop/isense_sdk/iSense/lib/jennic/iSenseLibraryJN5139R1.a(isense_object.o)
 .data          0x00000000        0x0 /home/konstantinos/Desktop/isense_sdk/iSense/lib/jennic/iSenseLibraryJN5139R1.a(isense_object.o)
 .bss           0x00000000        0x0 /home/konstantinos/Desktop/isense_sdk/iSense/lib/jennic/iSenseLibraryJN5139R1.a(isense_object.o)
 .text          0x00000000        0x0 /home/konstantinos/Desktop/isense_sdk/iSense/lib/jennic/iSenseLibraryJN5139R1.a(isense_memory.o)
 .data          0x00000000        0x0 /home/konstantinos/Desktop/isense_sdk/iSense/lib/jennic/iSenseLibraryJN5139R1.a(isense_memory.o)
 .bss           0x00000000        0x0 /home/konstantinos/Desktop/isense_sdk/iSense/lib/jennic/iSenseLibraryJN5139R1.a(isense_memory.o)
 .text._Z6callocmm
                0x00000000        0x0 /home/konstantinos/Desktop/isense_sdk/iSense/lib/jennic/iSenseLibraryJN5139R1.a(isense_memory.o)
 .text._ZN6isense7reallocEPvm
                0x00000000        0x0 /home/konstantinos/Desktop/isense_sdk/iSense/lib/jennic/iSenseLibraryJN5139R1.a(isense_memory.o)
 .text          0x00000000        0x0 /home/konstantinos/Desktop/isense_sdk/iSense/lib/jennic/iSenseLibraryJN5139R1.a(default_disable_restore_interrupts.o)
 .data          0x00000000        0x0 /home/konstantinos/Desktop/isense_sdk/iSense/lib/jennic/iSenseLibraryJN5139R1.a(default_disable_restore_interrupts.o)
 .bss           0x00000000        0x0 /home/konstantinos/Desktop/isense_sdk/iSense/lib/jennic/iSenseLibraryJN5139R1.a(default_disable_restore_interrupts.o)
 .text          0x00000000        0x0 /home/konstantinos/Desktop/isense_sdk/iSense/lib/jennic/iSenseLibraryJN5139R1.a(pseudo_random_number_generator.o)
 .data          0x00000000        0x0 /home/konstantinos/Desktop/isense_sdk/iSense/lib/jennic/iSenseLibraryJN5139R1.a(pseudo_random_number_generator.o)
 .bss           0x00000000        0x0 /home/konstantinos/Desktop/isense_sdk/iSense/lib/jennic/iSenseLibraryJN5139R1.a(pseudo_random_number_generator.o)
 .text          0x00000000        0x0 /home/konstantinos/Desktop/isense_sdk/iSense/lib/jennic/iSenseLibraryJN5139R1.a(simple_memory.o)
 .data          0x00000000        0x0 /home/konstantinos/Desktop/isense_sdk/iSense/lib/jennic/iSenseLibraryJN5139R1.a(simple_memory.o)
 .bss           0x00000000        0x0 /home/konstantinos/Desktop/isense_sdk/iSense/lib/jennic/iSenseLibraryJN5139R1.a(simple_memory.o)
 .text._ZN12SimpleMemoryC2Ev
                0x00000000        0x0 /home/konstantinos/Desktop/isense_sdk/iSense/lib/jennic/iSenseLibraryJN5139R1.a(simple_memory.o)
 .text          0x00000000        0x0 /home/konstantinos/Desktop/isense_sdk/iSense/lib/jennic/iSenseLibraryJN5139R1.a(cxa_pure_virtual.o)
 .data          0x00000000        0x0 /home/konstantinos/Desktop/isense_sdk/iSense/lib/jennic/iSenseLibraryJN5139R1.a(cxa_pure_virtual.o)
 .bss           0x00000000        0x0 /home/konstantinos/Desktop/isense_sdk/iSense/lib/jennic/iSenseLibraryJN5139R1.a(cxa_pure_virtual.o)
 .text.__cxa_guard_acquire
                0x00000000        0x0 /home/konstantinos/Desktop/isense_sdk/iSense/lib/jennic/iSenseLibraryJN5139R1.a(cxa_pure_virtual.o)
 .text.__cxa_guard_release
                0x00000000        0x0 /home/konstantinos/Desktop/isense_sdk/iSense/lib/jennic/iSenseLibraryJN5139R1.a(cxa_pure_virtual.o)
 .text.__cxa_guard_abort
                0x00000000        0x0 /home/konstantinos/Desktop/isense_sdk/iSense/lib/jennic/iSenseLibraryJN5139R1.a(cxa_pure_virtual.o)
 .text          0x00000000        0x0 /home/konstantinos/Desktop/isense_sdk/iSense/lib/jennic/iSenseLibraryJN5139R1.a(memmove.o)
 .data          0x00000000        0x0 /home/konstantinos/Desktop/isense_sdk/iSense/lib/jennic/iSenseLibraryJN5139R1.a(memmove.o)
 .bss           0x00000000        0x0 /home/konstantinos/Desktop/isense_sdk/iSense/lib/jennic/iSenseLibraryJN5139R1.a(memmove.o)
 .text.memmove  0x00000000        0x0 /home/konstantinos/Desktop/isense_sdk/iSense/lib/jennic/iSenseLibraryJN5139R1.a(memmove.o)
 .text          0x00000000        0x0 /home/konstantinos/Desktop/isense_sdk/iSense/lib/jennic/iSenseLibraryJN5139R1.a(vsnprintf.o)
 .data          0x00000000        0x0 /home/konstantinos/Desktop/isense_sdk/iSense/lib/jennic/iSenseLibraryJN5139R1.a(vsnprintf.o)
 .bss           0x00000000        0x0 /home/konstantinos/Desktop/isense_sdk/iSense/lib/jennic/iSenseLibraryJN5139R1.a(vsnprintf.o)
 _ZN6isense5Clock22compensate_temperatureEa
                0x00000000        0x0 /home/konstantinos/Desktop/isense_sdk/iSense/lib/jennic/iSenseLibraryJN5139R1.a(jennic_boot.o)
 _ZN6isense5Clock12adjust_driftEa
                0x00000000        0x0 /home/konstantinos/Desktop/isense_sdk/iSense/lib/jennic/iSenseLibraryJN5139R1.a(jennic_boot.o)
 _ZN6isense5Clock21calibrate_sleep_timerEht
                0x00000000        0x0 /home/konstantinos/Desktop/isense_sdk/iSense/lib/jennic/iSenseLibraryJN5139R1.a(jennic_boot.o)
 _ZN6isense5ClockC2ERNS_2OsE
                0x00000000        0x0 /home/konstantinos/Desktop/isense_sdk/iSense/lib/jennic/iSenseLibraryJN5139R1.a(jennic_boot.o)
 _ZN6isense15CoreModuleClockC1ERNS_2OsE
                0x00000000        0x0 /home/konstantinos/Desktop/isense_sdk/iSense/lib/jennic/iSenseLibraryJN5139R1.a(jennic_boot.o)
 _ZN6isense2OsC2Ev
                0x00000000        0x0 /home/konstantinos/Desktop/isense_sdk/iSense/lib/jennic/iSenseLibraryJN5139R1.a(jennic_boot.o)
 _ZN6isense8JennicOsC1Ev
                0x00000000        0x0 /home/konstantinos/Desktop/isense_sdk/iSense/lib/jennic/iSenseLibraryJN5139R1.a(jennic_boot.o)
 _ZN6isense14TimeoutHandlerD0Ev
                0x00000000        0x0 /home/konstantinos/Desktop/isense_sdk/iSense/lib/jennic/iSenseLibraryJN5139R1.a(jennic_boot.o)
 _ZN6isense14TimeoutHandlerD1Ev
                0x00000000        0x0 /home/konstantinos/Desktop/isense_sdk/iSense/lib/jennic/iSenseLibraryJN5139R1.a(jennic_boot.o)
 _ZN6isense16Uint8DataHandlerD0Ev
                0x00000000        0x0 /home/konstantinos/Desktop/isense_sdk/iSense/lib/jennic/iSenseLibraryJN5139R1.a(jennic_boot.o)
 _ZN6isense16Uint8DataHandlerD1Ev
                0x00000000        0x0 /home/konstantinos/Desktop/isense_sdk/iSense/lib/jennic/iSenseLibraryJN5139R1.a(jennic_boot.o)
 _ZN6isense6SenderD0Ev
                0x00000000        0x0 /home/konstantinos/Desktop/isense_sdk/iSense/lib/jennic/iSenseLibraryJN5139R1.a(jennic_boot.o)
 _ZN6isense6SenderD1Ev
                0x00000000        0x0 /home/konstantinos/Desktop/isense_sdk/iSense/lib/jennic/iSenseLibraryJN5139R1.a(jennic_boot.o)
 _ZN6isense5ClockD1Ev
                0x00000000        0x0 /home/konstantinos/Desktop/isense_sdk/iSense/lib/jennic/iSenseLibraryJN5139R1.a(jennic_boot.o)
 _ZN6isense5ClockD0Ev
                0x00000000        0x0 /home/konstantinos/Desktop/isense_sdk/iSense/lib/jennic/iSenseLibraryJN5139R1.a(jennic_boot.o)
 _ZTVN6isense6SenderE
                0x00000000        0x0 /home/konstantinos/Desktop/isense_sdk/iSense/lib/jennic/iSenseLibraryJN5139R1.a(jennic_boot.o)
 _ZTVN6isense5ClockE
                0x00000000        0x0 /home/konstantinos/Desktop/isense_sdk/iSense/lib/jennic/iSenseLibraryJN5139R1.a(jennic_boot.o)
 _ZTVN6isense14TimeoutHandlerE
                0x00000000        0x0 /home/konstantinos/Desktop/isense_sdk/iSense/lib/jennic/iSenseLibraryJN5139R1.a(jennic_boot.o)
 _ZTVN6isense16Uint8DataHandlerE
                0x00000000        0x0 /home/konstantinos/Desktop/isense_sdk/iSense/lib/jennic/iSenseLibraryJN5139R1.a(jennic_boot.o)
 .text          0x00000000        0x0 /home/konstantinos/Desktop/isense_sdk/iSense/lib/jennic/iSenseLibraryJN5139R1.a(jennic_boot.o)
 .data          0x00000000        0x0 /home/konstantinos/Desktop/isense_sdk/iSense/lib/jennic/iSenseLibraryJN5139R1.a(jennic_boot.o)
 .bss           0x00000000        0x0 /home/konstantinos/Desktop/isense_sdk/iSense/lib/jennic/iSenseLibraryJN5139R1.a(jennic_boot.o)
 .text._ZN6isense14TimeoutHandlerD0Ev
                0x00000000        0x0 /home/konstantinos/Desktop/isense_sdk/iSense/lib/jennic/iSenseLibraryJN5139R1.a(jennic_boot.o)
 .text._ZN6isense14TimeoutHandlerD1Ev
                0x00000000        0x0 /home/konstantinos/Desktop/isense_sdk/iSense/lib/jennic/iSenseLibraryJN5139R1.a(jennic_boot.o)
 .text._ZN6isense6SenderD0Ev
                0x00000000        0x0 /home/konstantinos/Desktop/isense_sdk/iSense/lib/jennic/iSenseLibraryJN5139R1.a(jennic_boot.o)
 .text._ZN6isense6SenderD1Ev
                0x00000000        0x0 /home/konstantinos/Desktop/isense_sdk/iSense/lib/jennic/iSenseLibraryJN5139R1.a(jennic_boot.o)
 .bss.au8Shadow
                0x00000000        0x0 /home/konstantinos/Desktop/isense_sdk/iSense/lib/jennic/iSenseLibraryJN5139R1.a(jennic_boot.o)
 .rodata._ZTVN6isense6SenderE
                0x00000000        0x0 /home/konstantinos/Desktop/isense_sdk/iSense/lib/jennic/iSenseLibraryJN5139R1.a(jennic_boot.o)
 .rodata._ZTVN6isense14TimeoutHandlerE
                0x00000000        0x0 /home/konstantinos/Desktop/isense_sdk/iSense/lib/jennic/iSenseLibraryJN5139R1.a(jennic_boot.o)
 _ZN6isense15PowerManagementD0Ev
                0x00000000        0x0 /home/konstantinos/Desktop/isense_sdk/iSense/lib/jennic/iSenseLibraryJN5139R1.a(jennic_power_management.o)
 _ZN6isense15PowerManagementD1Ev
                0x00000000        0x0 /home/konstantinos/Desktop/isense_sdk/iSense/lib/jennic/iSenseLibraryJN5139R1.a(jennic_power_management.o)
 _ZN6isense21JennicPowerManagementD1Ev
                0x00000000        0x0 /home/konstantinos/Desktop/isense_sdk/iSense/lib/jennic/iSenseLibraryJN5139R1.a(jennic_power_management.o)
 _ZN6isense21JennicPowerManagementD0Ev
                0x00000000        0x0 /home/konstantinos/Desktop/isense_sdk/iSense/lib/jennic/iSenseLibraryJN5139R1.a(jennic_power_management.o)
 _ZTVN6isense21JennicPowerManagementE
                0x00000000        0x0 /home/konstantinos/Desktop/isense_sdk/iSense/lib/jennic/iSenseLibraryJN5139R1.a(jennic_power_management.o)
 _ZTVN6isense15PowerManagementE
                0x00000000        0x0 /home/konstantinos/Desktop/isense_sdk/iSense/lib/jennic/iSenseLibraryJN5139R1.a(jennic_power_management.o)
 .text          0x00000000        0x0 /home/konstantinos/Desktop/isense_sdk/iSense/lib/jennic/iSenseLibraryJN5139R1.a(jennic_power_management.o)
 .data          0x00000000        0x0 /home/konstantinos/Desktop/isense_sdk/iSense/lib/jennic/iSenseLibraryJN5139R1.a(jennic_power_management.o)
 .bss           0x00000000        0x0 /home/konstantinos/Desktop/isense_sdk/iSense/lib/jennic/iSenseLibraryJN5139R1.a(jennic_power_management.o)
 .text._ZN6isense21JennicPowerManagementC2Ev
                0x00000000        0x0 /home/konstantinos/Desktop/isense_sdk/iSense/lib/jennic/iSenseLibraryJN5139R1.a(jennic_power_management.o)
 _ZN6isense4Gpio4readEh
                0x00000000        0x0 /home/konstantinos/Desktop/isense_sdk/iSense/lib/jennic/iSenseLibraryJN5139R1.a(jennic_gpio.o)
 _ZN6isense4Gpio3getEh
                0x00000000        0x0 /home/konstantinos/Desktop/isense_sdk/iSense/lib/jennic/iSenseLibraryJN5139R1.a(jennic_gpio.o)
 _ZN6isense4GpioD0Ev
                0x00000000        0x0 /home/konstantinos/Desktop/isense_sdk/iSense/lib/jennic/iSenseLibraryJN5139R1.a(jennic_gpio.o)
 _ZN6isense4GpioD1Ev
                0x00000000        0x0 /home/konstantinos/Desktop/isense_sdk/iSense/lib/jennic/iSenseLibraryJN5139R1.a(jennic_gpio.o)
 _ZN6isense10JennicGpioD1Ev
                0x00000000        0x0 /home/konstantinos/Desktop/isense_sdk/iSense/lib/jennic/iSenseLibraryJN5139R1.a(jennic_gpio.o)
 _ZN6isense10JennicGpioD0Ev
                0x00000000        0x0 /home/konstantinos/Desktop/isense_sdk/iSense/lib/jennic/iSenseLibraryJN5139R1.a(jennic_gpio.o)
 _ZTVN6isense10JennicGpioE
                0x00000000        0x0 /home/konstantinos/Desktop/isense_sdk/iSense/lib/jennic/iSenseLibraryJN5139R1.a(jennic_gpio.o)
 _ZTVN6isense4GpioE
                0x00000000        0x0 /home/konstantinos/Desktop/isense_sdk/iSense/lib/jennic/iSenseLibraryJN5139R1.a(jennic_gpio.o)
 .text          0x00000000        0x0 /home/konstantinos/Desktop/isense_sdk/iSense/lib/jennic/iSenseLibraryJN5139R1.a(jennic_gpio.o)
 .data          0x00000000        0x0 /home/konstantinos/Desktop/isense_sdk/iSense/lib/jennic/iSenseLibraryJN5139R1.a(jennic_gpio.o)
 .bss           0x00000000        0x0 /home/konstantinos/Desktop/isense_sdk/iSense/lib/jennic/iSenseLibraryJN5139R1.a(jennic_gpio.o)
 .text._ZN6isense10JennicGpio16handle_interruptEmm
                0x00000000        0x0 /home/konstantinos/Desktop/isense_sdk/iSense/lib/jennic/iSenseLibraryJN5139R1.a(jennic_gpio.o)
 .text._ZN6isense10JennicGpioC2Ev
                0x00000000        0x0 /home/konstantinos/Desktop/isense_sdk/iSense/lib/jennic/iSenseLibraryJN5139R1.a(jennic_gpio.o)
 _ZN6isense4UartC2Eh
                0x00000000        0x0 /home/konstantinos/Desktop/isense_sdk/iSense/lib/jennic/iSenseLibraryJN5139R1.a(jennic_os.o)
 _ZN6isense10JennicUartC1Eh
                0x00000000        0x0 /home/konstantinos/Desktop/isense_sdk/iSense/lib/jennic/iSenseLibraryJN5139R1.a(jennic_os.o)
 _ZN6isense3I2CD0Ev
                0x00000000        0x0 /home/konstantinos/Desktop/isense_sdk/iSense/lib/jennic/iSenseLibraryJN5139R1.a(jennic_os.o)
 _ZN6isense3I2CD1Ev
                0x00000000        0x0 /home/konstantinos/Desktop/isense_sdk/iSense/lib/jennic/iSenseLibraryJN5139R1.a(jennic_os.o)
 _ZN6isense13HardwareRadioD0Ev
                0x00000000        0x0 /home/konstantinos/Desktop/isense_sdk/iSense/lib/jennic/iSenseLibraryJN5139R1.a(jennic_os.o)
 _ZN6isense13HardwareRadioD1Ev
                0x00000000        0x0 /home/konstantinos/Desktop/isense_sdk/iSense/lib/jennic/iSenseLibraryJN5139R1.a(jennic_os.o)
 _ZN6isense12SleepHandlerD0Ev
                0x00000000        0x0 /home/konstantinos/Desktop/isense_sdk/iSense/lib/jennic/iSenseLibraryJN5139R1.a(jennic_os.o)
 _ZN6isense12SleepHandlerD1Ev
                0x00000000        0x0 /home/konstantinos/Desktop/isense_sdk/iSense/lib/jennic/iSenseLibraryJN5139R1.a(jennic_os.o)
 _ZN6isense11JennicRadioC1ERNS_2OsE
                0x00000000        0x0 /home/konstantinos/Desktop/isense_sdk/iSense/lib/jennic/iSenseLibraryJN5139R1.a(jennic_os.o)
 _ZN6isense9CsmaRadioC1ERNS_13HardwareRadioE
                0x00000000        0x0 /home/konstantinos/Desktop/isense_sdk/iSense/lib/jennic/iSenseLibraryJN5139R1.a(jennic_os.o)
 _ZTVN6isense8JennicOsE
                0x00000000        0x0 /home/konstantinos/Desktop/isense_sdk/iSense/lib/jennic/iSenseLibraryJN5139R1.a(jennic_os.o)
 _ZTVN6isense3I2CE
                0x00000000        0x0 /home/konstantinos/Desktop/isense_sdk/iSense/lib/jennic/iSenseLibraryJN5139R1.a(jennic_os.o)
 _ZTVN6isense13HardwareRadioE
                0x00000000        0x0 /home/konstantinos/Desktop/isense_sdk/iSense/lib/jennic/iSenseLibraryJN5139R1.a(jennic_os.o)
 _ZTVN6isense12SleepHandlerE
                0x00000000        0x0 /home/konstantinos/Desktop/isense_sdk/iSense/lib/jennic/iSenseLibraryJN5139R1.a(jennic_os.o)
 .text          0x00000000        0x0 /home/konstantinos/Desktop/isense_sdk/iSense/lib/jennic/iSenseLibraryJN5139R1.a(jennic_os.o)
 .data          0x00000000        0x0 /home/konstantinos/Desktop/isense_sdk/iSense/lib/jennic/iSenseLibraryJN5139R1.a(jennic_os.o)
 .bss           0x00000000        0x0 /home/konstantinos/Desktop/isense_sdk/iSense/lib/jennic/iSenseLibraryJN5139R1.a(jennic_os.o)
 .text._ZN6isense8JennicOsD2Ev
                0x00000000        0x0 /home/konstantinos/Desktop/isense_sdk/iSense/lib/jennic/iSenseLibraryJN5139R1.a(jennic_os.o)
 _ZN6isense10JennicUartD0Ev
                0x00000000        0x0 /home/konstantinos/Desktop/isense_sdk/iSense/lib/jennic/iSenseLibraryJN5139R1.a(jennic_uart.o)
 _ZN6isense10JennicUartD1Ev
                0x00000000        0x0 /home/konstantinos/Desktop/isense_sdk/iSense/lib/jennic/iSenseLibraryJN5139R1.a(jennic_uart.o)
 _ZTVN6isense10JennicUartE
                0x00000000        0x0 /home/konstantinos/Desktop/isense_sdk/iSense/lib/jennic/iSenseLibraryJN5139R1.a(jennic_uart.o)
 .text          0x00000000        0x0 /home/konstantinos/Desktop/isense_sdk/iSense/lib/jennic/iSenseLibraryJN5139R1.a(jennic_uart.o)
 .data          0x00000000        0x0 /home/konstantinos/Desktop/isense_sdk/iSense/lib/jennic/iSenseLibraryJN5139R1.a(jennic_uart.o)
 .bss           0x00000000        0x0 /home/konstantinos/Desktop/isense_sdk/iSense/lib/jennic/iSenseLibraryJN5139R1.a(jennic_uart.o)
 _ZN6isense11JennicTimerD1Ev
                0x00000000        0x0 /home/konstantinos/Desktop/isense_sdk/iSense/lib/jennic/iSenseLibraryJN5139R1.a(jennic_timer.o)
 _ZN6isense11JennicTimerD0Ev
                0x00000000        0x0 /home/konstantinos/Desktop/isense_sdk/iSense/lib/jennic/iSenseLibraryJN5139R1.a(jennic_timer.o)
 _ZTVN6isense11JennicTimerE
                0x00000000        0x0 /home/konstantinos/Desktop/isense_sdk/iSense/lib/jennic/iSenseLibraryJN5139R1.a(jennic_timer.o)
 .text          0x00000000        0x0 /home/konstantinos/Desktop/isense_sdk/iSense/lib/jennic/iSenseLibraryJN5139R1.a(jennic_timer.o)
 .data          0x00000000        0x0 /home/konstantinos/Desktop/isense_sdk/iSense/lib/jennic/iSenseLibraryJN5139R1.a(jennic_timer.o)
 .bss           0x00000000        0x0 /home/konstantinos/Desktop/isense_sdk/iSense/lib/jennic/iSenseLibraryJN5139R1.a(jennic_timer.o)
 _ZN6isense3I2CD0Ev
                0x00000000        0x0 /home/konstantinos/Desktop/isense_sdk/iSense/lib/jennic/iSenseLibraryJN5139R1.a(jennic_i2c.o)
 _ZN6isense3I2CD1Ev
                0x00000000        0x0 /home/konstantinos/Desktop/isense_sdk/iSense/lib/jennic/iSenseLibraryJN5139R1.a(jennic_i2c.o)
 _ZN6isense9JennicI2CD0Ev
                0x00000000        0x0 /home/konstantinos/Desktop/isense_sdk/iSense/lib/jennic/iSenseLibraryJN5139R1.a(jennic_i2c.o)
 _ZN6isense9JennicI2CD1Ev
                0x00000000        0x0 /home/konstantinos/Desktop/isense_sdk/iSense/lib/jennic/iSenseLibraryJN5139R1.a(jennic_i2c.o)
 _ZTVN6isense9JennicI2CE
                0x00000000        0x0 /home/konstantinos/Desktop/isense_sdk/iSense/lib/jennic/iSenseLibraryJN5139R1.a(jennic_i2c.o)
 _ZTVN6isense3I2CE
                0x00000000        0x0 /home/konstantinos/Desktop/isense_sdk/iSense/lib/jennic/iSenseLibraryJN5139R1.a(jennic_i2c.o)
 .text          0x00000000        0x0 /home/konstantinos/Desktop/isense_sdk/iSense/lib/jennic/iSenseLibraryJN5139R1.a(jennic_i2c.o)
 .data          0x00000000        0x0 /home/konstantinos/Desktop/isense_sdk/iSense/lib/jennic/iSenseLibraryJN5139R1.a(jennic_i2c.o)
 .bss           0x00000000        0x0 /home/konstantinos/Desktop/isense_sdk/iSense/lib/jennic/iSenseLibraryJN5139R1.a(jennic_i2c.o)
 .text._ZN6isense3I2CD0Ev
                0x00000000        0x0 /home/konstantinos/Desktop/isense_sdk/iSense/lib/jennic/iSenseLibraryJN5139R1.a(jennic_i2c.o)
 .text._ZN6isense3I2CD1Ev
                0x00000000        0x0 /home/konstantinos/Desktop/isense_sdk/iSense/lib/jennic/iSenseLibraryJN5139R1.a(jennic_i2c.o)
 .rodata._ZTVN6isense3I2CE
                0x00000000        0x0 /home/konstantinos/Desktop/isense_sdk/iSense/lib/jennic/iSenseLibraryJN5139R1.a(jennic_i2c.o)
 .data          0x00000000        0x0 /home/konstantinos/Desktop/isense_sdk/iSense/lib/jennic/iSenseLibraryJN5139R1.a(AHI_DioPatch.o)
 .bss           0x00000000        0x0 /home/konstantinos/Desktop/isense_sdk/iSense/lib/jennic/iSenseLibraryJN5139R1.a(AHI_DioPatch.o)
 .data          0x00000000        0x0 /home/konstantinos/Desktop/isense_sdk/iSense/lib/jennic/iSenseLibraryJN5139R1.a(AHI_FlashPatch.o)
 .data          0x00000000        0x0 /home/konstantinos/Desktop/isense_sdk/iSense/lib/jennic/iSenseLibraryJN5139R1.a(AHI_SystemPatch_513xR1.o)
 .bss           0x00000000        0x0 /home/konstantinos/Desktop/isense_sdk/iSense/lib/jennic/iSenseLibraryJN5139R1.a(AHI_SystemPatch_513xR1.o)
 .data          0x00000000        0x0 /home/konstantinos/Desktop/isense_sdk/iSense/lib/jennic/iSenseLibraryJN5139R1.a(AHI_TimerPatch.o)
 .bss           0x00000000        0x0 /home/konstantinos/Desktop/isense_sdk/iSense/lib/jennic/iSenseLibraryJN5139R1.a(AHI_TimerPatch.o)
 _ZN6isense5Radio7addressEv
                0x00000000        0x0 /home/konstantinos/Desktop/isense_sdk/iSense/lib/jennic/iSenseLibraryJN5139R1.a(csma_radio.o)
 _ZN6isense9CsmaRadioD0Ev
                0x00000000        0x0 /home/konstantinos/Desktop/isense_sdk/iSense/lib/jennic/iSenseLibraryJN5139R1.a(csma_radio.o)
 _ZN6isense9CsmaRadioD1Ev
                0x00000000        0x0 /home/konstantinos/Desktop/isense_sdk/iSense/lib/jennic/iSenseLibraryJN5139R1.a(csma_radio.o)
 _ZTVN6isense9CsmaRadioE
                0x00000000        0x0 /home/konstantinos/Desktop/isense_sdk/iSense/lib/jennic/iSenseLibraryJN5139R1.a(csma_radio.o)
 .text          0x00000000        0x0 /home/konstantinos/Desktop/isense_sdk/iSense/lib/jennic/iSenseLibraryJN5139R1.a(csma_radio.o)
 .data          0x00000000        0x0 /home/konstantinos/Desktop/isense_sdk/iSense/lib/jennic/iSenseLibraryJN5139R1.a(csma_radio.o)
 .bss           0x00000000        0x0 /home/konstantinos/Desktop/isense_sdk/iSense/lib/jennic/iSenseLibraryJN5139R1.a(csma_radio.o)
 _ZN6isense5Timer9start_pwmEttb
                0x00000000        0x0 /home/konstantinos/Desktop/isense_sdk/iSense/lib/jennic/iSenseLibraryJN5139R1.a(timer.o)
 _ZN6isense5TimerD0Ev
                0x00000000        0x0 /home/konstantinos/Desktop/isense_sdk/iSense/lib/jennic/iSenseLibraryJN5139R1.a(timer.o)
 _ZN6isense5TimerD1Ev
                0x00000000        0x0 /home/konstantinos/Desktop/isense_sdk/iSense/lib/jennic/iSenseLibraryJN5139R1.a(timer.o)
 _ZTVN6isense5TimerE
                0x00000000        0x0 /home/konstantinos/Desktop/isense_sdk/iSense/lib/jennic/iSenseLibraryJN5139R1.a(timer.o)
 .text          0x00000000        0x0 /home/konstantinos/Desktop/isense_sdk/iSense/lib/jennic/iSenseLibraryJN5139R1.a(timer.o)
 .data          0x00000000        0x0 /home/konstantinos/Desktop/isense_sdk/iSense/lib/jennic/iSenseLibraryJN5139R1.a(timer.o)
 .bss           0x00000000        0x0 /home/konstantinos/Desktop/isense_sdk/iSense/lib/jennic/iSenseLibraryJN5139R1.a(timer.o)
 .text          0x00000000        0x0 /home/konstantinos/Desktop/isense_sdk/iSense/lib/jennic/iSenseLibraryJN5139R1.a(hardware_radio.o)
 .data          0x00000000        0x0 /home/konstantinos/Desktop/isense_sdk/iSense/lib/jennic/iSenseLibraryJN5139R1.a(hardware_radio.o)
 .bss           0x00000000        0x0 /home/konstantinos/Desktop/isense_sdk/iSense/lib/jennic/iSenseLibraryJN5139R1.a(hardware_radio.o)
 .text._ZN6isense13HardwareRadio14enqueue_packetEthPKhhPNS_6SenderE
                0x00000000        0x0 /home/konstantinos/Desktop/isense_sdk/iSense/lib/jennic/iSenseLibraryJN5139R1.a(hardware_radio.o)
 _ZN6isense18LinkLayerInterface4sendEthPKhhS2_hS2_hPNS_6SenderE
                0x00000000        0x0 /home/konstantinos/Desktop/isense_sdk/iSense/lib/jennic/iSenseLibraryJN5139R1.a(radio.o)
 _ZN6isense5Radio7addressEv
                0x00000000        0x0 /home/konstantinos/Desktop/isense_sdk/iSense/lib/jennic/iSenseLibraryJN5139R1.a(radio.o)
 _ZTVN6isense5RadioE
                0x00000000        0x0 /home/konstantinos/Desktop/isense_sdk/iSense/lib/jennic/iSenseLibraryJN5139R1.a(radio.o)
 .text          0x00000000        0x0 /home/konstantinos/Desktop/isense_sdk/iSense/lib/jennic/iSenseLibraryJN5139R1.a(radio.o)
 .data          0x00000000        0x0 /home/konstantinos/Desktop/isense_sdk/iSense/lib/jennic/iSenseLibraryJN5139R1.a(radio.o)
 .bss           0x00000000        0x0 /home/konstantinos/Desktop/isense_sdk/iSense/lib/jennic/iSenseLibraryJN5139R1.a(radio.o)
 .text._ZN6isense5Radio7addressEv
                0x00000000        0x0 /home/konstantinos/Desktop/isense_sdk/iSense/lib/jennic/iSenseLibraryJN5139R1.a(radio.o)
 .text._ZN6isense5Radio12queue_lengthEv
                0x00000000        0x0 /home/konstantinos/Desktop/isense_sdk/iSense/lib/jennic/iSenseLibraryJN5139R1.a(radio.o)
 .text._ZN6isense5RadioC1ERNS_13HardwareRadioE
                0x00000000        0x0 /home/konstantinos/Desktop/isense_sdk/iSense/lib/jennic/iSenseLibraryJN5139R1.a(radio.o)
 .text          0x00000000        0x0 /home/konstantinos/Desktop/isense_sdk/iSense/lib/jennic/iSenseLibraryJN5139R1.a(power_management.o)
 .data          0x00000000        0x0 /home/konstantinos/Desktop/isense_sdk/iSense/lib/jennic/iSenseLibraryJN5139R1.a(power_management.o)
 .bss           0x00000000        0x0 /home/konstantinos/Desktop/isense_sdk/iSense/lib/jennic/iSenseLibraryJN5139R1.a(power_management.o)
 .text._ZN6isense15PowerManagement21add_interrupt_handlerEPNS_16InterruptHandlerE
                0x00000000        0x0 /home/konstantinos/Desktop/isense_sdk/iSense/lib/jennic/iSenseLibraryJN5139R1.a(power_management.o)
 _ZN6isense18LinkLayerInterface4sendEthPKhhS2_hS2_hPNS_6SenderE
                0x00000000        0x0 /home/konstantinos/Desktop/isense_sdk/iSense/lib/jennic/iSenseLibraryJN5139R1.a(link_layer_interface.o)
 _ZTVN6isense18LinkLayerInterfaceE
                0x00000000        0x0 /home/konstantinos/Desktop/isense_sdk/iSense/lib/jennic/iSenseLibraryJN5139R1.a(link_layer_interface.o)
 .text          0x00000000        0x0 /home/konstantinos/Desktop/isense_sdk/iSense/lib/jennic/iSenseLibraryJN5139R1.a(link_layer_interface.o)
 .data          0x00000000        0x0 /home/konstantinos/Desktop/isense_sdk/iSense/lib/jennic/iSenseLibraryJN5139R1.a(link_layer_interface.o)
 .bss           0x00000000        0x0 /home/konstantinos/Desktop/isense_sdk/iSense/lib/jennic/iSenseLibraryJN5139R1.a(link_layer_interface.o)
 .text._ZN6isense18LinkLayerInterface4sendEthPKhhS2_hS2_hPNS_6SenderE
                0x00000000        0x0 /home/konstantinos/Desktop/isense_sdk/iSense/lib/jennic/iSenseLibraryJN5139R1.a(link_layer_interface.o)
 .text._ZN6isense18LinkLayerInterfaceC1Ev
                0x00000000        0x0 /home/konstantinos/Desktop/isense_sdk/iSense/lib/jennic/iSenseLibraryJN5139R1.a(link_layer_interface.o)
 _ZN6isense4UartD0Ev
                0x00000000        0x0 /home/konstantinos/Desktop/isense_sdk/iSense/lib/jennic/iSenseLibraryJN5139R1.a(uart.o)
 _ZN6isense4UartD1Ev
                0x00000000        0x0 /home/konstantinos/Desktop/isense_sdk/iSense/lib/jennic/iSenseLibraryJN5139R1.a(uart.o)
 _ZTVN6isense4UartE
                0x00000000        0x0 /home/konstantinos/Desktop/isense_sdk/iSense/lib/jennic/iSenseLibraryJN5139R1.a(uart.o)
 .text          0x00000000        0x0 /home/konstantinos/Desktop/isense_sdk/iSense/lib/jennic/iSenseLibraryJN5139R1.a(uart.o)
 .data          0x00000000        0x0 /home/konstantinos/Desktop/isense_sdk/iSense/lib/jennic/iSenseLibraryJN5139R1.a(uart.o)
 .bss           0x00000000        0x0 /home/konstantinos/Desktop/isense_sdk/iSense/lib/jennic/iSenseLibraryJN5139R1.a(uart.o)
 .text._ZN6isense4Uart26enable_non_blocking_outputEv
                0x00000000        0x0 /home/konstantinos/Desktop/isense_sdk/iSense/lib/jennic/iSenseLibraryJN5139R1.a(uart.o)
 .text._ZN6isense4Uart15clear_rx_bufferEv
                0x00000000        0x0 /home/konstantinos/Desktop/isense_sdk/iSense/lib/jennic/iSenseLibraryJN5139R1.a(uart.o)
 .text._ZN6isense4Uart12write_bufferEPKcm
                0x00000000        0x0 /home/konstantinos/Desktop/isense_sdk/iSense/lib/jennic/iSenseLibraryJN5139R1.a(uart.o)
 .text._ZN6isense4Uart21set_interrupt_handlerEPNS_16InterruptHandlerE
                0x00000000        0x0 /home/konstantinos/Desktop/isense_sdk/iSense/lib/jennic/iSenseLibraryJN5139R1.a(uart.o)
 .text._ZN6isense4Uart17set_uint8_handlerEPNS_16Uint8DataHandlerE
                0x00000000        0x0 /home/konstantinos/Desktop/isense_sdk/iSense/lib/jennic/iSenseLibraryJN5139R1.a(uart.o)
 .text._ZN6isense4Uart18set_packet_handlerEhPNS_17UartPacketHandlerE
                0x00000000        0x0 /home/konstantinos/Desktop/isense_sdk/iSense/lib/jennic/iSenseLibraryJN5139R1.a(uart.o)
 .text          0x00000000        0x0 /home/konstantinos/Desktop/isense_sdk/iSense/lib/jennic/iSenseLibraryJN5139R1.a(sprint_number.o)
 .data          0x00000000        0x0 /home/konstantinos/Desktop/isense_sdk/iSense/lib/jennic/iSenseLibraryJN5139R1.a(sprint_number.o)
 .bss           0x00000000        0x0 /home/konstantinos/Desktop/isense_sdk/iSense/lib/jennic/iSenseLibraryJN5139R1.a(sprint_number.o)
 _ZN6isense5Clock22compensate_temperatureEa
                0x00000000        0x0 /home/konstantinos/Desktop/isense_sdk/iSense/lib/jennic/iSenseLibraryJN5139R1.a(core_module_clock.o)
 _ZN6isense5Clock12adjust_driftEa
                0x00000000        0x0 /home/konstantinos/Desktop/isense_sdk/iSense/lib/jennic/iSenseLibraryJN5139R1.a(core_module_clock.o)
 _ZN6isense5Clock21calibrate_sleep_timerEht
                0x00000000        0x0 /home/konstantinos/Desktop/isense_sdk/iSense/lib/jennic/iSenseLibraryJN5139R1.a(core_module_clock.o)
 _ZN6isense16Uint8DataHandlerD0Ev
                0x00000000        0x0 /home/konstantinos/Desktop/isense_sdk/iSense/lib/jennic/iSenseLibraryJN5139R1.a(core_module_clock.o)
 _ZN6isense16Uint8DataHandlerD1Ev
                0x00000000        0x0 /home/konstantinos/Desktop/isense_sdk/iSense/lib/jennic/iSenseLibraryJN5139R1.a(core_module_clock.o)
 _ZN6isense14TimeoutHandlerD0Ev
                0x00000000        0x0 /home/konstantinos/Desktop/isense_sdk/iSense/lib/jennic/iSenseLibraryJN5139R1.a(core_module_clock.o)
 _ZN6isense14TimeoutHandlerD1Ev
                0x00000000        0x0 /home/konstantinos/Desktop/isense_sdk/iSense/lib/jennic/iSenseLibraryJN5139R1.a(core_module_clock.o)
 _ZN6isense5ClockD0Ev
                0x00000000        0x0 /home/konstantinos/Desktop/isense_sdk/iSense/lib/jennic/iSenseLibraryJN5139R1.a(core_module_clock.o)
 _ZN6isense5ClockD1Ev
                0x00000000        0x0 /home/konstantinos/Desktop/isense_sdk/iSense/lib/jennic/iSenseLibraryJN5139R1.a(core_module_clock.o)
 _ZN6isense5ClockD2Ev
                0x00000000        0x0 /home/konstantinos/Desktop/isense_sdk/iSense/lib/jennic/iSenseLibraryJN5139R1.a(core_module_clock.o)
 _ZN6isense15CoreModuleClockD0Ev
                0x00000000        0x0 /home/konstantinos/Desktop/isense_sdk/iSense/lib/jennic/iSenseLibraryJN5139R1.a(core_module_clock.o)
 _ZN6isense15CoreModuleClockD1Ev
                0x00000000        0x0 /home/konstantinos/Desktop/isense_sdk/iSense/lib/jennic/iSenseLibraryJN5139R1.a(core_module_clock.o)
 _ZTVN6isense15CoreModuleClockE
                0x00000000        0x0 /home/konstantinos/Desktop/isense_sdk/iSense/lib/jennic/iSenseLibraryJN5139R1.a(core_module_clock.o)
 _ZTVN6isense16Uint8DataHandlerE
                0x00000000        0x0 /home/konstantinos/Desktop/isense_sdk/iSense/lib/jennic/iSenseLibraryJN5139R1.a(core_module_clock.o)
 _ZTVN6isense5ClockE
                0x00000000        0x0 /home/konstantinos/Desktop/isense_sdk/iSense/lib/jennic/iSenseLibraryJN5139R1.a(core_module_clock.o)
 _ZTVN6isense14TimeoutHandlerE
                0x00000000        0x0 /home/konstantinos/Desktop/isense_sdk/iSense/lib/jennic/iSenseLibraryJN5139R1.a(core_module_clock.o)
 .text          0x00000000        0x0 /home/konstantinos/Desktop/isense_sdk/iSense/lib/jennic/iSenseLibraryJN5139R1.a(core_module_clock.o)
 .data          0x00000000        0x0 /home/konstantinos/Desktop/isense_sdk/iSense/lib/jennic/iSenseLibraryJN5139R1.a(core_module_clock.o)
 .bss           0x00000000        0x0 /home/konstantinos/Desktop/isense_sdk/iSense/lib/jennic/iSenseLibraryJN5139R1.a(core_module_clock.o)
 .text._ZN6isense5Clock22compensate_temperatureEa
                0x00000000        0x0 /home/konstantinos/Desktop/isense_sdk/iSense/lib/jennic/iSenseLibraryJN5139R1.a(core_module_clock.o)
 .text._ZN6isense5Clock12adjust_driftEa
                0x00000000        0x0 /home/konstantinos/Desktop/isense_sdk/iSense/lib/jennic/iSenseLibraryJN5139R1.a(core_module_clock.o)
 .text._ZN6isense5Clock21calibrate_sleep_timerEht
                0x00000000        0x0 /home/konstantinos/Desktop/isense_sdk/iSense/lib/jennic/iSenseLibraryJN5139R1.a(core_module_clock.o)
 .text._ZN6isense15CoreModuleClock5timerEv
                0x00000000        0x0 /home/konstantinos/Desktop/isense_sdk/iSense/lib/jennic/iSenseLibraryJN5139R1.a(core_module_clock.o)
 .text._ZN6isense16Uint8DataHandlerD0Ev
                0x00000000        0x0 /home/konstantinos/Desktop/isense_sdk/iSense/lib/jennic/iSenseLibraryJN5139R1.a(core_module_clock.o)
 .text._ZN6isense16Uint8DataHandlerD1Ev
                0x00000000        0x0 /home/konstantinos/Desktop/isense_sdk/iSense/lib/jennic/iSenseLibraryJN5139R1.a(core_module_clock.o)
 .text._ZN6isense14TimeoutHandlerD0Ev
                0x00000000        0x0 /home/konstantinos/Desktop/isense_sdk/iSense/lib/jennic/iSenseLibraryJN5139R1.a(core_module_clock.o)
 .text._ZN6isense14TimeoutHandlerD1Ev
                0x00000000        0x0 /home/konstantinos/Desktop/isense_sdk/iSense/lib/jennic/iSenseLibraryJN5139R1.a(core_module_clock.o)
 .text._ZN6isense5ClockD0Ev
                0x00000000        0x0 /home/konstantinos/Desktop/isense_sdk/iSense/lib/jennic/iSenseLibraryJN5139R1.a(core_module_clock.o)
 .text._ZN6isense5ClockD1Ev
                0x00000000        0x0 /home/konstantinos/Desktop/isense_sdk/iSense/lib/jennic/iSenseLibraryJN5139R1.a(core_module_clock.o)
 .rodata._ZTVN6isense16Uint8DataHandlerE
                0x00000000        0x0 /home/konstantinos/Desktop/isense_sdk/iSense/lib/jennic/iSenseLibraryJN5139R1.a(core_module_clock.o)
 .rodata._ZTVN6isense5ClockE
                0x00000000        0x0 /home/konstantinos/Desktop/isense_sdk/iSense/lib/jennic/iSenseLibraryJN5139R1.a(core_module_clock.o)
 .rodata._ZTVN6isense14TimeoutHandlerE
                0x00000000        0x0 /home/konstantinos/Desktop/isense_sdk/iSense/lib/jennic/iSenseLibraryJN5139R1.a(core_module_clock.o)
 _ZN6isense13HardwareRadioD0Ev
                0x00000000        0x0 /home/konstantinos/Desktop/isense_sdk/iSense/lib/jennic/iSenseLibraryJN5139R1.a(jennic_radio.o)
 _ZN6isense13HardwareRadioD1Ev
                0x00000000        0x0 /home/konstantinos/Desktop/isense_sdk/iSense/lib/jennic/iSenseLibraryJN5139R1.a(jennic_radio.o)
 _ZN6isense12SleepHandlerD0Ev
                0x00000000        0x0 /home/konstantinos/Desktop/isense_sdk/iSense/lib/jennic/iSenseLibraryJN5139R1.a(jennic_radio.o)
 _ZN6isense12SleepHandlerD1Ev
                0x00000000        0x0 /home/konstantinos/Desktop/isense_sdk/iSense/lib/jennic/iSenseLibraryJN5139R1.a(jennic_radio.o)
 _ZN6isense11JennicRadioD1Ev
                0x00000000        0x0 /home/konstantinos/Desktop/isense_sdk/iSense/lib/jennic/iSenseLibraryJN5139R1.a(jennic_radio.o)
 _ZN6isense11JennicRadioD0Ev
                0x00000000        0x0 /home/konstantinos/Desktop/isense_sdk/iSense/lib/jennic/iSenseLibraryJN5139R1.a(jennic_radio.o)
 _ZTVN6isense11JennicRadioE
                0x00000000        0x0 /home/konstantinos/Desktop/isense_sdk/iSense/lib/jennic/iSenseLibraryJN5139R1.a(jennic_radio.o)
 _ZTVN6isense12SleepHandlerE
                0x00000000        0x0 /home/konstantinos/Desktop/isense_sdk/iSense/lib/jennic/iSenseLibraryJN5139R1.a(jennic_radio.o)
 _ZTVN6isense13HardwareRadioE
                0x00000000        0x0 /home/konstantinos/Desktop/isense_sdk/iSense/lib/jennic/iSenseLibraryJN5139R1.a(jennic_radio.o)
 .text          0x00000000        0x0 /home/konstantinos/Desktop/isense_sdk/iSense/lib/jennic/iSenseLibraryJN5139R1.a(jennic_radio.o)
 .data          0x00000000        0x0 /home/konstantinos/Desktop/isense_sdk/iSense/lib/jennic/iSenseLibraryJN5139R1.a(jennic_radio.o)
 .bss           0x00000000        0x0 /home/konstantinos/Desktop/isense_sdk/iSense/lib/jennic/iSenseLibraryJN5139R1.a(jennic_radio.o)
 .text._ZN6isense11JennicRadio25provide_mcps_buffer_spaceEv
                0x00000000        0x0 /home/konstantinos/Desktop/isense_sdk/iSense/lib/jennic/iSenseLibraryJN5139R1.a(jennic_radio.o)
 .text._ZN6isense13HardwareRadioD0Ev
                0x00000000        0x0 /home/konstantinos/Desktop/isense_sdk/iSense/lib/jennic/iSenseLibraryJN5139R1.a(jennic_radio.o)
 .text._ZN6isense13HardwareRadioD1Ev
                0x00000000        0x0 /home/konstantinos/Desktop/isense_sdk/iSense/lib/jennic/iSenseLibraryJN5139R1.a(jennic_radio.o)
 .text._ZN6isense12SleepHandlerD0Ev
                0x00000000        0x0 /home/konstantinos/Desktop/isense_sdk/iSense/lib/jennic/iSenseLibraryJN5139R1.a(jennic_radio.o)
 .text._ZN6isense12SleepHandlerD1Ev
                0x00000000        0x0 /home/konstantinos/Desktop/isense_sdk/iSense/lib/jennic/iSenseLibraryJN5139R1.a(jennic_radio.o)
 .rodata._ZTVN6isense12SleepHandlerE
                0x00000000        0x0 /home/konstantinos/Desktop/isense_sdk/iSense/lib/jennic/iSenseLibraryJN5139R1.a(jennic_radio.o)
 .rodata._ZTVN6isense13HardwareRadioE
                0x00000000        0x0 /home/konstantinos/Desktop/isense_sdk/iSense/lib/jennic/iSenseLibraryJN5139R1.a(jennic_radio.o)
 .data          0x00000000        0x0 /home/konstantinos/Desktop/isense_sdk/iSense/lib/jennic/iSenseLibraryJN5139R1.a(AHI_WakeTimerPatch.o)
 .bss           0x00000000        0x0 /home/konstantinos/Desktop/isense_sdk/iSense/lib/jennic/iSenseLibraryJN5139R1.a(AHI_WakeTimerPatch.o)
 .data          0x00000000        0x0 /home/konstantinos/Desktop/isense_sdk/iSense/lib/jennic/iSenseLibraryJN5139R1.a(PhySetChannelPatch.o)
 .bss           0x00000000        0x0 /home/konstantinos/Desktop/isense_sdk/iSense/lib/jennic/iSenseLibraryJN5139R1.a(PhySetChannelPatch.o)
 .text          0x00000000        0x0 /home/konstantinos/Desktop/isense_sdk/iSense/lib/jennic/iSenseLibraryJN5139R1.a(min.o)
 .data          0x00000000        0x0 /home/konstantinos/Desktop/isense_sdk/iSense/lib/jennic/iSenseLibraryJN5139R1.a(min.o)
 .bss           0x00000000        0x0 /home/konstantinos/Desktop/isense_sdk/iSense/lib/jennic/iSenseLibraryJN5139R1.a(min.o)

Memory Configuration

Name             Origin             Length             Attributes
flashh           0x04000fd0         0x00000024
oad              0x04000ff4         0x0000000c
mac              0x04001000         0x00000020
ram              0x04001020         0x000167e0
*default*        0x00000000         0xffffffff

Linker script and memory map

                0x000013ac                _sJennicLogo = 0x13ac
                0x00002c3c                _vAHI_ApConfigure = 0x2c3c
                0x00002cfc                _bAHI_APRegulatorEnabled = 0x2cfc
                0x00002d18                _vAHI_AdcEnable = 0x2d18
                0x00002dcc                _vAHI_AdcDisable = 0x2dcc
                0x00002dec                _vAHI_AdcStartSample = 0x2dec
                0x00002e04                _bAHI_AdcPoll = 0x2e04
                0x00002e1c                _u16AHI_AdcRead = 0x2e1c
                0x00002e34                _vAHI_DacEnable = 0x2e34
                0x00002f04                _bAHI_DacPoll = 0x2f04
                0x00002f40                _vAHI_DacOutput = 0x2f40
                0x00002f80                _vAHI_DacDisable = 0x2f80
                0x00002fb0                _vAHI_IntHandlerAnalogPeriph = 0x2fb0
                0x00003000                _vAHI_APRegisterCallback = 0x3000
                0x00003028                _vAHI_ComparatorEnable = 0x3028
                0x000030a8                _vAHI_ComparatorDisable = 0x30a8
                0x000030dc                _vAHI_ComparatorIntEnable = 0x30dc
                0x00003178                _vAHI_ComparatorWakeEnable = 0x3178
                0x0000319c                _u8AHI_ComparatorStatus = 0x319c
                0x000031b8                _u8AHI_ComparatorWakeStatus = 0x31b8
                0x000031e0                _vAHI_DioSetDirection = 0x31e0
                0x00003204                _vAHI_DioSetOutput = 0x3204
                0x00003228                _vAHI_DioSetPullup = 0x3228
                0x0000324c                _u32AHI_DioReadInput = 0x324c
                0x00003260                _vAHI_DioWakeEdge = 0x3260
                0x00003284                _vAHI_DioWakeEnable = 0x3284
                0x000032a8                _u32AHI_DioWakeStatus = 0x32a8
                0x000032cc                _vAHI_DioSetByte = 0x32cc
                0x00003308                _u8AHI_DioReadByte = 0x3308
                0x000036e4                _bAHI_FlashEraseSector = 0x36e4
                0x00003780                _u32AHI_Init = 0x3780
                0x00003828                _vAHI_SwReset = 0x3828
                0x00003840                _vAHI_DriveResetOut = 0x3840
                0x00003884                _vAHI_SiConfigure = 0x3884
                0x00003914                _vAHI_SiSetCmdReg = 0x3914
                0x00003990                _vAHI_SiWriteData8 = 0x3990
                0x000039a8                _vAHI_SiWriteSlaveAddr = 0x39a8
                0x000039e0                _u8AHI_SiReadData8 = 0x39e0
                0x000039f8                _bAHI_SiPollBusy = 0x39f8
                0x00003a28                _bAHI_SiPollTransferInProgress = 0x3a28
                0x00003a58                _bAHI_SiPollRxNack = 0x3a58
                0x00003a88                _bAHI_SiPollArbitrationLost = 0x3a88
                0x00003ab8                _vAHI_IntHandlerSi = 0x3ab8
                0x00003b08                _vAHI_SiRegisterCallback = 0x3b08
                0x00003b30                _vAHI_SpiConfigure = 0x3b30
                0x00003c38                _vAHI_SpiReadConfiguration = 0x3c38
                0x00003c94                _vAHI_SpiRestoreConfiguration = 0x3c94
                0x00003cfc                _vAHI_SpiSelect = 0x3cfc
                0x00003d14                _vAHI_SpiStop = 0x3d14
                0x00003d2c                _vAHI_SpiStartTransfer32 = 0x3d2c
                0x00003d6c                _u32AHI_SpiReadTransfer32 = 0x3d6c
                0x00003d80                _vAHI_SpiStartTransfer16 = 0x3d80
                0x00003dc4                _u16AHI_SpiReadTransfer16 = 0x3dc4
                0x00003ddc                _vAHI_SpiStartTransfer8 = 0x3ddc
                0x00003e20                _u8AHI_SpiReadTransfer8 = 0x3e20
                0x00003e38                _bAHI_SpiPollBusy = 0x3e38
                0x00003e64                _vAHI_SpiWaitBusy = 0x3e64
                0x00003e88                _vAHI_IntHandlerSpiMaster = 0x3e88
                0x00003eec                _vAHI_SpiRegisterCallback = 0x3eec
                0x00003f14                _vAHI_SpiSetContinuousMode = 0x3f14
                0x00003f44                _u8AHI_PowerStatus = 0x3f44
                0x00003f5c                _vAHI_MemoryHold = 0x3f5c
                0x00003fcc                _vAHI_CpuDoze = 0x3fcc
                0x000040c4                _vAHI_IntHandlerSysCtrl = 0x40c4
                0x00004140                _vAHI_SysCtrlRegisterCallback = 0x4140
                0x00004198                _vAHI_ExternalClockEnable = 0x4198
                0x000041c8                _vAHI_HighPowerModuleEnable = 0x41c8
                0x00004230                _vAHI_AntennaDiversityOutputEnable = 0x4230
                0x00004298                _vAHI_UartEnable = 0x4298
                0x00004318                _vAHI_UartDisable = 0x4318
                0x0000439c                _vAHI_UartSetBaudDivisor = 0x439c
                0x00004434                _vAHI_UartSetClockDivisor = 0x4434
                0x00004490                _vAHI_UartSetControl = 0x4490
                0x0000452c                _vAHI_UartSetInterrupt = 0x452c
                0x000045ec                _vAHI_UartReset = 0x45ec
                0x0000464c                _u8AHI_UartReadLineStatus = 0x464c
                0x00004690                _u8AHI_UartReadModemStatus = 0x4690
                0x000046d4                _u8AHI_UartReadInterruptStatus = 0x46d4
                0x00004718                _vAHI_UartWriteData = 0x4718
                0x00004758                _u8AHI_UartReadData = 0x4758
                0x0000479c                _vAHI_UartSetRTSCTS = 0x479c
                0x000047d4                _vAHI_IntHandlerUart0 = 0x47d4
                0x00004848                _vAHI_IntHandlerUart1 = 0x4848
                0x000048bc                _vAHI_Uart0RegisterCallback = 0x48bc
                0x000048e4                _vAHI_Uart1RegisterCallback = 0x48e4
                0x0000490c                _vAHI_WakeTimerEnable = 0x490c
                0x000049ac                _vAHI_WakeTimerStart = 0x49ac
                0x00004a2c                _vAHI_WakeTimerStop = 0x4a2c
                0x00004a78                _u8AHI_WakeTimerStatus = 0x4a78
                0x00004adc                _u8AHI_WakeTimerFiredStatus = 0x4adc
                0x00004b04                _vAHI_TickTimerIntEnable = 0x4b04
                0x00004b38                _vAHI_TickTimerIntPendClr = 0x4b38
                0x00004b54                _vAHI_TickTimerISR = 0x4b54
                0x00004bb0                _vAHI_TickTimerInit = 0x4bb0
                0x00004be4                _vAHI_TickTimerWrite = 0x4be4
                0x00004bf0                _bAHI_TickTimerIntStatus = 0x4bf0
                0x00004c18                _vAHI_TickTimerConfigure = 0x4c18
                0x00004c40                _u32AHI_TickTimerRead = 0x4c40
                0x00004c4c                _vAHI_TickTimerInterval = 0x4c4c
                0x00004d34                _vAHI_TimerDisable = 0x4d34
                0x00004d64                _vAHI_TimerClockSelect = 0x4d64
                0x00004dfc                _vAHI_TimerStartSingleShot = 0x4dfc
                0x00004e38                _vAHI_TimerStartRepeat = 0x4e38
                0x00004e70                _vAHI_TimerStartDeltaSigma = 0x4e70
                0x00004eac                _vAHI_TimerStartCapture = 0x4eac
                0x00004ed4                _vAHI_TimerStop = 0x4ed4
                0x00004efc                _vAHI_TimerReadCapture = 0x4efc
                0x00004f60                _u8AHI_TimerFired = 0x4f60
                0x00004f8c                _vAHI_TimerDIOControl = 0x4f8c
                0x00004fc4                _vAHI_IntHandlerTimer0 = 0x4fc4
                0x00005024                _vAHI_IntHandlerTimer1 = 0x5024
                0x00005084                _vAHI_Timer0RegisterCallback = 0x5084
                0x000050ac                _vAHI_Timer1RegisterCallback = 0x50ac
                0x000050d4                _vAHI_IpEnable = 0x50d4
                0x00005140                _bAHI_IpSendData = 0x5140
                0x00005220                _bAHI_IpReadData = 0x5220
                0x000052f4                _bAHI_IpTxDone = 0x52f4
                0x00005340                _bAHI_IpRxDataAvailable = 0x5340
                0x0000536c                _vAHI_IntHandlerSpiIp = 0x536c
                0x000053c8                _vAHI_IpRegisterCallback = 0x53c8
                0x000053f0                _bACI_ReadOutputData = 0x53f0
                0x00005450                _bACI_isBusy = 0x5450
                0x00005498                _bACI_commandAccepted = 0x5498
                0x00005678                _bACI_WriteInputData = 0x5678
                0x000056c4                _bACI_WriteKey = 0x56c4
                0x000056f8                _bACI_issueReset = 0x56f8
                0x00005734                _bACI_setMode = 0x5734
                0x000057e4                _vACI_CmdWaitBusy = 0x57e4
                0x00005878                _vACI_SetInterruptEnable = 0x5878
                0x000058b8                _vACI_ClearInterruptEnable = 0x58b8
                0x000058f4                _vACI_ClearInterruptStatus = 0x58f4
                0x00005934                _vACI_IntHandlerAes = 0x5934
                0x00005994                _vACI_SetInterruptCallback = 0x5994
                0x00005a48                _vACI_ReadInterruptEnable = 0x5a48
                0x00005a7c                _vACI_ReadInterruptStatus = 0x5a7c
                0x00005ab0                _bACI_ReadChecksumData = 0x5ab0
                0x00005b58                _bACI_ReadChecksumValidationResult = 0x5b58
                0x00006274                _bACI_ECBencodeBuffer = 0x6274
                0x000063e8                _bACI_ECBencodeStripe = 0x63e8
                0x0000645c                _hex_to_int = 0x645c
                0x000064a4                _lnibble_to_hex = 0x64a4
                0x000064c0                _hargs_parse_long = 0x64c0
                0x00006534                _mem_to_hexbuf = 0x6534
                0x00006658                _hexbuf_to_mem = 0x6658
                0x000067dc                _xbin_to_bin = 0x67dc
                0x0000681c                _putbuf = 0x681c
                0x00006888                _putmsg = 0x6888
                0x00006940                _last_signal = 0x6940
                0x00007104                _gdb_peek_register_file = 0x7104
                0x000071d8                _gdb_poke_register_file = 0x71d8
                0x000072a0                ___break_opcode = 0x72a0
                0x000072b0                _gdb_monitor_onentry = 0x72b0
                0x000072f0                _gdb_detach = 0x72f0
                0x000072f8                _gdb_flush_cache = 0x72f8
                0x000072e8                _gdb_kill = 0x72e8
                0x00007330                _gdb_return_from_exception = 0x7330
                0x000073c4                _gdb_continue = 0x73c4
                0x00007550                _gdb_putc = 0x7550
                0x000075b0                _gdb_getc = 0x75b0
                0x000075f8                _gdb_startupPatched = 0x75f8
                0x00007ec8                _vUTIL_NumToString = 0x7ec8
                0x00007f08                _vUTIL_UartInit = 0x7f08
                0x00007f6c                _vUTIL_UartText = 0x7f6c
                0x00007ff8                _vUTIL_UartTextToNewLine = 0x7ff8
                0x000081d8                ___udivsi3 = 0x81d8
                0x000081f4                ___umodsi3 = 0x81f4
                0x00008210                ___divsi3 = 0x8210
                0x0000827c                ___modsi3 = 0x827c
                0x000082d8                _pvAppApiGetMacHandle = 0x82d8
                0x0000837c                _eAppApiPlmeSet = 0x837c
                0x000083c4                _eAppApiPlmeGet = 0x83c4
                0x0000840c                _vAppApiPowerUp = 0x840c
                0x000084c0                _vAppApiSetVectors = 0x84c0
                0x000084fc                _vAppApiStartStack = 0x84fc
                0x000085c4                _vAppApiSetPrbsSeed = 0x85c4
                0x000085fc                _vAppApiSetInterrupts = 0x85fc
                0x00008704                _vAppApiSaveMacSettings = 0x8704
                0x00008754                _vAppApiRestoreMacSettingsROM = 0x8754
                0x00008834                _vAppHousekeepingAttemptCalibration = 0x8834
                0x00008a68                _vAppHousekeepingTimerExpiry = 0x8a68
                0x00008aa4                _vAppHousekeepingInit = 0x8aa4
                0x00009334                _MAC_pvCtor = 0x9334
                0x0000980c                _MAC_vHandleMlmeReqRsp = 0x980c
                0x000098fc                _MAC_psPibGetHandle = 0x98fc
                0x00009908                _MAC_vPibSetShortAddr = 0x9908
                0x00009924                _MAC_vPibSetPanId = 0x9924
                0x00009954                _MAC_vPibSetMinBe = 0x9954
                0x00009984                _MAC_vPibSetMaxCsmaBackoffs = 0x9984
                0x000099b8                _MAC_vPibSetRxOnWhenIdle = 0x99b8
                0x0000a5c8                _MAC_vRegisterMlmeDcfmIndCallbacks = 0xa5c8
                0x0000a5e0                _MAC_vRegisterMcpsDcfmIndCallbacks = 0xa5e0
                0x0000ba50                _vPhySetChannelOriginal = 0xba50
                0x00010048                _u8AppApiReadMsq = 0x10048
                0x000128d4                _XCV_vDevWriteIER = 0x128d4
                0x00015844                _u16ZSPIflashRDID = 0x15844
                0x00015924                _u8SelectFlashChipType = 0x15924
                0x00015a28                _vZSPIflashInit = 0x15a28
                0x000165ac                _memset = 0x165ac
                0x00016b68                _memchr = 0x16b68
                0x00016f28                _memcmp = 0x16f28
                0x000172e4                _memmove = 0x172e4
                0x0001742c                _memcpy = 0x1742c
                0x00015f74                _strlen = 0x15f74
                0x00015ffc                _strerror = 0x15ffc
                0x00016670                _strstr = 0x16670
                0x00016700                _strspn = 0x16700
                0x000167c8                _strrchr = 0x167c8
                0x0001684c                _strpbrk = 0x1684c
                0x00016940                _strcspn = 0x16940
                0x00016a20                _strchr = 0x16a20
                0x00016c6c                _strxfrm = 0x16c6c
                0x00016ce0                _strncmp = 0x16ce0
                0x00016e20                _strcoll = 0x16e20
                0x00016e48                _strcmp = 0x16e48
                0x00016fb8                _strncat = 0x16fb8
                0x000170a0                _strcat = 0x170a0
                0x00017144                _strncpy = 0x17144
                0x00017254                _strcpy = 0x17254
                0x00017510                _ldiv = 0x17510
                0x000175f0                _labs = 0x175f0
                0x0001761c                _div = 0x1761c
                0x00017728                _qsort = 0x17728
                0x000180e0                _bsearch = 0x180e0
                0x000181e8                _finite = 0x181e8
                0x0001821c                _scalbn = 0x1821c
                0x000184e4                __user_strerror = 0x184e4
                0x00018500                _copysign = 0x18500
                0x00018548                ___pack_d = 0x18548
                0x00018918                ___unpack_d = 0x18918
                0x00018df4                Rom____adddf3 = 0x18df4
                0x00018e80                Rom____subdf3 = 0x18e80
                0x00018f18                Rom____muldf3 = 0x18f18
                0x000194e0                Rom____divdf3 = 0x194e0
                0x00019958                ___cmpdf2 = 0x19958
                0x000199c4                ___eqdf2 = 0x199c4
                0x00019a50                ___nedf2 = 0x19a50
                0x00019adc                ___gtdf2 = 0x19adc
                0x00019b68                ___gedf2 = 0x19b68
                0x00019bf4                ___ltdf2 = 0x19bf4
                0x00019c80                ___ledf2 = 0x19c80
                0x00019d0c                ___unorddf2 = 0x19d0c
                0x00019d90                Rom____floatsidf = 0x19d90
                0x00019e9c                Rom____floatunsidf = 0x19e9c
                0x00019fec                ___fixdfsi = 0x19fec
                0x0001a0bc                Rom____negdf2 = 0x1a0bc
                0x0001a190                ___truncdfsf2 = 0x1a190
                0x0001a20c                ___pack_f = 0x1a20c
                0x0001a390                ___unpack_f = 0x1a390
                0x0001a6e4                ___addsf3 = 0x1a6e4
                0x0001a754                ___subsf3 = 0x1a754
                0x0001a7d0                ___mulsf3 = 0x1a7d0
                0x0001aa48                ___divsf3 = 0x1aa48
                0x0001abc8                ___fpcmp_parts_f = 0x1abc8
                0x0001ad38                ___cmpsf2 = 0x1ad38
                0x0001ad9c                ___eqsf2 = 0x1ad9c
                0x0001ae20                ___nesf2 = 0x1ae20
                0x0001aea4                ___gtsf2 = 0x1aea4
                0x0001af28                ___gesf2 = 0x1af28
                0x0001afac                ___ltsf2 = 0x1afac
                0x0001b030                ___lesf2 = 0x1b030
                0x0001b0b4                ___unordsf2 = 0x1b0b4
                0x0001b130                ___floatsisf = 0x1b130
                0x0001b1fc                ___floatunsisf = 0x1b1fc
                0x0001b2c8                ___fixsfsi = 0x1b2c8
                0x0001b38c                ___negsf2 = 0x1b38c
                0x0001b420                Rom____extendsfdf2 = 0x1b420
                0x0001b3e8                ___make_fp = 0x1b3e8
                0x0001bc94                ___udiv_w_sdiv = 0x1bc94
                0x0001bcb0                Rom____umoddi3 = 0x1bcb0
                0x0001c3dc                Rom____udivdi3 = 0x1c3dc
                0x0001cab0                Rom____moddi3 = 0x1cab0
                0x0001d2a0                Rom____divdi3 = 0x1d2a0
                0x0001dae4                ___ctzsi2 = 0x1dae4
                0x0001dc0c                ___clzsi2 = 0x1dc0c
                0x0001dd34                ___ffssi2 = 0x1dd34
                0x0001de64                ___negvsi2 = 0x1de64
                0x0001e2dc                ___mulvsi3 = 0x1e2dc
                0x0001e460                ___subvsi3 = 0x1e460
                0x0001e588                ___addvsi3 = 0x1e588
                0x0001e644                ___absvsi2 = 0x1e644
                0x0001e688                ___enable_execute_stack = 0x1e688
                0x0001e6a0                ___clear_cache = 0x1e6a0
                0x0001ea90                ___fixunssfsi = 0x1ea90
                0x0001eb08                ___fixunsdfsi = 0x1eb08
                0x0001eba8                ___floatdisf = 0x1eba8
                0x0001ed44                Rom____floatdidf = 0x1ed44
                0x0001eea0                ___cmpdi2 = 0x1eea0
                0x0001ef64                Rom____ashldi3 = 0x1ef64
                0x0001efdc                Rom____lshrdi3 = 0x1efdc
                0x0001f090                Rom____muldi3 = 0x1f090
                0x0001f134                ___mulsi3 = 0x1f134
                0x000228c8                _isnan = 0x228c8
                0x0002290c                _matherr = 0x2290c
                0x0001e6b8                Rom____fixsfdi = 0x1e6b8
                0x0001e8a4                Rom____fixdfdi = 0x1e8a4
                0x0001e75c                Rom____fixunssfdi = 0x1e75c
                0x0001e968                Rom____fixunsdfdi = 0x1e968
                0x0001eeec                Rom____ashrdi3 = 0x1eeec
                0x04000068                _pSPIflashFncTable = 0x4000068
                0x04000088                _prGdbHandleException = 0x4000088
                0x0400008c                _pr_u32AppApiInit = 0x400008c
                0x040001c4                _au16TimerSettings = 0x40001c4
                0x04000200                _gdbRegisterFile = 0x4000200
                0x040002b0                _g_pvMac = 0x40002b0
                0x040002b4                _g_sXcv = 0x40002b4
                0x04000e80                _aprMacVectorRamTable = 0x4000e80
                0x000054c4                _bIssueACIcommand = 0x54c4

.flashheader    0x04000fd0       0x24
                0x04000fd0        0x4 LONG 0xe0e0e0e0
                0x04000fd4        0x4 LONG 0x4001000 <code 342> (_data_beg)
                0x04000fd8        0x4 LONG 0x12054 _data_len
                0x04000fdc        0x4 LONG 0x1040031
                0x04000fe0        0x4 LONG 0x0
                0x04000fe4        0x4 LONG 0x4013064 <code 342> (_bss_beg)
                0x04000fe8        0x4 LONG 0x316c _bss_len
                0x04000fec        0x4 LONG 0x400bd54 <code 342> (_AppWarmStart)
                0x04000ff0        0x4 LONG 0x400be68 <code 342> (_AppColdStart)

.oad            0x04000ff4        0xc
                0x04000ff4        0x4 LONG 0xffffffff
                0x04000ff8        0x4 LONG 0xffffffff
                0x04000ffc        0x4 LONG 0xf0f0f0f0

.mac            0x04001000       0x20
                0x04001000                _data_beg = <code 342> (.)
                0x04001000        0x4 LONG 0xffffffff
                0x04001004        0x4 LONG 0xffffffff
                0x04001008        0x4 LONG 0xffffffff
                0x0400100c        0x4 LONG 0xffffffff
                0x04001010        0x4 LONG 0xffffffff
                0x04001014        0x4 LONG 0xffffffff
                0x04001018        0x4 LONG 0xffffffff
                0x0400101c        0x4 LONG 0xffffffff

.rodata         0x04001020      0x7bc
 *(.rodata*)
 .rodata._ZTVN7wiselib129_GLOBAL__N__home_konstantinos_Desktop_wiselib_wiselib.stable_external_interface_isense_isense_os_standalone.cpp_00000000_8D3100DE19iSenseTimerCallbackE
                0x04001020       0x18 out/isense/isense_os_standalone.o
 .rodata._ZTVN6isense4TaskE
                0x04001038       0x18 out/isense/isense_os_standalone.o
                0x04001038                vtable for isense::Task
 .rodata._ZTVN7wiselib24iSenseWiselibApplicationE
                0x04001050       0x20 out/isense/isense_os_standalone.o
                0x04001050                vtable for wiselib::iSenseWiselibApplication
 .rodata.str1.1
                0x04001070       0x64 out/isense/PLTT_passive_app.o
 *fill*         0x040010d4        0x4 00
 .rodata._ZTVN7wiselib51_GLOBAL__N_._PLTT_passive_app.cpp_00000000_47BADBE619iSenseTimerCallbackE
                0x040010d8       0x18 out/isense/PLTT_passive_app.o
 .rodata._ZTVN7wiselib26iSenseExtendedTxRadioModelINS_13iSenseOsModelEEE
                0x040010f0       0x18 out/isense/PLTT_passive_app.o
                0x040010f0                vtable for wiselib::iSenseExtendedTxRadioModel<wiselib::iSenseOsModel>
 .rodata._ZTVN6isense8ReceiverE
                0x04001108       0x18 out/isense/PLTT_passive_app.o
                0x04001108                vtable for isense::Receiver
 .rodata.str1.1
                0x04001120       0x8e /home/konstantinos/Desktop/isense_sdk/iSense/lib/jennic/iSenseLibraryJN5139R1.a(os.o)
 *fill*         0x040011ae        0x2 00
 .rodata._ZTVN6isense2OsE
                0x040011b0       0x38 /home/konstantinos/Desktop/isense_sdk/iSense/lib/jennic/iSenseLibraryJN5139R1.a(os.o)
                0x040011b0                vtable for isense::Os
 .rodata._ZTVN6isense11DeferedTaskE
                0x040011e8       0x18 /home/konstantinos/Desktop/isense_sdk/iSense/lib/jennic/iSenseLibraryJN5139R1.a(os.o)
                0x040011e8                vtable for isense::DeferedTask
 .rodata._ZTVN6isense14TimeoutHandlerE
                0x04001200       0x18 /home/konstantinos/Desktop/isense_sdk/iSense/lib/jennic/iSenseLibraryJN5139R1.a(os.o)
                0x04001200                vtable for isense::TimeoutHandler
 .rodata._ZTVN6isense6SenderE
                0x04001218       0x18 /home/konstantinos/Desktop/isense_sdk/iSense/lib/jennic/iSenseLibraryJN5139R1.a(os.o)
                0x04001218                vtable for isense::Sender
 .rodata._ZTVN6isense11ApplicationE
                0x04001230       0x18 /home/konstantinos/Desktop/isense_sdk/iSense/lib/jennic/iSenseLibraryJN5139R1.a(application.o)
                0x04001230                vtable for isense::Application
 .rodata._ZTVN6isense10DispatcherE
                0x04001248       0x30 /home/konstantinos/Desktop/isense_sdk/iSense/lib/jennic/iSenseLibraryJN5139R1.a(dispatcher.o)
                0x04001248                vtable for isense::Dispatcher
 .rodata._ZTVN6isense5ClockE
                0x04001278       0x40 /home/konstantinos/Desktop/isense_sdk/iSense/lib/jennic/iSenseLibraryJN5139R1.a(jennic_boot.o)
                0x04001278                vtable for isense::Clock
 .rodata._ZTVN6isense16Uint8DataHandlerE
                0x040012b8       0x18 /home/konstantinos/Desktop/isense_sdk/iSense/lib/jennic/iSenseLibraryJN5139R1.a(jennic_boot.o)
                0x040012b8                vtable for isense::Uint8DataHandler
 .rodata._ZTVN6isense21JennicPowerManagementE
                0x040012d0       0x28 /home/konstantinos/Desktop/isense_sdk/iSense/lib/jennic/iSenseLibraryJN5139R1.a(jennic_power_management.o)
                0x040012d0                vtable for isense::JennicPowerManagement
 .rodata._ZTVN6isense15PowerManagementE
                0x040012f8       0x28 /home/konstantinos/Desktop/isense_sdk/iSense/lib/jennic/iSenseLibraryJN5139R1.a(jennic_power_management.o)
                0x040012f8                vtable for isense::PowerManagement
 .rodata._ZTVN6isense10JennicGpioE
                0x04001320       0x30 /home/konstantinos/Desktop/isense_sdk/iSense/lib/jennic/iSenseLibraryJN5139R1.a(jennic_gpio.o)
                0x04001320                vtable for isense::JennicGpio
 .rodata._ZTVN6isense4GpioE
                0x04001350       0x30 /home/konstantinos/Desktop/isense_sdk/iSense/lib/jennic/iSenseLibraryJN5139R1.a(jennic_gpio.o)
                0x04001350                vtable for isense::Gpio
 .rodata._ZTVN6isense8JennicOsE
                0x04001380       0x38 /home/konstantinos/Desktop/isense_sdk/iSense/lib/jennic/iSenseLibraryJN5139R1.a(jennic_os.o)
                0x04001380                vtable for isense::JennicOs
 .rodata._ZTVN6isense3I2CE
                0x040013b8       0x28 /home/konstantinos/Desktop/isense_sdk/iSense/lib/jennic/iSenseLibraryJN5139R1.a(jennic_os.o)
                0x040013b8                vtable for isense::I2C
 .rodata._ZTVN6isense13HardwareRadioE
                0x040013e0       0x38 /home/konstantinos/Desktop/isense_sdk/iSense/lib/jennic/iSenseLibraryJN5139R1.a(jennic_os.o)
                0x040013e0                vtable for isense::HardwareRadio
 .rodata._ZTVN6isense12SleepHandlerE
                0x04001418       0x18 /home/konstantinos/Desktop/isense_sdk/iSense/lib/jennic/iSenseLibraryJN5139R1.a(jennic_os.o)
                0x04001418                vtable for isense::SleepHandler
 .rodata.str1.1
                0x04001430       0x1b /home/konstantinos/Desktop/isense_sdk/iSense/lib/jennic/iSenseLibraryJN5139R1.a(jennic_uart.o)
 *fill*         0x0400144b        0x5 00
 .rodata._ZTVN6isense10JennicUartE
                0x04001450       0x40 /home/konstantinos/Desktop/isense_sdk/iSense/lib/jennic/iSenseLibraryJN5139R1.a(jennic_uart.o)
                0x04001450                vtable for isense::JennicUart
 .rodata._ZTVN6isense11JennicTimerE
                0x04001490       0x28 /home/konstantinos/Desktop/isense_sdk/iSense/lib/jennic/iSenseLibraryJN5139R1.a(jennic_timer.o)
                0x04001490                vtable for isense::JennicTimer
 .rodata.str1.1
                0x040014b8       0x21 /home/konstantinos/Desktop/isense_sdk/iSense/lib/jennic/iSenseLibraryJN5139R1.a(jennic_i2c.o)
 *fill*         0x040014d9        0x7 00
 .rodata._ZTVN6isense9JennicI2CE
                0x040014e0       0x28 /home/konstantinos/Desktop/isense_sdk/iSense/lib/jennic/iSenseLibraryJN5139R1.a(jennic_i2c.o)
                0x040014e0                vtable for isense::JennicI2C
 .rodata        0x04001508        0x8 /home/konstantinos/Desktop/isense_sdk/iSense/lib/jennic/iSenseLibraryJN5139R1.a(AHI_TimerPatch.o)
 .rodata._ZTVN6isense9CsmaRadioE
                0x04001510       0x38 /home/konstantinos/Desktop/isense_sdk/iSense/lib/jennic/iSenseLibraryJN5139R1.a(csma_radio.o)
                0x04001510                vtable for isense::CsmaRadio
 .rodata._ZTVN6isense5TimerE
                0x04001548       0x20 /home/konstantinos/Desktop/isense_sdk/iSense/lib/jennic/iSenseLibraryJN5139R1.a(timer.o)
                0x04001548                vtable for isense::Timer
 .rodata.str1.1
                0x04001568       0x81 /home/konstantinos/Desktop/isense_sdk/iSense/lib/jennic/iSenseLibraryJN5139R1.a(hardware_radio.o)
 *fill*         0x040015e9        0x7 00
 .rodata._ZTVN6isense5RadioE
                0x040015f0       0x38 /home/konstantinos/Desktop/isense_sdk/iSense/lib/jennic/iSenseLibraryJN5139R1.a(radio.o)
                0x040015f0                vtable for isense::Radio
 .rodata._ZTVN6isense18LinkLayerInterfaceE
                0x04001628       0x30 /home/konstantinos/Desktop/isense_sdk/iSense/lib/jennic/iSenseLibraryJN5139R1.a(link_layer_interface.o)
                0x04001628                vtable for isense::LinkLayerInterface
 .rodata._ZTVN6isense4UartE
                0x04001658       0x40 /home/konstantinos/Desktop/isense_sdk/iSense/lib/jennic/iSenseLibraryJN5139R1.a(uart.o)
                0x04001658                vtable for isense::Uart
 .rodata.str1.1
                0x04001698       0x15 /home/konstantinos/Desktop/isense_sdk/iSense/lib/jennic/iSenseLibraryJN5139R1.a(core_module_clock.o)
 *fill*         0x040016ad        0x3 00
 .rodata._ZTVN6isense15CoreModuleClockE
                0x040016b0       0x58 /home/konstantinos/Desktop/isense_sdk/iSense/lib/jennic/iSenseLibraryJN5139R1.a(core_module_clock.o)
                0x040016b0                vtable for isense::CoreModuleClock
 .rodata.BCD    0x04001708       0x3c /home/konstantinos/Desktop/isense_sdk/iSense/lib/jennic/iSenseLibraryJN5139R1.a(core_module_clock.o)
 .rodata.str1.1
                0x04001744       0x38 /home/konstantinos/Desktop/isense_sdk/iSense/lib/jennic/iSenseLibraryJN5139R1.a(jennic_radio.o)
 *fill*         0x0400177c        0x4 00
 .rodata._ZTVN6isense11JennicRadioE
                0x04001780       0x58 /home/konstantinos/Desktop/isense_sdk/iSense/lib/jennic/iSenseLibraryJN5139R1.a(jennic_radio.o)
                0x04001780                vtable for isense::JennicRadio
 .rodata        0x040017d8        0x4 /home/konstantinos/Desktop/isense_sdk/iSense/lib/jennic/iSenseLibraryJN5139R1.a(JN513x2_Patch.o)

.data           0x040017dc       0x2c
 *(.data*)
 .data._ZN6isense13days_in_monthE
                0x040017dc       0x19 /home/konstantinos/Desktop/isense_sdk/iSense/lib/jennic/iSenseLibraryJN5139R1.a(time.o)
                0x040017dc                isense::days_in_month
 *fill*         0x040017f5        0x3 00
 .data.disable_interrupts
                0x040017f8        0x4 /home/konstantinos/Desktop/isense_sdk/iSense/lib/jennic/iSenseLibraryJN5139R1.a(default_disable_restore_interrupts.o)
                0x040017f8                disable_interrupts
 .data.restore_interrupts
                0x040017fc        0x4 /home/konstantinos/Desktop/isense_sdk/iSense/lib/jennic/iSenseLibraryJN5139R1.a(default_disable_restore_interrupts.o)
                0x040017fc                restore_interrupts
 .data          0x04001800        0x8 /home/konstantinos/Desktop/isense_sdk/iSense/lib/jennic/iSenseLibraryJN5139R1.a(JN513x2_Patch.o)
                0x04001800                u32MacAddrLocation
                0x04001804                bEnableBeaconResponse

.text           0x04001808    0x1184c
 *(.text*)
 .text._ZN7wiselib24iSenseWiselibApplication14application_idEv
                0x04001808        0x8 out/isense/isense_os_standalone.o
                0x04001808                wiselib::iSenseWiselibApplication::application_id()
 .text._ZN7wiselib24iSenseWiselibApplication17software_revisionEv
                0x04001810        0x8 out/isense/isense_os_standalone.o
                0x04001810                wiselib::iSenseWiselibApplication::software_revision()
 .text._ZN7wiselib129_GLOBAL__N__home_konstantinos_Desktop_wiselib_wiselib.stable_external_interface_isense_isense_os_standalone.cpp_00000000_8D3100DE19iSenseTimerCallback7executeEPv
                0x04001818       0x3c out/isense/isense_os_standalone.o
 .text._Z41__static_initialization_and_destruction_0ii
                0x04001854       0xb8 out/isense/isense_os_standalone.o
 .text._GLOBAL__I__ZN7wiselib129_GLOBAL__N__home_konstantinos_Desktop_wiselib_wiselib.stable_external_interface_isense_isense_os_standalone.cpp_00000000_8D3100DE22isense_timer_callbacksE
                0x0400190c        0xc out/isense/isense_os_standalone.o
 .text._ZN7wiselib24iSenseWiselibApplicationD1Ev
                0x04001918       0x10 out/isense/isense_os_standalone.o
                0x04001918                wiselib::iSenseWiselibApplication::~iSenseWiselibApplication()
 .text._ZN6isense4TaskD0Ev
                0x04001928       0x10 out/isense/isense_os_standalone.o
                0x04001928                isense::Task::~Task()
 .text._ZN6isense4TaskD1Ev
                0x04001938       0x10 out/isense/isense_os_standalone.o
                0x04001938                isense::Task::~Task()
 .text._ZN7wiselib129_GLOBAL__N__home_konstantinos_Desktop_wiselib_wiselib.stable_external_interface_isense_isense_os_standalone.cpp_00000000_8D3100DE19iSenseTimerCallbackD1Ev
                0x04001948       0x10 out/isense/isense_os_standalone.o
 .text._Z19application_factoryRN6isense2OsE
                0x04001958       0x6c out/isense/isense_os_standalone.o
                0x04001958                application_factory(isense::Os&)
 .text._ZN7wiselib24iSenseWiselibApplication4bootEv
                0x040019c4        0x8 out/isense/isense_os_standalone.o
                0x040019c4                wiselib::iSenseWiselibApplication::boot()
 .text._ZN7wiselib129_GLOBAL__N__home_konstantinos_Desktop_wiselib_wiselib.stable_external_interface_isense_isense_os_standalone.cpp_00000000_8D3100DE19iSenseTimerCallbackD0Ev
                0x040019cc       0x10 out/isense/isense_os_standalone.o
 .text._ZN7wiselib24iSenseWiselibApplicationD0Ev
                0x040019dc       0x10 out/isense/isense_os_standalone.o
                0x040019dc                wiselib::iSenseWiselibApplication::~iSenseWiselibApplication()
 .text._ZN6isense4TimeC1Em
                0x040019ec       0x4c out/isense/PLTT_passive_app.o
                0x040019ec                isense::Time::Time(unsigned long)
 .text._ZN7wiselib51_GLOBAL__N_._PLTT_passive_app.cpp_00000000_47BADBE619iSenseTimerCallback7executeEPv
                0x04001a38       0x3c out/isense/PLTT_passive_app.o
 .text._ZN7wiselib18ReliableRadio_TypeINS_13iSenseOsModelENS_26iSenseExtendedTxRadioModelIS1_EENS_16iSenseClockModelIS1_N6isense4TimeEEENS_16iSenseTimerModelIS1_EENS_15iSenseRandModelIS1_EENS_11iSenseDebugIS1_EEEC1Ev
                0x04001a74       0xc0 out/isense/PLTT_passive_app.o
                0x04001a74                wiselib::ReliableRadio_Type<wiselib::iSenseOsModel, wiselib::iSenseExtendedTxRadioModel<wiselib::iSenseOsModel>, wiselib::iSenseClockModel<wiselib::iSenseOsModel, isense::Time>, wiselib::iSenseTimerModel<wiselib::iSenseOsModel>, wiselib::iSenseRandModel<wiselib::iSenseOsModel>, wiselib::iSenseDebug<wiselib::iSenseOsModel> >::ReliableRadio_Type()
 .text._ZN7wiselib26iSenseExtendedTxRadioModelINS_13iSenseOsModelEE11set_channelEi
                0x04001b34       0x60 out/isense/PLTT_passive_app.o
                0x04001b34                wiselib::iSenseExtendedTxRadioModel<wiselib::iSenseOsModel>::set_channel(int)
 .text._ZN7wiselib26iSenseExtendedTxRadioModelINS_13iSenseOsModelEE12enable_radioEv
                0x04001b94       0x3c out/isense/PLTT_passive_app.o
                0x04001b94                wiselib::iSenseExtendedTxRadioModel<wiselib::iSenseOsModel>::enable_radio()
 .text._ZN7wiselib14PLTT_TraceTypeINS_13iSenseOsModelENS_26iSenseExtendedTxRadioModelIS1_EEhhhNS_8NodeTypeIS1_S3_tNS_14Position2DTypeIS1_S3_tNS_11iSenseDebugIS1_EEEES7_EEtS7_EC1Ev
                0x04001bd0       0x60 out/isense/PLTT_passive_app.o
                0x04001bd0                wiselib::PLTT_TraceType<wiselib::iSenseOsModel, wiselib::iSenseExtendedTxRadioModel<wiselib::iSenseOsModel>, unsigned char, unsigned char, unsigned char, wiselib::NodeType<wiselib::iSenseOsModel, wiselib::iSenseExtendedTxRadioModel<wiselib::iSenseOsModel>, unsigned short, wiselib::Position2DType<wiselib::iSenseOsModel, wiselib::iSenseExtendedTxRadioModel<wiselib::iSenseOsModel>, unsigned short, wiselib::iSenseDebug<wiselib::iSenseOsModel> >, wiselib::iSenseDebug<wiselib::iSenseOsModel> >, unsigned short, wiselib::iSenseDebug<wiselib::iSenseOsModel> >::PLTT_TraceType()
 .text._ZN7wiselib13vector_staticINS_13iSenseOsModelENS_14PLTT_TraceTypeIS1_NS_26iSenseExtendedTxRadioModelIS1_EEhhhNS_8NodeTypeIS1_S4_tNS_14Position2DTypeIS1_S4_tNS_11iSenseDebugIS1_EEEES8_EEtS8_EELi5EEC1Ev
                0x04001c30       0x5c out/isense/PLTT_passive_app.o
                0x04001c30                wiselib::vector_static<wiselib::iSenseOsModel, wiselib::PLTT_TraceType<wiselib::iSenseOsModel, wiselib::iSenseExtendedTxRadioModel<wiselib::iSenseOsModel>, unsigned char, unsigned char, unsigned char, wiselib::NodeType<wiselib::iSenseOsModel, wiselib::iSenseExtendedTxRadioModel<wiselib::iSenseOsModel>, unsigned short, wiselib::Position2DType<wiselib::iSenseOsModel, wiselib::iSenseExtendedTxRadioModel<wiselib::iSenseOsModel>, unsigned short, wiselib::iSenseDebug<wiselib::iSenseOsModel> >, wiselib::iSenseDebug<wiselib::iSenseOsModel> >, unsigned short, wiselib::iSenseDebug<wiselib::iSenseOsModel> >, 5>::vector_static()
 .text._ZN7wiselib20PLTT_SecureTraceTypeINS_13iSenseOsModelENS_26iSenseExtendedTxRadioModelIS1_EEhhhNS_8NodeTypeIS1_S3_tNS_14Position2DTypeIS1_S3_tNS_11iSenseDebugIS1_EEEES7_EEtS7_EC1Ev
                0x04001c8c       0x64 out/isense/PLTT_passive_app.o
                0x04001c8c                wiselib::PLTT_SecureTraceType<wiselib::iSenseOsModel, wiselib::iSenseExtendedTxRadioModel<wiselib::iSenseOsModel>, unsigned char, unsigned char, unsigned char, wiselib::NodeType<wiselib::iSenseOsModel, wiselib::iSenseExtendedTxRadioModel<wiselib::iSenseOsModel>, unsigned short, wiselib::Position2DType<wiselib::iSenseOsModel, wiselib::iSenseExtendedTxRadioModel<wiselib::iSenseOsModel>, unsigned short, wiselib::iSenseDebug<wiselib::iSenseOsModel> >, wiselib::iSenseDebug<wiselib::iSenseOsModel> >, unsigned short, wiselib::iSenseDebug<wiselib::iSenseOsModel> >::PLTT_SecureTraceType()
 .text._ZN7wiselib13vector_staticINS_13iSenseOsModelENS_20PLTT_SecureTraceTypeIS1_NS_26iSenseExtendedTxRadioModelIS1_EEhhhNS_8NodeTypeIS1_S4_tNS_14Position2DTypeIS1_S4_tNS_11iSenseDebugIS1_EEEES8_EEtS8_EELi25EEC1Ev
                0x04001cf0       0x5c out/isense/PLTT_passive_app.o
                0x04001cf0                wiselib::vector_static<wiselib::iSenseOsModel, wiselib::PLTT_SecureTraceType<wiselib::iSenseOsModel, wiselib::iSenseExtendedTxRadioModel<wiselib::iSenseOsModel>, unsigned char, unsigned char, unsigned char, wiselib::NodeType<wiselib::iSenseOsModel, wiselib::iSenseExtendedTxRadioModel<wiselib::iSenseOsModel>, unsigned short, wiselib::Position2DType<wiselib::iSenseOsModel, wiselib::iSenseExtendedTxRadioModel<wiselib::iSenseOsModel>, unsigned short, wiselib::iSenseDebug<wiselib::iSenseOsModel> >, wiselib::iSenseDebug<wiselib::iSenseOsModel> >, unsigned short, wiselib::iSenseDebug<wiselib::iSenseOsModel> >, 25>::vector_static()
 .text._ZN7wiselib16PLTT_PassiveTypeINS_13iSenseOsModelENS_8NodeTypeIS1_NS_26iSenseExtendedTxRadioModelIS1_EEtNS_14Position2DTypeIS1_S4_tNS_11iSenseDebugIS1_EEEES7_EENS_13PLTT_NodeTypeIS1_S4_S9_NS_19PLTT_NodeTargetTypeIS1_S4_thS7_EENS_13vector_staticIS1_SC_Li5EEENSD_IS1_NS_14PLTT_TraceTypeIS1_S4_hhhS9_tS7_EELi5EEES7_EENSD_IS1_SI_Li25EEESG_SH_NS_20PLTT_SecureTraceTypeIS1_S4_hhhS9_tS7_EENSD_IS1_SL_Li25EEENS_14PLTT_AgentTypeIS1_S4_thS7_EENS_22NeighborDiscovery_TypeIS1_S4_NS_16iSenseClockModelIS1_N6isense4TimeEEENS_16iSenseTimerModelIS1_EENS_15iSenseRandModelIS1_EES7_EESV_S4_NS_18ReliableRadio_TypeIS1_S4_ST_SV_SX_S7_EESX_ST_S7_EC1Ev
                0x04001d4c       0xfc out/isense/PLTT_passive_app.o
                0x04001d4c                wiselib::PLTT_PassiveType<wiselib::iSenseOsModel, wiselib::NodeType<wiselib::iSenseOsModel, wiselib::iSenseExtendedTxRadioModel<wiselib::iSenseOsModel>, unsigned short, wiselib::Position2DType<wiselib::iSenseOsModel, wiselib::iSenseExtendedTxRadioModel<wiselib::iSenseOsModel>, unsigned short, wiselib::iSenseDebug<wiselib::iSenseOsModel> >, wiselib::iSenseDebug<wiselib::iSenseOsModel> >, wiselib::PLTT_NodeType<wiselib::iSenseOsModel, wiselib::iSenseExtendedTxRadioModel<wiselib::iSenseOsModel>, wiselib::NodeType<wiselib::iSenseOsModel, wiselib::iSenseExtendedTxRadioModel<wiselib::iSenseOsModel>, unsigned short, wiselib::Position2DType<wiselib::iSenseOsModel, wiselib::iSenseExtendedTxRadioModel<wiselib::iSenseOsModel>, unsigned short, wiselib::iSenseDebug<wiselib::iSenseOsModel> >, wiselib::iSenseDebug<wiselib::iSenseOsModel> >, wiselib::PLTT_NodeTargetType<wiselib::iSenseOsModel, wiselib::iSenseExtendedTxRadioModel<wiselib::iSenseOsModel>, unsigned short, unsigned char, wiselib::iSenseDebug<wiselib::iSenseOsModel> >, wiselib::vector_static<wiselib::iSenseOsModel, wiselib::PLTT_NodeTargetType<wiselib::iSenseOsModel, wiselib::iSenseExtendedTxRadioModel<wiselib::iSenseOsModel>, unsigned short, unsigned char, wiselib::iSenseDebug<wiselib::iSenseOsModel> >, 5>, wiselib::vector_static<wiselib::iSenseOsModel, wiselib::PLTT_TraceType<wiselib::iSenseOsModel, wiselib::iSenseExtendedTxRadioModel<wiselib::iSenseOsModel>, unsigned char, unsigned char, unsigned char, wiselib::NodeType<wiselib::iSenseOsModel, wiselib::iSenseExtendedTxRadioModel<wiselib::iSenseOsModel>, unsigned short, wiselib::Position2DType<wiselib::iSenseOsModel, wiselib::iSenseExtendedTxRadioModel<wiselib::iSenseOsModel>, unsigned short, wiselib::iSenseDebug<wiselib::iSenseOsModel> >, wiselib::iSenseDebug<wiselib::iSenseOsModel> >, unsigned short, wiselib::iSenseDebug<wiselib::iSenseOsModel> >, 5>, wiselib::iSenseDebug<wiselib::iSenseOsModel> >, wiselib::vector_static<wiselib::iSenseOsModel, wiselib::PLTT_NodeType<wiselib::iSenseOsModel, wiselib::iSenseExtendedTxRadioModel<wiselib::iSenseOsModel>, wiselib::NodeType<wiselib::iSenseOsModel, wiselib::iSenseExtendedTxRadioModel<wiselib::iSenseOsModel>, unsigned short, wiselib::Position2DType<wiselib::iSenseOsModel, wiselib::iSenseExtendedTxRadioModel<wiselib::iSenseOsModel>, unsigned short, wiselib::iSenseDebug<wiselib::iSenseOsModel> >, wiselib::iSenseDebug<wiselib::iSenseOsModel> >, wiselib::PLTT_NodeTargetType<wiselib::iSenseOsModel, wiselib::iSenseExtendedTxRadioModel<wiselib::iSenseOsModel>, unsigned short, unsigned char, wiselib::iSenseDebug<wiselib::iSenseOsModel> >, wiselib::vector_static<wiselib::iSenseOsModel, wiselib::PLTT_NodeTargetType<wiselib::iSenseOsModel, wiselib::iSenseExtendedTxRadioModel<wiselib::iSenseOsModel>, unsigned short, unsigned char, wiselib::iSenseDebug<wiselib::iSenseOsModel> >, 5>, wiselib::vector_static<wiselib::iSenseOsModel, wiselib::PLTT_TraceType<wiselib::iSenseOsModel, wiselib::iSenseExtendedTxRadioModel<wiselib::iSenseOsModel>, unsigned char, unsigned char, unsigned char, wiselib::NodeType<wiselib::iSenseOsModel, wiselib::iSenseExtendedTxRadioModel<wiselib::iSenseOsModel>, unsigned short, wiselib::Position2DType<wiselib::iSenseOsModel, wiselib::iSenseExtendedTxRadioModel<wiselib::iSenseOsModel>, unsigned short, wiselib::iSenseDebug<wiselib::iSenseOsModel> >, wiselib::iSenseDebug<wiselib::iSenseOsModel> >, unsigned short, wiselib::iSenseDebug<wiselib::iSenseOsModel> >, 5>, wiselib::iSenseDebug<wiselib::iSenseOsModel> >, 25>, wiselib::PLTT_TraceType<wiselib::iSenseOsModel, wiselib::iSenseExtendedTxRadioModel<wiselib::iSenseOsModel>, unsigned char, unsigned char, unsigned char, wiselib::NodeType<wiselib::iSenseOsModel, wiselib::iSenseExtendedTxRadioModel<wiselib::iSenseOsModel>, unsigned short, wiselib::Position2DType<wiselib::iSenseOsModel, wiselib::iSenseExtendedTxRadioModel<wiselib::iSenseOsModel>, unsigned short, wiselib::iSenseDebug<wiselib::iSenseOsModel> >, wiselib::iSenseDebug<wiselib::iSenseOsModel> >, unsigned short, wiselib::iSenseDebug<wiselib::iSenseOsModel> >, wiselib::vector_static<wiselib::iSenseOsModel, wiselib::PLTT_TraceType<wiselib::iSenseOsModel, wiselib::iSenseExtendedTxRadioModel<wiselib::iSenseOsModel>, unsigned char, unsigned char, unsigned char, wiselib::NodeType<wiselib::iSenseOsModel, wiselib::iSenseExtendedTxRadioModel<wiselib::iSenseOsModel>, unsigned short, wiselib::Position2DType<wiselib::iSenseOsModel, wiselib::iSenseExtendedTxRadioModel<wiselib::iSenseOsModel>, unsigned short, wiselib::iSenseDebug<wiselib::iSenseOsModel> >, wiselib::iSenseDebug<wiselib::iSenseOsModel> >, unsigned short, wiselib::iSenseDebug<wiselib::iSenseOsModel> >, 5>, wiselib::PLTT_SecureTraceType<wiselib::iSenseOsModel, wiselib::iSenseExtendedTxRadioModel<wiselib::iSenseOsModel>, unsigned char, unsigned char, unsigned char, wiselib::NodeType<wiselib::iSenseOsModel, wiselib::iSenseExtendedTxRadioModel<wiselib::iSenseOsModel>, unsigned short, wiselib::Position2DType<wiselib::iSenseOsModel, wiselib::iSenseExtendedTxRadioModel<wiselib::iSenseOsModel>, unsigned short, wiselib::iSenseDebug<wiselib::iSenseOsModel> >, wiselib::iSenseDebug<wiselib::iSenseOsModel> >, unsigned short, wiselib::iSenseDebug<wiselib::iSenseOsModel> >, wiselib::vector_static<wiselib::iSenseOsModel, wiselib::PLTT_SecureTraceType<wiselib::iSenseOsModel, wiselib::iSenseExtendedTxRadioModel<wiselib::iSenseOsModel>, unsigned char, unsigned char, unsigned char, wiselib::NodeType<wiselib::iSenseOsModel, wiselib::iSenseExtendedTxRadioModel<wiselib::iSenseOsModel>, unsigned short, wiselib::Position2DType<wiselib::iSenseOsModel, wiselib::iSenseExtendedTxRadioModel<wiselib::iSenseOsModel>, unsigned short, wiselib::iSenseDebug<wiselib::iSenseOsModel> >, wiselib::iSenseDebug<wiselib::iSenseOsModel> >, unsigned short, wiselib::iSenseDebug<wiselib::iSenseOsModel> >, 25>, wiselib::PLTT_AgentType<wiselib::iSenseOsModel, wiselib::iSenseExtendedTxRadioModel<wiselib::iSenseOsModel>, unsigned short, unsigned char, wiselib::iSenseDebug<wiselib::iSenseOsModel> >, wiselib::NeighborDiscovery_Type<wiselib::iSenseOsModel, wiselib::iSenseExtendedTxRadioModel<wiselib::iSenseOsModel>, wiselib::iSenseClockModel<wiselib::iSenseOsModel, isense::Time>, wiselib::iSenseTimerModel<wiselib::iSenseOsModel>, wiselib::iSenseRandModel<wiselib::iSenseOsModel>, wiselib::iSenseDebug<wiselib::iSenseOsModel> >, wiselib::iSenseTimerModel<wiselib::iSenseOsModel>, wiselib::iSenseExtendedTxRadioModel<wiselib::iSenseOsModel>, wiselib::ReliableRadio_Type<wiselib::iSenseOsModel, wiselib::iSenseExtendedTxRadioModel<wiselib::iSenseOsModel>, wiselib::iSenseClockModel<wiselib::iSenseOsModel, isense::Time>, wiselib::iSenseTimerModel<wiselib::iSenseOsModel>, wiselib::iSenseRandModel<wiselib::iSenseOsModel>, wiselib::iSenseDebug<wiselib::iSenseOsModel> >, wiselib::iSenseRandModel<wiselib::iSenseOsModel>, wiselib::iSenseClockModel<wiselib::iSenseOsModel, isense::Time>, wiselib::iSenseDebug<wiselib::iSenseOsModel> >::PLTT_PassiveType()
 .text._ZN7wiselib26iSenseExtendedTxRadioModelINS_13iSenseOsModelEE17reg_recv_callbackINS_18ReliableRadio_TypeIS1_S2_NS_16iSenseClockModelIS1_N6isense4TimeEEENS_16iSenseTimerModelIS1_EENS_15iSenseRandModelIS1_EENS_11iSenseDebugIS1_EEEEXadL_ZNSF_7receiveEthPhRKNS2_12ExtendedDataEEEEEiPT_
                0x04001e48       0x50 out/isense/PLTT_passive_app.o
                0x04001e48                int wiselib::iSenseExtendedTxRadioModel<wiselib::iSenseOsModel>::reg_recv_callback<wiselib::ReliableRadio_Type<wiselib::iSenseOsModel, wiselib::iSenseExtendedTxRadioModel<wiselib::iSenseOsModel>, wiselib::iSenseClockModel<wiselib::iSenseOsModel, isense::Time>, wiselib::iSenseTimerModel<wiselib::iSenseOsModel>, wiselib::iSenseRandModel<wiselib::iSenseOsModel>, wiselib::iSenseDebug<wiselib::iSenseOsModel> >, &(wiselib::ReliableRadio_Type<wiselib::iSenseOsModel, wiselib::iSenseExtendedTxRadioModel<wiselib::iSenseOsModel>, wiselib::iSenseClockModel<wiselib::iSenseOsModel, isense::Time>, wiselib::iSenseTimerModel<wiselib::iSenseOsModel>, wiselib::iSenseRandModel<wiselib::iSenseOsModel>, wiselib::iSenseDebug<wiselib::iSenseOsModel> >::receive(unsigned short, unsigned char, unsigned char*, wiselib::iSenseExtendedTxRadioModel<wiselib::iSenseOsModel>::ExtendedData const&))>(wiselib::ReliableRadio_Type<wiselib::iSenseOsModel, wiselib::iSenseExtendedTxRadioModel<wiselib::iSenseOsModel>, wiselib::iSenseClockModel<wiselib::iSenseOsModel, isense::Time>, wiselib::iSenseTimerModel<wiselib::iSenseOsModel>, wiselib::iSenseRandModel<wiselib::iSenseOsModel>, wiselib::iSenseDebug<wiselib::iSenseOsModel> >*)
 .text._ZN7wiselib21ProtocolSettings_TypeINS_13iSenseOsModelENS_26iSenseExtendedTxRadioModelIS1_EENS_16iSenseTimerModelIS1_EENS_11iSenseDebugIS1_EEEC1EhhhhhhhhhahmhhmhhhhmmNS_20ProtocolPayload_TypeIS1_S3_S7_EE
                0x04001e98      0x124 out/isense/PLTT_passive_app.o
                0x04001e98                wiselib::ProtocolSettings_Type<wiselib::iSenseOsModel, wiselib::iSenseExtendedTxRadioModel<wiselib::iSenseOsModel>, wiselib::iSenseTimerModel<wiselib::iSenseOsModel>, wiselib::iSenseDebug<wiselib::iSenseOsModel> >::ProtocolSettings_Type(unsigned char, unsigned char, unsigned char, unsigned char, unsigned char, unsigned char, unsigned char, unsigned char, unsigned char, signed char, unsigned char, unsigned long, unsigned char, unsigned char, unsigned long, unsigned char, unsigned char, unsigned char, unsigned char, unsigned long, unsigned long, wiselib::ProtocolPayload_Type<wiselib::iSenseOsModel, wiselib::iSenseExtendedTxRadioModel<wiselib::iSenseOsModel>, wiselib::iSenseDebug<wiselib::iSenseOsModel> >)
 .text._ZN7wiselib13Protocol_TypeINS_13iSenseOsModelENS_26iSenseExtendedTxRadioModelIS1_EENS_16iSenseClockModelIS1_N6isense4TimeEEENS_16iSenseTimerModelIS1_EENS_11iSenseDebugIS1_EEE13null_callbackEhthPh
                0x04001fbc        0x8 out/isense/PLTT_passive_app.o
                0x04001fbc                wiselib::Protocol_Type<wiselib::iSenseOsModel, wiselib::iSenseExtendedTxRadioModel<wiselib::iSenseOsModel>, wiselib::iSenseClockModel<wiselib::iSenseOsModel, isense::Time>, wiselib::iSenseTimerModel<wiselib::iSenseOsModel>, wiselib::iSenseDebug<wiselib::iSenseOsModel> >::null_callback(unsigned char, unsigned short, unsigned char, unsigned char*)
 .text._ZN7wiselib21ProtocolSettings_TypeINS_13iSenseOsModelENS_26iSenseExtendedTxRadioModelIS1_EENS_16iSenseTimerModelIS1_EENS_11iSenseDebugIS1_EEEC1Ev
                0x04001fc4       0x94 out/isense/PLTT_passive_app.o
                0x04001fc4                wiselib::ProtocolSettings_Type<wiselib::iSenseOsModel, wiselib::iSenseExtendedTxRadioModel<wiselib::iSenseOsModel>, wiselib::iSenseTimerModel<wiselib::iSenseOsModel>, wiselib::iSenseDebug<wiselib::iSenseOsModel> >::ProtocolSettings_Type()
 .text._ZN7wiselib13vector_staticINS_13iSenseOsModelENS_13Neighbor_TypeIS1_NS_26iSenseExtendedTxRadioModelIS1_EENS_16iSenseClockModelIS1_N6isense4TimeEEENS_16iSenseTimerModelIS1_EENS_11iSenseDebugIS1_EEEELi25EEC1Ev
                0x04002058       0x5c out/isense/PLTT_passive_app.o
                0x04002058                wiselib::vector_static<wiselib::iSenseOsModel, wiselib::Neighbor_Type<wiselib::iSenseOsModel, wiselib::iSenseExtendedTxRadioModel<wiselib::iSenseOsModel>, wiselib::iSenseClockModel<wiselib::iSenseOsModel, isense::Time>, wiselib::iSenseTimerModel<wiselib::iSenseOsModel>, wiselib::iSenseDebug<wiselib::iSenseOsModel> >, 25>::vector_static()
 .text._ZN7wiselib13Protocol_TypeINS_13iSenseOsModelENS_26iSenseExtendedTxRadioModelIS1_EENS_16iSenseClockModelIS1_N6isense4TimeEEENS_16iSenseTimerModelIS1_EENS_11iSenseDebugIS1_EEEC1Ev
                0x040020b4       0x40 out/isense/PLTT_passive_app.o
                0x040020b4                wiselib::Protocol_Type<wiselib::iSenseOsModel, wiselib::iSenseExtendedTxRadioModel<wiselib::iSenseOsModel>, wiselib::iSenseClockModel<wiselib::iSenseOsModel, isense::Time>, wiselib::iSenseTimerModel<wiselib::iSenseOsModel>, wiselib::iSenseDebug<wiselib::iSenseOsModel> >::Protocol_Type()
 .text._ZN7wiselib13vector_staticINS_13iSenseOsModelENS_13Protocol_TypeIS1_NS_26iSenseExtendedTxRadioModelIS1_EENS_16iSenseClockModelIS1_N6isense4TimeEEENS_16iSenseTimerModelIS1_EENS_11iSenseDebugIS1_EEEELi2EEC1Ev
                0x040020f4       0x5c out/isense/PLTT_passive_app.o
                0x040020f4                wiselib::vector_static<wiselib::iSenseOsModel, wiselib::Protocol_Type<wiselib::iSenseOsModel, wiselib::iSenseExtendedTxRadioModel<wiselib::iSenseOsModel>, wiselib::iSenseClockModel<wiselib::iSenseOsModel, isense::Time>, wiselib::iSenseTimerModel<wiselib::iSenseOsModel>, wiselib::iSenseDebug<wiselib::iSenseOsModel> >, 2>::vector_static()
 .text._ZN7wiselib22NeighborDiscovery_TypeINS_13iSenseOsModelENS_26iSenseExtendedTxRadioModelIS1_EENS_16iSenseClockModelIS1_N6isense4TimeEEENS_16iSenseTimerModelIS1_EENS_15iSenseRandModelIS1_EENS_11iSenseDebugIS1_EEEC1Ev
                0x04002150       0x80 out/isense/PLTT_passive_app.o
                0x04002150                wiselib::NeighborDiscovery_Type<wiselib::iSenseOsModel, wiselib::iSenseExtendedTxRadioModel<wiselib::iSenseOsModel>, wiselib::iSenseClockModel<wiselib::iSenseOsModel, isense::Time>, wiselib::iSenseTimerModel<wiselib::iSenseOsModel>, wiselib::iSenseRandModel<wiselib::iSenseOsModel>, wiselib::iSenseDebug<wiselib::iSenseOsModel> >::NeighborDiscovery_Type()
 .text._ZN7wiselib26iSenseExtendedTxRadioModelINS_13iSenseOsModelEE4sendEthPh
                0x040021d0       0x70 out/isense/PLTT_passive_app.o
                0x040021d0                wiselib::iSenseExtendedTxRadioModel<wiselib::iSenseOsModel>::send(unsigned short, unsigned char, unsigned char*)
 .text._ZN7wiselib18ReliableRadio_TypeINS_13iSenseOsModelENS_26iSenseExtendedTxRadioModelIS1_EENS_16iSenseClockModelIS1_N6isense4TimeEEENS_16iSenseTimerModelIS1_EENS_15iSenseRandModelIS1_EENS_11iSenseDebugIS1_EEE13replies_checkEh
                0x04002240       0x60 out/isense/PLTT_passive_app.o
                0x04002240                wiselib::ReliableRadio_Type<wiselib::iSenseOsModel, wiselib::iSenseExtendedTxRadioModel<wiselib::iSenseOsModel>, wiselib::iSenseClockModel<wiselib::iSenseOsModel, isense::Time>, wiselib::iSenseTimerModel<wiselib::iSenseOsModel>, wiselib::iSenseRandModel<wiselib::iSenseOsModel>, wiselib::iSenseDebug<wiselib::iSenseOsModel> >::replies_check(unsigned char)
 .text._ZNK9delegate4IvthPhRKN7wiselib26iSenseExtendedTxRadioModelINS1_13iSenseOsModelEE12ExtendedDataEEclEthS0_S7_
                0x040022a0       0x20 out/isense/PLTT_passive_app.o
                0x040022a0                delegate4<void, unsigned short, unsigned char, unsigned char*, wiselib::iSenseExtendedTxRadioModel<wiselib::iSenseOsModel>::ExtendedData const&>::operator()(unsigned short, unsigned char, unsigned char*, wiselib::iSenseExtendedTxRadioModel<wiselib::iSenseOsModel>::ExtendedData const&) const
 .text._ZN7wiselib11Beacon_TypeINS_13iSenseOsModelENS_26iSenseExtendedTxRadioModelIS1_EENS_16iSenseClockModelIS1_N6isense4TimeEEENS_16iSenseTimerModelIS1_EENS_11iSenseDebugIS1_EEEC1Ev
                0x040022c0       0x74 out/isense/PLTT_passive_app.o
                0x040022c0                wiselib::Beacon_Type<wiselib::iSenseOsModel, wiselib::iSenseExtendedTxRadioModel<wiselib::iSenseOsModel>, wiselib::iSenseClockModel<wiselib::iSenseOsModel, isense::Time>, wiselib::iSenseTimerModel<wiselib::iSenseOsModel>, wiselib::iSenseDebug<wiselib::iSenseOsModel> >::Beacon_Type()
 .text._ZN7wiselib11Beacon_TypeINS_13iSenseOsModelENS_26iSenseExtendedTxRadioModelIS1_EENS_16iSenseClockModelIS1_N6isense4TimeEEENS_16iSenseTimerModelIS1_EENS_11iSenseDebugIS1_EEE11serial_sizeEv
                0x04002334       0x80 out/isense/PLTT_passive_app.o
                0x04002334                wiselib::Beacon_Type<wiselib::iSenseOsModel, wiselib::iSenseExtendedTxRadioModel<wiselib::iSenseOsModel>, wiselib::iSenseClockModel<wiselib::iSenseOsModel, isense::Time>, wiselib::iSenseTimerModel<wiselib::iSenseOsModel>, wiselib::iSenseDebug<wiselib::iSenseOsModel> >::serial_size()
 .text._ZN7wiselib14Position2DTypeINS_13iSenseOsModelENS_26iSenseExtendedTxRadioModelIS1_EEhNS_11iSenseDebugIS1_EEE9serializeEPhh
                0x040023b4       0x1c out/isense/PLTT_passive_app.o
                0x040023b4                wiselib::Position2DType<wiselib::iSenseOsModel, wiselib::iSenseExtendedTxRadioModel<wiselib::iSenseOsModel>, unsigned char, wiselib::iSenseDebug<wiselib::iSenseOsModel> >::serialize(unsigned char*, unsigned char)
 .text._ZN7wiselib26iSenseExtendedTxRadioModelINS_13iSenseOsModelEE17reg_recv_callbackINS_22NeighborDiscovery_TypeIS1_S2_NS_16iSenseClockModelIS1_N6isense4TimeEEENS_16iSenseTimerModelIS1_EENS_15iSenseRandModelIS1_EENS_11iSenseDebugIS1_EEEEXadL_ZNSF_7receiveEthPhRKNS2_12ExtendedDataEEEEEiPT_
                0x040023d0       0x50 out/isense/PLTT_passive_app.o
                0x040023d0                int wiselib::iSenseExtendedTxRadioModel<wiselib::iSenseOsModel>::reg_recv_callback<wiselib::NeighborDiscovery_Type<wiselib::iSenseOsModel, wiselib::iSenseExtendedTxRadioModel<wiselib::iSenseOsModel>, wiselib::iSenseClockModel<wiselib::iSenseOsModel, isense::Time>, wiselib::iSenseTimerModel<wiselib::iSenseOsModel>, wiselib::iSenseRandModel<wiselib::iSenseOsModel>, wiselib::iSenseDebug<wiselib::iSenseOsModel> >, &(wiselib::NeighborDiscovery_Type<wiselib::iSenseOsModel, wiselib::iSenseExtendedTxRadioModel<wiselib::iSenseOsModel>, wiselib::iSenseClockModel<wiselib::iSenseOsModel, isense::Time>, wiselib::iSenseTimerModel<wiselib::iSenseOsModel>, wiselib::iSenseRandModel<wiselib::iSenseOsModel>, wiselib::iSenseDebug<wiselib::iSenseOsModel> >::receive(unsigned short, unsigned char, unsigned char*, wiselib::iSenseExtendedTxRadioModel<wiselib::iSenseOsModel>::ExtendedData const&))>(wiselib::NeighborDiscovery_Type<wiselib::iSenseOsModel, wiselib::iSenseExtendedTxRadioModel<wiselib::iSenseOsModel>, wiselib::iSenseClockModel<wiselib::iSenseOsModel, isense::Time>, wiselib::iSenseTimerModel<wiselib::iSenseOsModel>, wiselib::iSenseRandModel<wiselib::iSenseOsModel>, wiselib::iSenseDebug<wiselib::iSenseOsModel> >*)
 .text._ZN7wiselib26iSenseExtendedTxRadioModelINS_13iSenseOsModelEE17reg_recv_callbackINS_16PLTT_PassiveTypeIS1_NS_8NodeTypeIS1_S2_tNS_14Position2DTypeIS1_S2_tNS_11iSenseDebugIS1_EEEES8_EENS_13PLTT_NodeTypeIS1_S2_SA_NS_19PLTT_NodeTargetTypeIS1_S2_thS8_EENS_13vector_staticIS1_SD_Li5EEENSE_IS1_NS_14PLTT_TraceTypeIS1_S2_hhhSA_tS8_EELi5EEES8_EENSE_IS1_SJ_Li25EEESH_SI_NS_20PLTT_SecureTraceTypeIS1_S2_hhhSA_tS8_EENSE_IS1_SM_Li25EEENS_14PLTT_AgentTypeIS1_S2_thS8_EENS_22NeighborDiscovery_TypeIS1_S2_NS_16iSenseClockModelIS1_N6isense4TimeEEENS_16iSenseTimerModelIS1_EENS_15iSenseRandModelIS1_EES8_EESW_S2_NS_18ReliableRadio_TypeIS1_S2_SU_SW_SY_S8_EESY_SU_S8_EEXadL_ZNS12_7receiveEthPhRKNS2_12ExtendedDataEEEEEiPT_
                0x04002420       0x50 out/isense/PLTT_passive_app.o
                0x04002420                int wiselib::iSenseExtendedTxRadioModel<wiselib::iSenseOsModel>::reg_recv_callback<wiselib::PLTT_PassiveType<wiselib::iSenseOsModel, wiselib::NodeType<wiselib::iSenseOsModel, wiselib::iSenseExtendedTxRadioModel<wiselib::iSenseOsModel>, unsigned short, wiselib::Position2DType<wiselib::iSenseOsModel, wiselib::iSenseExtendedTxRadioModel<wiselib::iSenseOsModel>, unsigned short, wiselib::iSenseDebug<wiselib::iSenseOsModel> >, wiselib::iSenseDebug<wiselib::iSenseOsModel> >, wiselib::PLTT_NodeType<wiselib::iSenseOsModel, wiselib::iSenseExtendedTxRadioModel<wiselib::iSenseOsModel>, wiselib::NodeType<wiselib::iSenseOsModel, wiselib::iSenseExtendedTxRadioModel<wiselib::iSenseOsModel>, unsigned short, wiselib::Position2DType<wiselib::iSenseOsModel, wiselib::iSenseExtendedTxRadioModel<wiselib::iSenseOsModel>, unsigned short, wiselib::iSenseDebug<wiselib::iSenseOsModel> >, wiselib::iSenseDebug<wiselib::iSenseOsModel> >, wiselib::PLTT_NodeTargetType<wiselib::iSenseOsModel, wiselib::iSenseExtendedTxRadioModel<wiselib::iSenseOsModel>, unsigned short, unsigned char, wiselib::iSenseDebug<wiselib::iSenseOsModel> >, wiselib::vector_static<wiselib::iSenseOsModel, wiselib::PLTT_NodeTargetType<wiselib::iSenseOsModel, wiselib::iSenseExtendedTxRadioModel<wiselib::iSenseOsModel>, unsigned short, unsigned char, wiselib::iSenseDebug<wiselib::iSenseOsModel> >, 5>, wiselib::vector_static<wiselib::iSenseOsModel, wiselib::PLTT_TraceType<wiselib::iSenseOsModel, wiselib::iSenseExtendedTxRadioModel<wiselib::iSenseOsModel>, unsigned char, unsigned char, unsigned char, wiselib::NodeType<wiselib::iSenseOsModel, wiselib::iSenseExtendedTxRadioModel<wiselib::iSenseOsModel>, unsigned short, wiselib::Position2DType<wiselib::iSenseOsModel, wiselib::iSenseExtendedTxRadioModel<wiselib::iSenseOsModel>, unsigned short, wiselib::iSenseDebug<wiselib::iSenseOsModel> >, wiselib::iSenseDebug<wiselib::iSenseOsModel> >, unsigned short, wiselib::iSenseDebug<wiselib::iSenseOsModel> >, 5>, wiselib::iSenseDebug<wiselib::iSenseOsModel> >, wiselib::vector_static<wiselib::iSenseOsModel, wiselib::PLTT_NodeType<wiselib::iSenseOsModel, wiselib::iSenseExtendedTxRadioModel<wiselib::iSenseOsModel>, wiselib::NodeType<wiselib::iSenseOsModel, wiselib::iSenseExtendedTxRadioModel<wiselib::iSenseOsModel>, unsigned short, wiselib::Position2DType<wiselib::iSenseOsModel, wiselib::iSenseExtendedTxRadioModel<wiselib::iSenseOsModel>, unsigned short, wiselib::iSenseDebug<wiselib::iSenseOsModel> >, wiselib::iSenseDebug<wiselib::iSenseOsModel> >, wiselib::PLTT_NodeTargetType<wiselib::iSenseOsModel, wiselib::iSenseExtendedTxRadioModel<wiselib::iSenseOsModel>, unsigned short, unsigned char, wiselib::iSenseDebug<wiselib::iSenseOsModel> >, wiselib::vector_static<wiselib::iSenseOsModel, wiselib::PLTT_NodeTargetType<wiselib::iSenseOsModel, wiselib::iSenseExtendedTxRadioModel<wiselib::iSenseOsModel>, unsigned short, unsigned char, wiselib::iSenseDebug<wiselib::iSenseOsModel> >, 5>, wiselib::vector_static<wiselib::iSenseOsModel, wiselib::PLTT_TraceType<wiselib::iSenseOsModel, wiselib::iSenseExtendedTxRadioModel<wiselib::iSenseOsModel>, unsigned char, unsigned char, unsigned char, wiselib::NodeType<wiselib::iSenseOsModel, wiselib::iSenseExtendedTxRadioModel<wiselib::iSenseOsModel>, unsigned short, wiselib::Position2DType<wiselib::iSenseOsModel, wiselib::iSenseExtendedTxRadioModel<wiselib::iSenseOsModel>, unsigned short, wiselib::iSenseDebug<wiselib::iSenseOsModel> >, wiselib::iSenseDebug<wiselib::iSenseOsModel> >, unsigned short, wiselib::iSenseDebug<wiselib::iSenseOsModel> >, 5>, wiselib::iSenseDebug<wiselib::iSenseOsModel> >, 25>, wiselib::PLTT_TraceType<wiselib::iSenseOsModel, wiselib::iSenseExtendedTxRadioModel<wiselib::iSenseOsModel>, unsigned char, unsigned char, unsigned char, wiselib::NodeType<wiselib::iSenseOsModel, wiselib::iSenseExtendedTxRadioModel<wiselib::iSenseOsModel>, unsigned short, wiselib::Position2DType<wiselib::iSenseOsModel, wiselib::iSenseExtendedTxRadioModel<wiselib::iSenseOsModel>, unsigned short, wiselib::iSenseDebug<wiselib::iSenseOsModel> >, wiselib::iSenseDebug<wiselib::iSenseOsModel> >, unsigned short, wiselib::iSenseDebug<wiselib::iSenseOsModel> >, wiselib::vector_static<wiselib::iSenseOsModel, wiselib::PLTT_TraceType<wiselib::iSenseOsModel, wiselib::iSenseExtendedTxRadioModel<wiselib::iSenseOsModel>, unsigned char, unsigned char, unsigned char, wiselib::NodeType<wiselib::iSenseOsModel, wiselib::iSenseExtendedTxRadioModel<wiselib::iSenseOsModel>, unsigned short, wiselib::Position2DType<wiselib::iSenseOsModel, wiselib::iSenseExtendedTxRadioModel<wiselib::iSenseOsModel>, unsigned short, wiselib::iSenseDebug<wiselib::iSenseOsModel> >, wiselib::iSenseDebug<wiselib::iSenseOsModel> >, unsigned short, wiselib::iSenseDebug<wiselib::iSenseOsModel> >, 5>, wiselib::PLTT_SecureTraceType<wiselib::iSenseOsModel, wiselib::iSenseExtendedTxRadioModel<wiselib::iSenseOsModel>, unsigned char, unsigned char, unsigned char, wiselib::NodeType<wiselib::iSenseOsModel, wiselib::iSenseExtendedTxRadioModel<wiselib::iSenseOsModel>, unsigned short, wiselib::Position2DType<wiselib::iSenseOsModel, wiselib::iSenseExtendedTxRadioModel<wiselib::iSenseOsModel>, unsigned short, wiselib::iSenseDebug<wiselib::iSenseOsModel> >, wiselib::iSenseDebug<wiselib::iSenseOsModel> >, unsigned short, wiselib::iSenseDebug<wiselib::iSenseOsModel> >, wiselib::vector_static<wiselib::iSenseOsModel, wiselib::PLTT_SecureTraceType<wiselib::iSenseOsModel, wiselib::iSenseExtendedTxRadioModel<wiselib::iSenseOsModel>, unsigned char, unsigned char, unsigned char, wiselib::NodeType<wiselib::iSenseOsModel, wiselib::iSenseExtendedTxRadioModel<wiselib::iSenseOsModel>, unsigned short, wiselib::Position2DType<wiselib::iSenseOsModel, wiselib::iSenseExtendedTxRadioModel<wiselib::iSenseOsModel>, unsigned short, wiselib::iSenseDebug<wiselib::iSenseOsModel> >, wiselib::iSenseDebug<wiselib::iSenseOsModel> >, unsigned short, wiselib::iSenseDebug<wiselib::iSenseOsModel> >, 25>, wiselib::PLTT_AgentType<wiselib::iSenseOsModel, wiselib::iSenseExtendedTxRadioModel<wiselib::iSenseOsModel>, unsigned short, unsigned char, wiselib::iSenseDebug<wiselib::iSenseOsModel> >, wiselib::NeighborDiscovery_Type<wiselib::iSenseOsModel, wiselib::iSenseExtendedTxRadioModel<wiselib::iSenseOsModel>, wiselib::iSenseClockModel<wiselib::iSenseOsModel, isense::Time>, wiselib::iSenseTimerModel<wiselib::iSenseOsModel>, wiselib::iSenseRandModel<wiselib::iSenseOsModel>, wiselib::iSenseDebug<wiselib::iSenseOsModel> >, wiselib::iSenseTimerModel<wiselib::iSenseOsModel>, wiselib::iSenseExtendedTxRadioModel<wiselib::iSenseOsModel>, wiselib::ReliableRadio_Type<wiselib::iSenseOsModel, wiselib::iSenseExtendedTxRadioModel<wiselib::iSenseOsModel>, wiselib::iSenseClockModel<wiselib::iSenseOsModel, isense::Time>, wiselib::iSenseTimerModel<wiselib::iSenseOsModel>, wiselib::iSenseRandModel<wiselib::iSenseOsModel>, wiselib::iSenseDebug<wiselib::iSenseOsModel> >, wiselib::iSenseRandModel<wiselib::iSenseOsModel>, wiselib::iSenseClockModel<wiselib::iSenseOsModel, isense::Time>, wiselib::iSenseDebug<wiselib::iSenseOsModel> >, &(wiselib::PLTT_PassiveType<wiselib::iSenseOsModel, wiselib::NodeType<wiselib::iSenseOsModel, wiselib::iSenseExtendedTxRadioModel<wiselib::iSenseOsModel>, unsigned short, wiselib::Position2DType<wiselib::iSenseOsModel, wiselib::iSenseExtendedTxRadioModel<wiselib::iSenseOsModel>, unsigned short, wiselib::iSenseDebug<wiselib::iSenseOsModel> >, wiselib::iSenseDebug<wiselib::iSenseOsModel> >, wiselib::PLTT_NodeType<wiselib::iSenseOsModel, wiselib::iSenseExtendedTxRadioModel<wiselib::iSenseOsModel>, wiselib::NodeType<wiselib::iSenseOsModel, wiselib::iSenseExtendedTxRadioModel<wiselib::iSenseOsModel>, unsigned short, wiselib::Position2DType<wiselib::iSenseOsModel, wiselib::iSenseExtendedTxRadioModel<wiselib::iSenseOsModel>, unsigned short, wiselib::iSenseDebug<wiselib::iSenseOsModel> >, wiselib::iSenseDebug<wiselib::iSenseOsModel> >, wiselib::PLTT_NodeTargetType<wiselib::iSenseOsModel, wiselib::iSenseExtendedTxRadioModel<wiselib::iSenseOsModel>, unsigned short, unsigned char, wiselib::iSenseDebug<wiselib::iSenseOsModel> >, wiselib::vector_static<wiselib::iSenseOsModel, wiselib::PLTT_NodeTargetType<wiselib::iSenseOsModel, wiselib::iSenseExtendedTxRadioModel<wiselib::iSenseOsModel>, unsigned short, unsigned char, wiselib::iSenseDebug<wiselib::iSenseOsModel> >, 5>, wiselib::vector_static<wiselib::iSenseOsModel, wiselib::PLTT_TraceType<wiselib::iSenseOsModel, wiselib::iSenseExtendedTxRadioModel<wiselib::iSenseOsModel>, unsigned char, unsigned char, unsigned char, wiselib::NodeType<wiselib::iSenseOsModel, wiselib::iSenseExtendedTxRadioModel<wiselib::iSenseOsModel>, unsigned short, wiselib::Position2DType<wiselib::iSenseOsModel, wiselib::iSenseExtendedTxRadioModel<wiselib::iSenseOsModel>, unsigned short, wiselib::iSenseDebug<wiselib::iSenseOsModel> >, wiselib::iSenseDebug<wiselib::iSenseOsModel> >, unsigned short, wiselib::iSenseDebug<wiselib::iSenseOsModel> >, 5>, wiselib::iSenseDebug<wiselib::iSenseOsModel> >, wiselib::vector_static<wiselib::iSenseOsModel, wiselib::PLTT_NodeType<wiselib::iSenseOsModel, wiselib::iSenseExtendedTxRadioModel<wiselib::iSenseOsModel>, wiselib::NodeType<wiselib::iSenseOsModel, wiselib::iSenseExtendedTxRadioModel<wiselib::iSenseOsModel>, unsigned short, wiselib::Position2DType<wiselib::iSenseOsModel, wiselib::iSenseExtendedTxRadioModel<wiselib::iSenseOsModel>, unsigned short, wiselib::iSenseDebug<wiselib::iSenseOsModel> >, wiselib::iSenseDebug<wiselib::iSenseOsModel> >, wiselib::PLTT_NodeTargetType<wiselib::iSenseOsModel, wiselib::iSenseExtendedTxRadioModel<wiselib::iSenseOsModel>, unsigned short, unsigned char, wiselib::iSenseDebug<wiselib::iSenseOsModel> >, wiselib::vector_static<wiselib::iSenseOsModel, wiselib::PLTT_NodeTargetType<wiselib::iSenseOsModel, wiselib::iSenseExtendedTxRadioModel<wiselib::iSenseOsModel>, unsigned short, unsigned char, wiselib::iSenseDebug<wiselib::iSenseOsModel> >, 5>, wiselib::vector_static<wiselib::iSenseOsModel, wiselib::PLTT_TraceType<wiselib::iSenseOsModel, wiselib::iSenseExtendedTxRadioModel<wiselib::iSenseOsModel>, unsigned char, unsigned char, unsigned char, wiselib::NodeType<wiselib::iSenseOsModel, wiselib::iSenseExtendedTxRadioModel<wiselib::iSenseOsModel>, unsigned short, wiselib::Position2DType<wiselib::iSenseOsModel, wiselib::iSenseExtendedTxRadioModel<wiselib::iSenseOsModel>, unsigned short, wiselib::iSenseDebug<wiselib::iSenseOsModel> >, wiselib::iSenseDebug<wiselib::iSenseOsModel> >, unsigned short, wiselib::iSenseDebug<wiselib::iSenseOsModel> >, 5>, wiselib::iSenseDebug<wiselib::iSenseOsModel> >, 25>, wiselib::PLTT_TraceType<wiselib::iSenseOsModel, wiselib::iSenseExtendedTxRadioModel<wiselib::iSenseOsModel>, unsigned char, unsigned char, unsigned char, wiselib::NodeType<wiselib::iSenseOsModel, wiselib::iSenseExtendedTxRadioModel<wiselib::iSenseOsModel>, unsigned short, wiselib::Position2DType<wiselib::iSenseOsModel, wiselib::iSenseExtendedTxRadioModel<wiselib::iSenseOsModel>, unsigned short, wiselib::iSenseDebug<wiselib::iSenseOsModel> >, wiselib::iSenseDebug<wiselib::iSenseOsModel> >, unsigned short, wiselib::iSenseDebug<wiselib::iSenseOsModel> >, wiselib::vector_static<wiselib::iSenseOsModel, wiselib::PLTT_TraceType<wiselib::iSenseOsModel, wiselib::iSenseExtendedTxRadioModel<wiselib::iSenseOsModel>, unsigned char, unsigned char, unsigned char, wiselib::NodeType<wiselib::iSenseOsModel, wiselib::iSenseExtendedTxRadioModel<wiselib::iSenseOsModel>, unsigned short, wiselib::Position2DType<wiselib::iSenseOsModel, wiselib::iSenseExtendedTxRadioModel<wiselib::iSenseOsModel>, unsigned short, wiselib::iSenseDebug<wiselib::iSenseOsModel> >, wiselib::iSenseDebug<wiselib::iSenseOsModel> >, unsigned short, wiselib::iSenseDebug<wiselib::iSenseOsModel> >, 5>, wiselib::PLTT_SecureTraceType<wiselib::iSenseOsModel, wiselib::iSenseExtendedTxRadioModel<wiselib::iSenseOsModel>, unsigned char, unsigned char, unsigned char, wiselib::NodeType<wiselib::iSenseOsModel, wiselib::iSenseExtendedTxRadioModel<wiselib::iSenseOsModel>, unsigned short, wiselib::Position2DType<wiselib::iSenseOsModel, wiselib::iSenseExtendedTxRadioModel<wiselib::iSenseOsModel>, unsigned short, wiselib::iSenseDebug<wiselib::iSenseOsModel> >, wiselib::iSenseDebug<wiselib::iSenseOsModel> >, unsigned short, wiselib::iSenseDebug<wiselib::iSenseOsModel> >, wiselib::vector_static<wiselib::iSenseOsModel, wiselib::PLTT_SecureTraceType<wiselib::iSenseOsModel, wiselib::iSenseExtendedTxRadioModel<wiselib::iSenseOsModel>, unsigned char, unsigned char, unsigned char, wiselib::NodeType<wiselib::iSenseOsModel, wiselib::iSenseExtendedTxRadioModel<wiselib::iSenseOsModel>, unsigned short, wiselib::Position2DType<wiselib::iSenseOsModel, wiselib::iSenseExtendedTxRadioModel<wiselib::iSenseOsModel>, unsigned short, wiselib::iSenseDebug<wiselib::iSenseOsModel> >, wiselib::iSenseDebug<wiselib::iSenseOsModel> >, unsigned short, wiselib::iSenseDebug<wiselib::iSenseOsModel> >, 25>, wiselib::PLTT_AgentType<wiselib::iSenseOsModel, wiselib::iSenseExtendedTxRadioModel<wiselib::iSenseOsModel>, unsigned short, unsigned char, wiselib::iSenseDebug<wiselib::iSenseOsModel> >, wiselib::NeighborDiscovery_Type<wiselib::iSenseOsModel, wiselib::iSenseExtendedTxRadioModel<wiselib::iSenseOsModel>, wiselib::iSenseClockModel<wiselib::iSenseOsModel, isense::Time>, wiselib::iSenseTimerModel<wiselib::iSenseOsModel>, wiselib::iSenseRandModel<wiselib::iSenseOsModel>, wiselib::iSenseDebug<wiselib::iSenseOsModel> >, wiselib::iSenseTimerModel<wiselib::iSenseOsModel>, wiselib::iSenseExtendedTxRadioModel<wiselib::iSenseOsModel>, wiselib::ReliableRadio_Type<wiselib::iSenseOsModel, wiselib::iSenseExtendedTxRadioModel<wiselib::iSenseOsModel>, wiselib::iSenseClockModel<wiselib::iSenseOsModel, isense::Time>, wiselib::iSenseTimerModel<wiselib::iSenseOsModel>, wiselib::iSenseRandModel<wiselib::iSenseOsModel>, wiselib::iSenseDebug<wiselib::iSenseOsModel> >, wiselib::iSenseRandModel<wiselib::iSenseOsModel>, wiselib::iSenseClockModel<wiselib::iSenseOsModel, isense::Time>, wiselib::iSenseDebug<wiselib::iSenseOsModel> >::receive(unsigned short, unsigned char, unsigned char*, wiselib::iSenseExtendedTxRadioModel<wiselib::iSenseOsModel>::ExtendedData const&))>(wiselib::PLTT_PassiveType<wiselib::iSenseOsModel, wiselib::NodeType<wiselib::iSenseOsModel, wiselib::iSenseExtendedTxRadioModel<wiselib::iSenseOsModel>, unsigned short, wiselib::Position2DType<wiselib::iSenseOsModel, wiselib::iSenseExtendedTxRadioModel<wiselib::iSenseOsModel>, unsigned short, wiselib::iSenseDebug<wiselib::iSenseOsModel> >, wiselib::iSenseDebug<wiselib::iSenseOsModel> >, wiselib::PLTT_NodeType<wiselib::iSenseOsModel, wiselib::iSenseExtendedTxRadioModel<wiselib::iSenseOsModel>, wiselib::NodeType<wiselib::iSenseOsModel, wiselib::iSenseExtendedTxRadioModel<wiselib::iSenseOsModel>, unsigned short, wiselib::Position2DType<wiselib::iSenseOsModel, wiselib::iSenseExtendedTxRadioModel<wiselib::iSenseOsModel>, unsigned short, wiselib::iSenseDebug<wiselib::iSenseOsModel> >, wiselib::iSenseDebug<wiselib::iSenseOsModel> >, wiselib::PLTT_NodeTargetType<wiselib::iSenseOsModel, wiselib::iSenseExtendedTxRadioModel<wiselib::iSenseOsModel>, unsigned short, unsigned char, wiselib::iSenseDebug<wiselib::iSenseOsModel> >, wiselib::vector_static<wiselib::iSenseOsModel, wiselib::PLTT_NodeTargetType<wiselib::iSenseOsModel, wiselib::iSenseExtendedTxRadioModel<wiselib::iSenseOsModel>, unsigned short, unsigned char, wiselib::iSenseDebug<wiselib::iSenseOsModel> >, 5>, wiselib::vector_static<wiselib::iSenseOsModel, wiselib::PLTT_TraceType<wiselib::iSenseOsModel, wiselib::iSenseExtendedTxRadioModel<wiselib::iSenseOsModel>, unsigned char, unsigned char, unsigned char, wiselib::NodeType<wiselib::iSenseOsModel, wiselib::iSenseExtendedTxRadioModel<wiselib::iSenseOsModel>, unsigned short, wiselib::Position2DType<wiselib::iSenseOsModel, wiselib::iSenseExtendedTxRadioModel<wiselib::iSenseOsModel>, unsigned short, wiselib::iSenseDebug<wiselib::iSenseOsModel> >, wiselib::iSenseDebug<wiselib::iSenseOsModel> >, unsigned short, wiselib::iSenseDebug<wiselib::iSenseOsModel> >, 5>, wiselib::iSenseDebug<wiselib::iSenseOsModel> >, wiselib::vector_static<wiselib::iSenseOsModel, wiselib::PLTT_NodeType<wiselib::iSenseOsModel, wiselib::iSenseExtendedTxRadioModel<wiselib::iSenseOsModel>, wiselib::NodeType<wiselib::iSenseOsModel, wiselib::iSenseExtendedTxRadioModel<wiselib::iSenseOsModel>, unsigned short, wiselib::Position2DType<wiselib::iSenseOsModel, wiselib::iSenseExtendedTxRadioModel<wiselib::iSenseOsModel>, unsigned short, wiselib::iSenseDebug<wiselib::iSenseOsModel> >, wiselib::iSenseDebug<wiselib::iSenseOsModel> >, wiselib::PLTT_NodeTargetType<wiselib::iSenseOsModel, wiselib::iSenseExtendedTxRadioModel<wiselib::iSenseOsModel>, unsigned short, unsigned char, wiselib::iSenseDebug<wiselib::iSenseOsModel> >, wiselib::vector_static<wiselib::iSenseOsModel, wiselib::PLTT_NodeTargetType<wiselib::iSenseOsModel, wiselib::iSenseExtendedTxRadioModel<wiselib::iSenseOsModel>, unsigned short, unsigned char, wiselib::iSenseDebug<wiselib::iSenseOsModel> >, 5>, wiselib::vector_static<wiselib::iSenseOsModel, wiselib::PLTT_TraceType<wiselib::iSenseOsModel, wiselib::iSenseExtendedTxRadioModel<wiselib::iSenseOsModel>, unsigned char, unsigned char, unsigned char, wiselib::NodeType<wiselib::iSenseOsModel, wiselib::iSenseExtendedTxRadioModel<wiselib::iSenseOsModel>, unsigned short, wiselib::Position2DType<wiselib::iSenseOsModel, wiselib::iSenseExtendedTxRadioModel<wiselib::iSenseOsModel>, unsigned short, wiselib::iSenseDebug<wiselib::iSenseOsModel> >, wiselib::iSenseDebug<wiselib::iSenseOsModel> >, unsigned short, wiselib::iSenseDebug<wiselib::iSenseOsModel> >, 5>, wiselib::iSenseDebug<wiselib::iSenseOsModel> >, 25>, wiselib::PLTT_TraceType<wiselib::iSenseOsModel, wiselib::iSenseExtendedTxRadioModel<wiselib::iSenseOsModel>, unsigned char, unsigned char, unsigned char, wiselib::NodeType<wiselib::iSenseOsModel, wiselib::iSenseExtendedTxRadioModel<wiselib::iSenseOsModel>, unsigned short, wiselib::Position2DType<wiselib::iSenseOsModel, wiselib::iSenseExtendedTxRadioModel<wiselib::iSenseOsModel>, unsigned short, wiselib::iSenseDebug<wiselib::iSenseOsModel> >, wiselib::iSenseDebug<wiselib::iSenseOsModel> >, unsigned short, wiselib::iSenseDebug<wiselib::iSenseOsModel> >, wiselib::vector_static<wiselib::iSenseOsModel, wiselib::PLTT_TraceType<wiselib::iSenseOsModel, wiselib::iSenseExtendedTxRadioModel<wiselib::iSenseOsModel>, unsigned char, unsigned char, unsigned char, wiselib::NodeType<wiselib::iSenseOsModel, wiselib::iSenseExtendedTxRadioModel<wiselib::iSenseOsModel>, unsigned short, wiselib::Position2DType<wiselib::iSenseOsModel, wiselib::iSenseExtendedTxRadioModel<wiselib::iSenseOsModel>, unsigned short, wiselib::iSenseDebug<wiselib::iSenseOsModel> >, wiselib::iSenseDebug<wiselib::iSenseOsModel> >, unsigned short, wiselib::iSenseDebug<wiselib::iSenseOsModel> >, 5>, wiselib::PLTT_SecureTraceType<wiselib::iSenseOsModel, wiselib::iSenseExtendedTxRadioModel<wiselib::iSenseOsModel>, unsigned char, unsigned char, unsigned char, wiselib::NodeType<wiselib::iSenseOsModel, wiselib::iSenseExtendedTxRadioModel<wiselib::iSenseOsModel>, unsigned short, wiselib::Position2DType<wiselib::iSenseOsModel, wiselib::iSenseExtendedTxRadioModel<wiselib::iSenseOsModel>, unsigned short, wiselib::iSenseDebug<wiselib::iSenseOsModel> >, wiselib::iSenseDebug<wiselib::iSenseOsModel> >, unsigned short, wiselib::iSenseDebug<wiselib::iSenseOsModel> >, wiselib::vector_static<wiselib::iSenseOsModel, wiselib::PLTT_SecureTraceType<wiselib::iSenseOsModel, wiselib::iSenseExtendedTxRadioModel<wiselib::iSenseOsModel>, unsigned char, unsigned char, unsigned char, wiselib::NodeType<wiselib::iSenseOsModel, wiselib::iSenseExtendedTxRadioModel<wiselib::iSenseOsModel>, unsigned short, wiselib::Position2DType<wiselib::iSenseOsModel, wiselib::iSenseExtendedTxRadioModel<wiselib::iSenseOsModel>, unsigned short, wiselib::iSenseDebug<wiselib::iSenseOsModel> >, wiselib::iSenseDebug<wiselib::iSenseOsModel> >, unsigned short, wiselib::iSenseDebug<wiselib::iSenseOsModel> >, 25>, wiselib::PLTT_AgentType<wiselib::iSenseOsModel, wiselib::iSenseExtendedTxRadioModel<wiselib::iSenseOsModel>, unsigned short, unsigned char, wiselib::iSenseDebug<wiselib::iSenseOsModel> >, wiselib::NeighborDiscovery_Type<wiselib::iSenseOsModel, wiselib::iSenseExtendedTxRadioModel<wiselib::iSenseOsModel>, wiselib::iSenseClockModel<wiselib::iSenseOsModel, isense::Time>, wiselib::iSenseTimerModel<wiselib::iSenseOsModel>, wiselib::iSenseRandModel<wiselib::iSenseOsModel>, wiselib::iSenseDebug<wiselib::iSenseOsModel> >, wiselib::iSenseTimerModel<wiselib::iSenseOsModel>, wiselib::iSenseExtendedTxRadioModel<wiselib::iSenseOsModel>, wiselib::ReliableRadio_Type<wiselib::iSenseOsModel, wiselib::iSenseExtendedTxRadioModel<wiselib::iSenseOsModel>, wiselib::iSenseClockModel<wiselib::iSenseOsModel, isense::Time>, wiselib::iSenseTimerModel<wiselib::iSenseOsModel>, wiselib::iSenseRandModel<wiselib::iSenseOsModel>, wiselib::iSenseDebug<wiselib::iSenseOsModel> >, wiselib::iSenseRandModel<wiselib::iSenseOsModel>, wiselib::iSenseClockModel<wiselib::iSenseOsModel, isense::Time>, wiselib::iSenseDebug<wiselib::iSenseOsModel> >*)
 .text._ZN7wiselib18ReliableRadio_TypeINS_13iSenseOsModelENS_26iSenseExtendedTxRadioModelIS1_EENS_16iSenseClockModelIS1_N6isense4TimeEEENS_16iSenseTimerModelIS1_EENS_15iSenseRandModelIS1_EENS_11iSenseDebugIS1_EEE17reg_recv_callbackINS_16PLTT_PassiveTypeIS1_NS_8NodeTypeIS1_S3_tNS_14Position2DTypeIS1_S3_tSD_EESD_EENS_13PLTT_NodeTypeIS1_S3_SK_NS_19PLTT_NodeTargetTypeIS1_S3_thSD_EENS_13vector_staticIS1_SN_Li5EEENSO_IS1_NS_14PLTT_TraceTypeIS1_S3_hhhSK_tSD_EELi5EEESD_EENSO_IS1_ST_Li25EEESR_SS_NS_20PLTT_SecureTraceTypeIS1_S3_hhhSK_tSD_EENSO_IS1_SW_Li25EEENS_14PLTT_AgentTypeIS1_S3_thSD_EENS_22NeighborDiscovery_TypeIS1_S3_S7_S9_SB_SD_EES9_S3_SE_SB_S7_SD_EEXadL_ZNS12_7receiveEthPhRKNS3_12ExtendedDataEEEEEmPT_
                0x04002470       0x5c out/isense/PLTT_passive_app.o
                0x04002470                unsigned long wiselib::ReliableRadio_Type<wiselib::iSenseOsModel, wiselib::iSenseExtendedTxRadioModel<wiselib::iSenseOsModel>, wiselib::iSenseClockModel<wiselib::iSenseOsModel, isense::Time>, wiselib::iSenseTimerModel<wiselib::iSenseOsModel>, wiselib::iSenseRandModel<wiselib::iSenseOsModel>, wiselib::iSenseDebug<wiselib::iSenseOsModel> >::reg_recv_callback<wiselib::PLTT_PassiveType<wiselib::iSenseOsModel, wiselib::NodeType<wiselib::iSenseOsModel, wiselib::iSenseExtendedTxRadioModel<wiselib::iSenseOsModel>, unsigned short, wiselib::Position2DType<wiselib::iSenseOsModel, wiselib::iSenseExtendedTxRadioModel<wiselib::iSenseOsModel>, unsigned short, wiselib::iSenseDebug<wiselib::iSenseOsModel> >, wiselib::iSenseDebug<wiselib::iSenseOsModel> >, wiselib::PLTT_NodeType<wiselib::iSenseOsModel, wiselib::iSenseExtendedTxRadioModel<wiselib::iSenseOsModel>, wiselib::NodeType<wiselib::iSenseOsModel, wiselib::iSenseExtendedTxRadioModel<wiselib::iSenseOsModel>, unsigned short, wiselib::Position2DType<wiselib::iSenseOsModel, wiselib::iSenseExtendedTxRadioModel<wiselib::iSenseOsModel>, unsigned short, wiselib::iSenseDebug<wiselib::iSenseOsModel> >, wiselib::iSenseDebug<wiselib::iSenseOsModel> >, wiselib::PLTT_NodeTargetType<wiselib::iSenseOsModel, wiselib::iSenseExtendedTxRadioModel<wiselib::iSenseOsModel>, unsigned short, unsigned char, wiselib::iSenseDebug<wiselib::iSenseOsModel> >, wiselib::vector_static<wiselib::iSenseOsModel, wiselib::PLTT_NodeTargetType<wiselib::iSenseOsModel, wiselib::iSenseExtendedTxRadioModel<wiselib::iSenseOsModel>, unsigned short, unsigned char, wiselib::iSenseDebug<wiselib::iSenseOsModel> >, 5>, wiselib::vector_static<wiselib::iSenseOsModel, wiselib::PLTT_TraceType<wiselib::iSenseOsModel, wiselib::iSenseExtendedTxRadioModel<wiselib::iSenseOsModel>, unsigned char, unsigned char, unsigned char, wiselib::NodeType<wiselib::iSenseOsModel, wiselib::iSenseExtendedTxRadioModel<wiselib::iSenseOsModel>, unsigned short, wiselib::Position2DType<wiselib::iSenseOsModel, wiselib::iSenseExtendedTxRadioModel<wiselib::iSenseOsModel>, unsigned short, wiselib::iSenseDebug<wiselib::iSenseOsModel> >, wiselib::iSenseDebug<wiselib::iSenseOsModel> >, unsigned short, wiselib::iSenseDebug<wiselib::iSenseOsModel> >, 5>, wiselib::iSenseDebug<wiselib::iSenseOsModel> >, wiselib::vector_static<wiselib::iSenseOsModel, wiselib::PLTT_NodeType<wiselib::iSenseOsModel, wiselib::iSenseExtendedTxRadioModel<wiselib::iSenseOsModel>, wiselib::NodeType<wiselib::iSenseOsModel, wiselib::iSenseExtendedTxRadioModel<wiselib::iSenseOsModel>, unsigned short, wiselib::Position2DType<wiselib::iSenseOsModel, wiselib::iSenseExtendedTxRadioModel<wiselib::iSenseOsModel>, unsigned short, wiselib::iSenseDebug<wiselib::iSenseOsModel> >, wiselib::iSenseDebug<wiselib::iSenseOsModel> >, wiselib::PLTT_NodeTargetType<wiselib::iSenseOsModel, wiselib::iSenseExtendedTxRadioModel<wiselib::iSenseOsModel>, unsigned short, unsigned char, wiselib::iSenseDebug<wiselib::iSenseOsModel> >, wiselib::vector_static<wiselib::iSenseOsModel, wiselib::PLTT_NodeTargetType<wiselib::iSenseOsModel, wiselib::iSenseExtendedTxRadioModel<wiselib::iSenseOsModel>, unsigned short, unsigned char, wiselib::iSenseDebug<wiselib::iSenseOsModel> >, 5>, wiselib::vector_static<wiselib::iSenseOsModel, wiselib::PLTT_TraceType<wiselib::iSenseOsModel, wiselib::iSenseExtendedTxRadioModel<wiselib::iSenseOsModel>, unsigned char, unsigned char, unsigned char, wiselib::NodeType<wiselib::iSenseOsModel, wiselib::iSenseExtendedTxRadioModel<wiselib::iSenseOsModel>, unsigned short, wiselib::Position2DType<wiselib::iSenseOsModel, wiselib::iSenseExtendedTxRadioModel<wiselib::iSenseOsModel>, unsigned short, wiselib::iSenseDebug<wiselib::iSenseOsModel> >, wiselib::iSenseDebug<wiselib::iSenseOsModel> >, unsigned short, wiselib::iSenseDebug<wiselib::iSenseOsModel> >, 5>, wiselib::iSenseDebug<wiselib::iSenseOsModel> >, 25>, wiselib::PLTT_TraceType<wiselib::iSenseOsModel, wiselib::iSenseExtendedTxRadioModel<wiselib::iSenseOsModel>, unsigned char, unsigned char, unsigned char, wiselib::NodeType<wiselib::iSenseOsModel, wiselib::iSenseExtendedTxRadioModel<wiselib::iSenseOsModel>, unsigned short, wiselib::Position2DType<wiselib::iSenseOsModel, wiselib::iSenseExtendedTxRadioModel<wiselib::iSenseOsModel>, unsigned short, wiselib::iSenseDebug<wiselib::iSenseOsModel> >, wiselib::iSenseDebug<wiselib::iSenseOsModel> >, unsigned short, wiselib::iSenseDebug<wiselib::iSenseOsModel> >, wiselib::vector_static<wiselib::iSenseOsModel, wiselib::PLTT_TraceType<wiselib::iSenseOsModel, wiselib::iSenseExtendedTxRadioModel<wiselib::iSenseOsModel>, unsigned char, unsigned char, unsigned char, wiselib::NodeType<wiselib::iSenseOsModel, wiselib::iSenseExtendedTxRadioModel<wiselib::iSenseOsModel>, unsigned short, wiselib::Position2DType<wiselib::iSenseOsModel, wiselib::iSenseExtendedTxRadioModel<wiselib::iSenseOsModel>, unsigned short, wiselib::iSenseDebug<wiselib::iSenseOsModel> >, wiselib::iSenseDebug<wiselib::iSenseOsModel> >, unsigned short, wiselib::iSenseDebug<wiselib::iSenseOsModel> >, 5>, wiselib::PLTT_SecureTraceType<wiselib::iSenseOsModel, wiselib::iSenseExtendedTxRadioModel<wiselib::iSenseOsModel>, unsigned char, unsigned char, unsigned char, wiselib::NodeType<wiselib::iSenseOsModel, wiselib::iSenseExtendedTxRadioModel<wiselib::iSenseOsModel>, unsigned short, wiselib::Position2DType<wiselib::iSenseOsModel, wiselib::iSenseExtendedTxRadioModel<wiselib::iSenseOsModel>, unsigned short, wiselib::iSenseDebug<wiselib::iSenseOsModel> >, wiselib::iSenseDebug<wiselib::iSenseOsModel> >, unsigned short, wiselib::iSenseDebug<wiselib::iSenseOsModel> >, wiselib::vector_static<wiselib::iSenseOsModel, wiselib::PLTT_SecureTraceType<wiselib::iSenseOsModel, wiselib::iSenseExtendedTxRadioModel<wiselib::iSenseOsModel>, unsigned char, unsigned char, unsigned char, wiselib::NodeType<wiselib::iSenseOsModel, wiselib::iSenseExtendedTxRadioModel<wiselib::iSenseOsModel>, unsigned short, wiselib::Position2DType<wiselib::iSenseOsModel, wiselib::iSenseExtendedTxRadioModel<wiselib::iSenseOsModel>, unsigned short, wiselib::iSenseDebug<wiselib::iSenseOsModel> >, wiselib::iSenseDebug<wiselib::iSenseOsModel> >, unsigned short, wiselib::iSenseDebug<wiselib::iSenseOsModel> >, 25>, wiselib::PLTT_AgentType<wiselib::iSenseOsModel, wiselib::iSenseExtendedTxRadioModel<wiselib::iSenseOsModel>, unsigned short, unsigned char, wiselib::iSenseDebug<wiselib::iSenseOsModel> >, wiselib::NeighborDiscovery_Type<wiselib::iSenseOsModel, wiselib::iSenseExtendedTxRadioModel<wiselib::iSenseOsModel>, wiselib::iSenseClockModel<wiselib::iSenseOsModel, isense::Time>, wiselib::iSenseTimerModel<wiselib::iSenseOsModel>, wiselib::iSenseRandModel<wiselib::iSenseOsModel>, wiselib::iSenseDebug<wiselib::iSenseOsModel> >, wiselib::iSenseTimerModel<wiselib::iSenseOsModel>, wiselib::iSenseExtendedTxRadioModel<wiselib::iSenseOsModel>, wiselib::ReliableRadio_Type<wiselib::iSenseOsModel, wiselib::iSenseExtendedTxRadioModel<wiselib::iSenseOsModel>, wiselib::iSenseClockModel<wiselib::iSenseOsModel, isense::Time>, wiselib::iSenseTimerModel<wiselib::iSenseOsModel>, wiselib::iSenseRandModel<wiselib::iSenseOsModel>, wiselib::iSenseDebug<wiselib::iSenseOsModel> >, wiselib::iSenseRandModel<wiselib::iSenseOsModel>, wiselib::iSenseClockModel<wiselib::iSenseOsModel, isense::Time>, wiselib::iSenseDebug<wiselib::iSenseOsModel> >, &(wiselib::PLTT_PassiveType<wiselib::iSenseOsModel, wiselib::NodeType<wiselib::iSenseOsModel, wiselib::iSenseExtendedTxRadioModel<wiselib::iSenseOsModel>, unsigned short, wiselib::Position2DType<wiselib::iSenseOsModel, wiselib::iSenseExtendedTxRadioModel<wiselib::iSenseOsModel>, unsigned short, wiselib::iSenseDebug<wiselib::iSenseOsModel> >, wiselib::iSenseDebug<wiselib::iSenseOsModel> >, wiselib::PLTT_NodeType<wiselib::iSenseOsModel, wiselib::iSenseExtendedTxRadioModel<wiselib::iSenseOsModel>, wiselib::NodeType<wiselib::iSenseOsModel, wiselib::iSenseExtendedTxRadioModel<wiselib::iSenseOsModel>, unsigned short, wiselib::Position2DType<wiselib::iSenseOsModel, wiselib::iSenseExtendedTxRadioModel<wiselib::iSenseOsModel>, unsigned short, wiselib::iSenseDebug<wiselib::iSenseOsModel> >, wiselib::iSenseDebug<wiselib::iSenseOsModel> >, wiselib::PLTT_NodeTargetType<wiselib::iSenseOsModel, wiselib::iSenseExtendedTxRadioModel<wiselib::iSenseOsModel>, unsigned short, unsigned char, wiselib::iSenseDebug<wiselib::iSenseOsModel> >, wiselib::vector_static<wiselib::iSenseOsModel, wiselib::PLTT_NodeTargetType<wiselib::iSenseOsModel, wiselib::iSenseExtendedTxRadioModel<wiselib::iSenseOsModel>, unsigned short, unsigned char, wiselib::iSenseDebug<wiselib::iSenseOsModel> >, 5>, wiselib::vector_static<wiselib::iSenseOsModel, wiselib::PLTT_TraceType<wiselib::iSenseOsModel, wiselib::iSenseExtendedTxRadioModel<wiselib::iSenseOsModel>, unsigned char, unsigned char, unsigned char, wiselib::NodeType<wiselib::iSenseOsModel, wiselib::iSenseExtendedTxRadioModel<wiselib::iSenseOsModel>, unsigned short, wiselib::Position2DType<wiselib::iSenseOsModel, wiselib::iSenseExtendedTxRadioModel<wiselib::iSenseOsModel>, unsigned short, wiselib::iSenseDebug<wiselib::iSenseOsModel> >, wiselib::iSenseDebug<wiselib::iSenseOsModel> >, unsigned short, wiselib::iSenseDebug<wiselib::iSenseOsModel> >, 5>, wiselib::iSenseDebug<wiselib::iSenseOsModel> >, wiselib::vector_static<wiselib::iSenseOsModel, wiselib::PLTT_NodeType<wiselib::iSenseOsModel, wiselib::iSenseExtendedTxRadioModel<wiselib::iSenseOsModel>, wiselib::NodeType<wiselib::iSenseOsModel, wiselib::iSenseExtendedTxRadioModel<wiselib::iSenseOsModel>, unsigned short, wiselib::Position2DType<wiselib::iSenseOsModel, wiselib::iSenseExtendedTxRadioModel<wiselib::iSenseOsModel>, unsigned short, wiselib::iSenseDebug<wiselib::iSenseOsModel> >, wiselib::iSenseDebug<wiselib::iSenseOsModel> >, wiselib::PLTT_NodeTargetType<wiselib::iSenseOsModel, wiselib::iSenseExtendedTxRadioModel<wiselib::iSenseOsModel>, unsigned short, unsigned char, wiselib::iSenseDebug<wiselib::iSenseOsModel> >, wiselib::vector_static<wiselib::iSenseOsModel, wiselib::PLTT_NodeTargetType<wiselib::iSenseOsModel, wiselib::iSenseExtendedTxRadioModel<wiselib::iSenseOsModel>, unsigned short, unsigned char, wiselib::iSenseDebug<wiselib::iSenseOsModel> >, 5>, wiselib::vector_static<wiselib::iSenseOsModel, wiselib::PLTT_TraceType<wiselib::iSenseOsModel, wiselib::iSenseExtendedTxRadioModel<wiselib::iSenseOsModel>, unsigned char, unsigned char, unsigned char, wiselib::NodeType<wiselib::iSenseOsModel, wiselib::iSenseExtendedTxRadioModel<wiselib::iSenseOsModel>, unsigned short, wiselib::Position2DType<wiselib::iSenseOsModel, wiselib::iSenseExtendedTxRadioModel<wiselib::iSenseOsModel>, unsigned short, wiselib::iSenseDebug<wiselib::iSenseOsModel> >, wiselib::iSenseDebug<wiselib::iSenseOsModel> >, unsigned short, wiselib::iSenseDebug<wiselib::iSenseOsModel> >, 5>, wiselib::iSenseDebug<wiselib::iSenseOsModel> >, 25>, wiselib::PLTT_TraceType<wiselib::iSenseOsModel, wiselib::iSenseExtendedTxRadioModel<wiselib::iSenseOsModel>, unsigned char, unsigned char, unsigned char, wiselib::NodeType<wiselib::iSenseOsModel, wiselib::iSenseExtendedTxRadioModel<wiselib::iSenseOsModel>, unsigned short, wiselib::Position2DType<wiselib::iSenseOsModel, wiselib::iSenseExtendedTxRadioModel<wiselib::iSenseOsModel>, unsigned short, wiselib::iSenseDebug<wiselib::iSenseOsModel> >, wiselib::iSenseDebug<wiselib::iSenseOsModel> >, unsigned short, wiselib::iSenseDebug<wiselib::iSenseOsModel> >, wiselib::vector_static<wiselib::iSenseOsModel, wiselib::PLTT_TraceType<wiselib::iSenseOsModel, wiselib::iSenseExtendedTxRadioModel<wiselib::iSenseOsModel>, unsigned char, unsigned char, unsigned char, wiselib::NodeType<wiselib::iSenseOsModel, wiselib::iSenseExtendedTxRadioModel<wiselib::iSenseOsModel>, unsigned short, wiselib::Position2DType<wiselib::iSenseOsModel, wiselib::iSenseExtendedTxRadioModel<wiselib::iSenseOsModel>, unsigned short, wiselib::iSenseDebug<wiselib::iSenseOsModel> >, wiselib::iSenseDebug<wiselib::iSenseOsModel> >, unsigned short, wiselib::iSenseDebug<wiselib::iSenseOsModel> >, 5>, wiselib::PLTT_SecureTraceType<wiselib::iSenseOsModel, wiselib::iSenseExtendedTxRadioModel<wiselib::iSenseOsModel>, unsigned char, unsigned char, unsigned char, wiselib::NodeType<wiselib::iSenseOsModel, wiselib::iSenseExtendedTxRadioModel<wiselib::iSenseOsModel>, unsigned short, wiselib::Position2DType<wiselib::iSenseOsModel, wiselib::iSenseExtendedTxRadioModel<wiselib::iSenseOsModel>, unsigned short, wiselib::iSenseDebug<wiselib::iSenseOsModel> >, wiselib::iSenseDebug<wiselib::iSenseOsModel> >, unsigned short, wiselib::iSenseDebug<wiselib::iSenseOsModel> >, wiselib::vector_static<wiselib::iSenseOsModel, wiselib::PLTT_SecureTraceType<wiselib::iSenseOsModel, wiselib::iSenseExtendedTxRadioModel<wiselib::iSenseOsModel>, unsigned char, unsigned char, unsigned char, wiselib::NodeType<wiselib::iSenseOsModel, wiselib::iSenseExtendedTxRadioModel<wiselib::iSenseOsModel>, unsigned short, wiselib::Position2DType<wiselib::iSenseOsModel, wiselib::iSenseExtendedTxRadioModel<wiselib::iSenseOsModel>, unsigned short, wiselib::iSenseDebug<wiselib::iSenseOsModel> >, wiselib::iSenseDebug<wiselib::iSenseOsModel> >, unsigned short, wiselib::iSenseDebug<wiselib::iSenseOsModel> >, 25>, wiselib::PLTT_AgentType<wiselib::iSenseOsModel, wiselib::iSenseExtendedTxRadioModel<wiselib::iSenseOsModel>, unsigned short, unsigned char, wiselib::iSenseDebug<wiselib::iSenseOsModel> >, wiselib::NeighborDiscovery_Type<wiselib::iSenseOsModel, wiselib::iSenseExtendedTxRadioModel<wiselib::iSenseOsModel>, wiselib::iSenseClockModel<wiselib::iSenseOsModel, isense::Time>, wiselib::iSenseTimerModel<wiselib::iSenseOsModel>, wiselib::iSenseRandModel<wiselib::iSenseOsModel>, wiselib::iSenseDebug<wiselib::iSenseOsModel> >, wiselib::iSenseTimerModel<wiselib::iSenseOsModel>, wiselib::iSenseExtendedTxRadioModel<wiselib::iSenseOsModel>, wiselib::ReliableRadio_Type<wiselib::iSenseOsModel, wiselib::iSenseExtendedTxRadioModel<wiselib::iSenseOsModel>, wiselib::iSenseClockModel<wiselib::iSenseOsModel, isense::Time>, wiselib::iSenseTimerModel<wiselib::iSenseOsModel>, wiselib::iSenseRandModel<wiselib::iSenseOsModel>, wiselib::iSenseDebug<wiselib::iSenseOsModel> >, wiselib::iSenseRandModel<wiselib::iSenseOsModel>, wiselib::iSenseClockModel<wiselib::iSenseOsModel, isense::Time>, wiselib::iSenseDebug<wiselib::iSenseOsModel> >::receive(unsigned short, unsigned char, unsigned char*, wiselib::iSenseExtendedTxRadioModel<wiselib::iSenseOsModel>::ExtendedData const&))>(wiselib::PLTT_PassiveType<wiselib::iSenseOsModel, wiselib::NodeType<wiselib::iSenseOsModel, wiselib::iSenseExtendedTxRadioModel<wiselib::iSenseOsModel>, unsigned short, wiselib::Position2DType<wiselib::iSenseOsModel, wiselib::iSenseExtendedTxRadioModel<wiselib::iSenseOsModel>, unsigned short, wiselib::iSenseDebug<wiselib::iSenseOsModel> >, wiselib::iSenseDebug<wiselib::iSenseOsModel> >, wiselib::PLTT_NodeType<wiselib::iSenseOsModel, wiselib::iSenseExtendedTxRadioModel<wiselib::iSenseOsModel>, wiselib::NodeType<wiselib::iSenseOsModel, wiselib::iSenseExtendedTxRadioModel<wiselib::iSenseOsModel>, unsigned short, wiselib::Position2DType<wiselib::iSenseOsModel, wiselib::iSenseExtendedTxRadioModel<wiselib::iSenseOsModel>, unsigned short, wiselib::iSenseDebug<wiselib::iSenseOsModel> >, wiselib::iSenseDebug<wiselib::iSenseOsModel> >, wiselib::PLTT_NodeTargetType<wiselib::iSenseOsModel, wiselib::iSenseExtendedTxRadioModel<wiselib::iSenseOsModel>, unsigned short, unsigned char, wiselib::iSenseDebug<wiselib::iSenseOsModel> >, wiselib::vector_static<wiselib::iSenseOsModel, wiselib::PLTT_NodeTargetType<wiselib::iSenseOsModel, wiselib::iSenseExtendedTxRadioModel<wiselib::iSenseOsModel>, unsigned short, unsigned char, wiselib::iSenseDebug<wiselib::iSenseOsModel> >, 5>, wiselib::vector_static<wiselib::iSenseOsModel, wiselib::PLTT_TraceType<wiselib::iSenseOsModel, wiselib::iSenseExtendedTxRadioModel<wiselib::iSenseOsModel>, unsigned char, unsigned char, unsigned char, wiselib::NodeType<wiselib::iSenseOsModel, wiselib::iSenseExtendedTxRadioModel<wiselib::iSenseOsModel>, unsigned short, wiselib::Position2DType<wiselib::iSenseOsModel, wiselib::iSenseExtendedTxRadioModel<wiselib::iSenseOsModel>, unsigned short, wiselib::iSenseDebug<wiselib::iSenseOsModel> >, wiselib::iSenseDebug<wiselib::iSenseOsModel> >, unsigned short, wiselib::iSenseDebug<wiselib::iSenseOsModel> >, 5>, wiselib::iSenseDebug<wiselib::iSenseOsModel> >, wiselib::vector_static<wiselib::iSenseOsModel, wiselib::PLTT_NodeType<wiselib::iSenseOsModel, wiselib::iSenseExtendedTxRadioModel<wiselib::iSenseOsModel>, wiselib::NodeType<wiselib::iSenseOsModel, wiselib::iSenseExtendedTxRadioModel<wiselib::iSenseOsModel>, unsigned short, wiselib::Position2DType<wiselib::iSenseOsModel, wiselib::iSenseExtendedTxRadioModel<wiselib::iSenseOsModel>, unsigned short, wiselib::iSenseDebug<wiselib::iSenseOsModel> >, wiselib::iSenseDebug<wiselib::iSenseOsModel> >, wiselib::PLTT_NodeTargetType<wiselib::iSenseOsModel, wiselib::iSenseExtendedTxRadioModel<wiselib::iSenseOsModel>, unsigned short, unsigned char, wiselib::iSenseDebug<wiselib::iSenseOsModel> >, wiselib::vector_static<wiselib::iSenseOsModel, wiselib::PLTT_NodeTargetType<wiselib::iSenseOsModel, wiselib::iSenseExtendedTxRadioModel<wiselib::iSenseOsModel>, unsigned short, unsigned char, wiselib::iSenseDebug<wiselib::iSenseOsModel> >, 5>, wiselib::vector_static<wiselib::iSenseOsModel, wiselib::PLTT_TraceType<wiselib::iSenseOsModel, wiselib::iSenseExtendedTxRadioModel<wiselib::iSenseOsModel>, unsigned char, unsigned char, unsigned char, wiselib::NodeType<wiselib::iSenseOsModel, wiselib::iSenseExtendedTxRadioModel<wiselib::iSenseOsModel>, unsigned short, wiselib::Position2DType<wiselib::iSenseOsModel, wiselib::iSenseExtendedTxRadioModel<wiselib::iSenseOsModel>, unsigned short, wiselib::iSenseDebug<wiselib::iSenseOsModel> >, wiselib::iSenseDebug<wiselib::iSenseOsModel> >, unsigned short, wiselib::iSenseDebug<wiselib::iSenseOsModel> >, 5>, wiselib::iSenseDebug<wiselib::iSenseOsModel> >, 25>, wiselib::PLTT_TraceType<wiselib::iSenseOsModel, wiselib::iSenseExtendedTxRadioModel<wiselib::iSenseOsModel>, unsigned char, unsigned char, unsigned char, wiselib::NodeType<wiselib::iSenseOsModel, wiselib::iSenseExtendedTxRadioModel<wiselib::iSenseOsModel>, unsigned short, wiselib::Position2DType<wiselib::iSenseOsModel, wiselib::iSenseExtendedTxRadioModel<wiselib::iSenseOsModel>, unsigned short, wiselib::iSenseDebug<wiselib::iSenseOsModel> >, wiselib::iSenseDebug<wiselib::iSenseOsModel> >, unsigned short, wiselib::iSenseDebug<wiselib::iSenseOsModel> >, wiselib::vector_static<wiselib::iSenseOsModel, wiselib::PLTT_TraceType<wiselib::iSenseOsModel, wiselib::iSenseExtendedTxRadioModel<wiselib::iSenseOsModel>, unsigned char, unsigned char, unsigned char, wiselib::NodeType<wiselib::iSenseOsModel, wiselib::iSenseExtendedTxRadioModel<wiselib::iSenseOsModel>, unsigned short, wiselib::Position2DType<wiselib::iSenseOsModel, wiselib::iSenseExtendedTxRadioModel<wiselib::iSenseOsModel>, unsigned short, wiselib::iSenseDebug<wiselib::iSenseOsModel> >, wiselib::iSenseDebug<wiselib::iSenseOsModel> >, unsigned short, wiselib::iSenseDebug<wiselib::iSenseOsModel> >, 5>, wiselib::PLTT_SecureTraceType<wiselib::iSenseOsModel, wiselib::iSenseExtendedTxRadioModel<wiselib::iSenseOsModel>, unsigned char, unsigned char, unsigned char, wiselib::NodeType<wiselib::iSenseOsModel, wiselib::iSenseExtendedTxRadioModel<wiselib::iSenseOsModel>, unsigned short, wiselib::Position2DType<wiselib::iSenseOsModel, wiselib::iSenseExtendedTxRadioModel<wiselib::iSenseOsModel>, unsigned short, wiselib::iSenseDebug<wiselib::iSenseOsModel> >, wiselib::iSenseDebug<wiselib::iSenseOsModel> >, unsigned short, wiselib::iSenseDebug<wiselib::iSenseOsModel> >, wiselib::vector_static<wiselib::iSenseOsModel, wiselib::PLTT_SecureTraceType<wiselib::iSenseOsModel, wiselib::iSenseExtendedTxRadioModel<wiselib::iSenseOsModel>, unsigned char, unsigned char, unsigned char, wiselib::NodeType<wiselib::iSenseOsModel, wiselib::iSenseExtendedTxRadioModel<wiselib::iSenseOsModel>, unsigned short, wiselib::Position2DType<wiselib::iSenseOsModel, wiselib::iSenseExtendedTxRadioModel<wiselib::iSenseOsModel>, unsigned short, wiselib::iSenseDebug<wiselib::iSenseOsModel> >, wiselib::iSenseDebug<wiselib::iSenseOsModel> >, unsigned short, wiselib::iSenseDebug<wiselib::iSenseOsModel> >, 25>, wiselib::PLTT_AgentType<wiselib::iSenseOsModel, wiselib::iSenseExtendedTxRadioModel<wiselib::iSenseOsModel>, unsigned short, unsigned char, wiselib::iSenseDebug<wiselib::iSenseOsModel> >, wiselib::NeighborDiscovery_Type<wiselib::iSenseOsModel, wiselib::iSenseExtendedTxRadioModel<wiselib::iSenseOsModel>, wiselib::iSenseClockModel<wiselib::iSenseOsModel, isense::Time>, wiselib::iSenseTimerModel<wiselib::iSenseOsModel>, wiselib::iSenseRandModel<wiselib::iSenseOsModel>, wiselib::iSenseDebug<wiselib::iSenseOsModel> >, wiselib::iSenseTimerModel<wiselib::iSenseOsModel>, wiselib::iSenseExtendedTxRadioModel<wiselib::iSenseOsModel>, wiselib::ReliableRadio_Type<wiselib::iSenseOsModel, wiselib::iSenseExtendedTxRadioModel<wiselib::iSenseOsModel>, wiselib::iSenseClockModel<wiselib::iSenseOsModel, isense::Time>, wiselib::iSenseTimerModel<wiselib::iSenseOsModel>, wiselib::iSenseRandModel<wiselib::iSenseOsModel>, wiselib::iSenseDebug<wiselib::iSenseOsModel> >, wiselib::iSenseRandModel<wiselib::iSenseOsModel>, wiselib::iSenseClockModel<wiselib::iSenseOsModel, isense::Time>, wiselib::iSenseDebug<wiselib::iSenseOsModel> >*)
 .text._ZN9delegate4IvhthPhE11method_stubIN7wiselib13Protocol_TypeINS3_13iSenseOsModelENS3_26iSenseExtendedTxRadioModelIS5_EENS3_16iSenseClockModelIS5_N6isense4TimeEEENS3_16iSenseTimerModelIS5_EENS3_11iSenseDebugIS5_EEEEXadL_ZNSG_13null_callbackEhthS0_EEEEvPvhthS0_
                0x040024cc       0x4c out/isense/PLTT_passive_app.o
                0x040024cc                void delegate4<void, unsigned char, unsigned short, unsigned char, unsigned char*>::method_stub<wiselib::Protocol_Type<wiselib::iSenseOsModel, wiselib::iSenseExtendedTxRadioModel<wiselib::iSenseOsModel>, wiselib::iSenseClockModel<wiselib::iSenseOsModel, isense::Time>, wiselib::iSenseTimerModel<wiselib::iSenseOsModel>, wiselib::iSenseDebug<wiselib::iSenseOsModel> >, &(wiselib::Protocol_Type<wiselib::iSenseOsModel, wiselib::iSenseExtendedTxRadioModel<wiselib::iSenseOsModel>, wiselib::iSenseClockModel<wiselib::iSenseOsModel, isense::Time>, wiselib::iSenseTimerModel<wiselib::iSenseOsModel>, wiselib::iSenseDebug<wiselib::iSenseOsModel> >::null_callback(unsigned char, unsigned short, unsigned char, unsigned char*))>(void*, unsigned char, unsigned short, unsigned char, unsigned char*)
 .text._ZN9delegate4IvthPhRKN7wiselib26iSenseExtendedTxRadioModelINS1_13iSenseOsModelEE12ExtendedDataEE11method_stubINS1_18ReliableRadio_TypeIS3_S4_NS1_16iSenseClockModelIS3_N6isense4TimeEEENS1_16iSenseTimerModelIS3_EENS1_15iSenseRandModelIS3_EENS1_11iSenseDebugIS3_EEEEXadL_ZNSL_7receiveEthS0_S7_EEEEvPvthS0_S7_
                0x04002518       0x4c out/isense/PLTT_passive_app.o
                0x04002518                void delegate4<void, unsigned short, unsigned char, unsigned char*, wiselib::iSenseExtendedTxRadioModel<wiselib::iSenseOsModel>::ExtendedData const&>::method_stub<wiselib::ReliableRadio_Type<wiselib::iSenseOsModel, wiselib::iSenseExtendedTxRadioModel<wiselib::iSenseOsModel>, wiselib::iSenseClockModel<wiselib::iSenseOsModel, isense::Time>, wiselib::iSenseTimerModel<wiselib::iSenseOsModel>, wiselib::iSenseRandModel<wiselib::iSenseOsModel>, wiselib::iSenseDebug<wiselib::iSenseOsModel> >, &(wiselib::ReliableRadio_Type<wiselib::iSenseOsModel, wiselib::iSenseExtendedTxRadioModel<wiselib::iSenseOsModel>, wiselib::iSenseClockModel<wiselib::iSenseOsModel, isense::Time>, wiselib::iSenseTimerModel<wiselib::iSenseOsModel>, wiselib::iSenseRandModel<wiselib::iSenseOsModel>, wiselib::iSenseDebug<wiselib::iSenseOsModel> >::receive(unsigned short, unsigned char, unsigned char*, wiselib::iSenseExtendedTxRadioModel<wiselib::iSenseOsModel>::ExtendedData const&))>(void*, unsigned short, unsigned char, unsigned char*, wiselib::iSenseExtendedTxRadioModel<wiselib::iSenseOsModel>::ExtendedData const&)
 .text._ZN7wiselib21ProtocolSettings_TypeINS_13iSenseOsModelENS_26iSenseExtendedTxRadioModelIS1_EENS_16iSenseTimerModelIS1_EENS_11iSenseDebugIS1_EEEaSERKS8_
                0x04002564       0xf8 out/isense/PLTT_passive_app.o
                0x04002564                wiselib::ProtocolSettings_Type<wiselib::iSenseOsModel, wiselib::iSenseExtendedTxRadioModel<wiselib::iSenseOsModel>, wiselib::iSenseTimerModel<wiselib::iSenseOsModel>, wiselib::iSenseDebug<wiselib::iSenseOsModel> >::operator=(wiselib::ProtocolSettings_Type<wiselib::iSenseOsModel, wiselib::iSenseExtendedTxRadioModel<wiselib::iSenseOsModel>, wiselib::iSenseTimerModel<wiselib::iSenseOsModel>, wiselib::iSenseDebug<wiselib::iSenseOsModel> > const&)
 .text._ZN9delegate4IvhthPhE11method_stubIN7wiselib16PLTT_PassiveTypeINS3_13iSenseOsModelENS3_8NodeTypeIS5_NS3_26iSenseExtendedTxRadioModelIS5_EEtNS3_14Position2DTypeIS5_S8_tNS3_11iSenseDebugIS5_EEEESB_EENS3_13PLTT_NodeTypeIS5_S8_SD_NS3_19PLTT_NodeTargetTypeIS5_S8_thSB_EENS3_13vector_staticIS5_SG_Li5EEENSH_IS5_NS3_14PLTT_TraceTypeIS5_S8_hhhSD_tSB_EELi5EEESB_EENSH_IS5_SM_Li25EEESK_SL_NS3_20PLTT_SecureTraceTypeIS5_S8_hhhSD_tSB_EENSH_IS5_SP_Li25EEENS3_14PLTT_AgentTypeIS5_S8_thSB_EENS3_22NeighborDiscovery_TypeIS5_S8_NS3_16iSenseClockModelIS5_N6isense4TimeEEENS3_16iSenseTimerModelIS5_EENS3_15iSenseRandModelIS5_EESB_EESZ_S8_NS3_18ReliableRadio_TypeIS5_S8_SX_SZ_S11_SB_EES11_SX_SB_EEXadL_ZNS15_14sync_neighborsEhthS0_EEEEvPvhthS0_
                0x0400265c       0x4c out/isense/PLTT_passive_app.o
                0x0400265c                void delegate4<void, unsigned char, unsigned short, unsigned char, unsigned char*>::method_stub<wiselib::PLTT_PassiveType<wiselib::iSenseOsModel, wiselib::NodeType<wiselib::iSenseOsModel, wiselib::iSenseExtendedTxRadioModel<wiselib::iSenseOsModel>, unsigned short, wiselib::Position2DType<wiselib::iSenseOsModel, wiselib::iSenseExtendedTxRadioModel<wiselib::iSenseOsModel>, unsigned short, wiselib::iSenseDebug<wiselib::iSenseOsModel> >, wiselib::iSenseDebug<wiselib::iSenseOsModel> >, wiselib::PLTT_NodeType<wiselib::iSenseOsModel, wiselib::iSenseExtendedTxRadioModel<wiselib::iSenseOsModel>, wiselib::NodeType<wiselib::iSenseOsModel, wiselib::iSenseExtendedTxRadioModel<wiselib::iSenseOsModel>, unsigned short, wiselib::Position2DType<wiselib::iSenseOsModel, wiselib::iSenseExtendedTxRadioModel<wiselib::iSenseOsModel>, unsigned short, wiselib::iSenseDebug<wiselib::iSenseOsModel> >, wiselib::iSenseDebug<wiselib::iSenseOsModel> >, wiselib::PLTT_NodeTargetType<wiselib::iSenseOsModel, wiselib::iSenseExtendedTxRadioModel<wiselib::iSenseOsModel>, unsigned short, unsigned char, wiselib::iSenseDebug<wiselib::iSenseOsModel> >, wiselib::vector_static<wiselib::iSenseOsModel, wiselib::PLTT_NodeTargetType<wiselib::iSenseOsModel, wiselib::iSenseExtendedTxRadioModel<wiselib::iSenseOsModel>, unsigned short, unsigned char, wiselib::iSenseDebug<wiselib::iSenseOsModel> >, 5>, wiselib::vector_static<wiselib::iSenseOsModel, wiselib::PLTT_TraceType<wiselib::iSenseOsModel, wiselib::iSenseExtendedTxRadioModel<wiselib::iSenseOsModel>, unsigned char, unsigned char, unsigned char, wiselib::NodeType<wiselib::iSenseOsModel, wiselib::iSenseExtendedTxRadioModel<wiselib::iSenseOsModel>, unsigned short, wiselib::Position2DType<wiselib::iSenseOsModel, wiselib::iSenseExtendedTxRadioModel<wiselib::iSenseOsModel>, unsigned short, wiselib::iSenseDebug<wiselib::iSenseOsModel> >, wiselib::iSenseDebug<wiselib::iSenseOsModel> >, unsigned short, wiselib::iSenseDebug<wiselib::iSenseOsModel> >, 5>, wiselib::iSenseDebug<wiselib::iSenseOsModel> >, wiselib::vector_static<wiselib::iSenseOsModel, wiselib::PLTT_NodeType<wiselib::iSenseOsModel, wiselib::iSenseExtendedTxRadioModel<wiselib::iSenseOsModel>, wiselib::NodeType<wiselib::iSenseOsModel, wiselib::iSenseExtendedTxRadioModel<wiselib::iSenseOsModel>, unsigned short, wiselib::Position2DType<wiselib::iSenseOsModel, wiselib::iSenseExtendedTxRadioModel<wiselib::iSenseOsModel>, unsigned short, wiselib::iSenseDebug<wiselib::iSenseOsModel> >, wiselib::iSenseDebug<wiselib::iSenseOsModel> >, wiselib::PLTT_NodeTargetType<wiselib::iSenseOsModel, wiselib::iSenseExtendedTxRadioModel<wiselib::iSenseOsModel>, unsigned short, unsigned char, wiselib::iSenseDebug<wiselib::iSenseOsModel> >, wiselib::vector_static<wiselib::iSenseOsModel, wiselib::PLTT_NodeTargetType<wiselib::iSenseOsModel, wiselib::iSenseExtendedTxRadioModel<wiselib::iSenseOsModel>, unsigned short, unsigned char, wiselib::iSenseDebug<wiselib::iSenseOsModel> >, 5>, wiselib::vector_static<wiselib::iSenseOsModel, wiselib::PLTT_TraceType<wiselib::iSenseOsModel, wiselib::iSenseExtendedTxRadioModel<wiselib::iSenseOsModel>, unsigned char, unsigned char, unsigned char, wiselib::NodeType<wiselib::iSenseOsModel, wiselib::iSenseExtendedTxRadioModel<wiselib::iSenseOsModel>, unsigned short, wiselib::Position2DType<wiselib::iSenseOsModel, wiselib::iSenseExtendedTxRadioModel<wiselib::iSenseOsModel>, unsigned short, wiselib::iSenseDebug<wiselib::iSenseOsModel> >, wiselib::iSenseDebug<wiselib::iSenseOsModel> >, unsigned short, wiselib::iSenseDebug<wiselib::iSenseOsModel> >, 5>, wiselib::iSenseDebug<wiselib::iSenseOsModel> >, 25>, wiselib::PLTT_TraceType<wiselib::iSenseOsModel, wiselib::iSenseExtendedTxRadioModel<wiselib::iSenseOsModel>, unsigned char, unsigned char, unsigned char, wiselib::NodeType<wiselib::iSenseOsModel, wiselib::iSenseExtendedTxRadioModel<wiselib::iSenseOsModel>, unsigned short, wiselib::Position2DType<wiselib::iSenseOsModel, wiselib::iSenseExtendedTxRadioModel<wiselib::iSenseOsModel>, unsigned short, wiselib::iSenseDebug<wiselib::iSenseOsModel> >, wiselib::iSenseDebug<wiselib::iSenseOsModel> >, unsigned short, wiselib::iSenseDebug<wiselib::iSenseOsModel> >, wiselib::vector_static<wiselib::iSenseOsModel, wiselib::PLTT_TraceType<wiselib::iSenseOsModel, wiselib::iSenseExtendedTxRadioModel<wiselib::iSenseOsModel>, unsigned char, unsigned char, unsigned char, wiselib::NodeType<wiselib::iSenseOsModel, wiselib::iSenseExtendedTxRadioModel<wiselib::iSenseOsModel>, unsigned short, wiselib::Position2DType<wiselib::iSenseOsModel, wiselib::iSenseExtendedTxRadioModel<wiselib::iSenseOsModel>, unsigned short, wiselib::iSenseDebug<wiselib::iSenseOsModel> >, wiselib::iSenseDebug<wiselib::iSenseOsModel> >, unsigned short, wiselib::iSenseDebug<wiselib::iSenseOsModel> >, 5>, wiselib::PLTT_SecureTraceType<wiselib::iSenseOsModel, wiselib::iSenseExtendedTxRadioModel<wiselib::iSenseOsModel>, unsigned char, unsigned char, unsigned char, wiselib::NodeType<wiselib::iSenseOsModel, wiselib::iSenseExtendedTxRadioModel<wiselib::iSenseOsModel>, unsigned short, wiselib::Position2DType<wiselib::iSenseOsModel, wiselib::iSenseExtendedTxRadioModel<wiselib::iSenseOsModel>, unsigned short, wiselib::iSenseDebug<wiselib::iSenseOsModel> >, wiselib::iSenseDebug<wiselib::iSenseOsModel> >, unsigned short, wiselib::iSenseDebug<wiselib::iSenseOsModel> >, wiselib::vector_static<wiselib::iSenseOsModel, wiselib::PLTT_SecureTraceType<wiselib::iSenseOsModel, wiselib::iSenseExtendedTxRadioModel<wiselib::iSenseOsModel>, unsigned char, unsigned char, unsigned char, wiselib::NodeType<wiselib::iSenseOsModel, wiselib::iSenseExtendedTxRadioModel<wiselib::iSenseOsModel>, unsigned short, wiselib::Position2DType<wiselib::iSenseOsModel, wiselib::iSenseExtendedTxRadioModel<wiselib::iSenseOsModel>, unsigned short, wiselib::iSenseDebug<wiselib::iSenseOsModel> >, wiselib::iSenseDebug<wiselib::iSenseOsModel> >, unsigned short, wiselib::iSenseDebug<wiselib::iSenseOsModel> >, 25>, wiselib::PLTT_AgentType<wiselib::iSenseOsModel, wiselib::iSenseExtendedTxRadioModel<wiselib::iSenseOsModel>, unsigned short, unsigned char, wiselib::iSenseDebug<wiselib::iSenseOsModel> >, wiselib::NeighborDiscovery_Type<wiselib::iSenseOsModel, wiselib::iSenseExtendedTxRadioModel<wiselib::iSenseOsModel>, wiselib::iSenseClockModel<wiselib::iSenseOsModel, isense::Time>, wiselib::iSenseTimerModel<wiselib::iSenseOsModel>, wiselib::iSenseRandModel<wiselib::iSenseOsModel>, wiselib::iSenseDebug<wiselib::iSenseOsModel> >, wiselib::iSenseTimerModel<wiselib::iSenseOsModel>, wiselib::iSenseExtendedTxRadioModel<wiselib::iSenseOsModel>, wiselib::ReliableRadio_Type<wiselib::iSenseOsModel, wiselib::iSenseExtendedTxRadioModel<wiselib::iSenseOsModel>, wiselib::iSenseClockModel<wiselib::iSenseOsModel, isense::Time>, wiselib::iSenseTimerModel<wiselib::iSenseOsModel>, wiselib::iSenseRandModel<wiselib::iSenseOsModel>, wiselib::iSenseDebug<wiselib::iSenseOsModel> >, wiselib::iSenseRandModel<wiselib::iSenseOsModel>, wiselib::iSenseClockModel<wiselib::iSenseOsModel, isense::Time>, wiselib::iSenseDebug<wiselib::iSenseOsModel> >, &(wiselib::PLTT_PassiveType<wiselib::iSenseOsModel, wiselib::NodeType<wiselib::iSenseOsModel, wiselib::iSenseExtendedTxRadioModel<wiselib::iSenseOsModel>, unsigned short, wiselib::Position2DType<wiselib::iSenseOsModel, wiselib::iSenseExtendedTxRadioModel<wiselib::iSenseOsModel>, unsigned short, wiselib::iSenseDebug<wiselib::iSenseOsModel> >, wiselib::iSenseDebug<wiselib::iSenseOsModel> >, wiselib::PLTT_NodeType<wiselib::iSenseOsModel, wiselib::iSenseExtendedTxRadioModel<wiselib::iSenseOsModel>, wiselib::NodeType<wiselib::iSenseOsModel, wiselib::iSenseExtendedTxRadioModel<wiselib::iSenseOsModel>, unsigned short, wiselib::Position2DType<wiselib::iSenseOsModel, wiselib::iSenseExtendedTxRadioModel<wiselib::iSenseOsModel>, unsigned short, wiselib::iSenseDebug<wiselib::iSenseOsModel> >, wiselib::iSenseDebug<wiselib::iSenseOsModel> >, wiselib::PLTT_NodeTargetType<wiselib::iSenseOsModel, wiselib::iSenseExtendedTxRadioModel<wiselib::iSenseOsModel>, unsigned short, unsigned char, wiselib::iSenseDebug<wiselib::iSenseOsModel> >, wiselib::vector_static<wiselib::iSenseOsModel, wiselib::PLTT_NodeTargetType<wiselib::iSenseOsModel, wiselib::iSenseExtendedTxRadioModel<wiselib::iSenseOsModel>, unsigned short, unsigned char, wiselib::iSenseDebug<wiselib::iSenseOsModel> >, 5>, wiselib::vector_static<wiselib::iSenseOsModel, wiselib::PLTT_TraceType<wiselib::iSenseOsModel, wiselib::iSenseExtendedTxRadioModel<wiselib::iSenseOsModel>, unsigned char, unsigned char, unsigned char, wiselib::NodeType<wiselib::iSenseOsModel, wiselib::iSenseExtendedTxRadioModel<wiselib::iSenseOsModel>, unsigned short, wiselib::Position2DType<wiselib::iSenseOsModel, wiselib::iSenseExtendedTxRadioModel<wiselib::iSenseOsModel>, unsigned short, wiselib::iSenseDebug<wiselib::iSenseOsModel> >, wiselib::iSenseDebug<wiselib::iSenseOsModel> >, unsigned short, wiselib::iSenseDebug<wiselib::iSenseOsModel> >, 5>, wiselib::iSenseDebug<wiselib::iSenseOsModel> >, wiselib::vector_static<wiselib::iSenseOsModel, wiselib::PLTT_NodeType<wiselib::iSenseOsModel, wiselib::iSenseExtendedTxRadioModel<wiselib::iSenseOsModel>, wiselib::NodeType<wiselib::iSenseOsModel, wiselib::iSenseExtendedTxRadioModel<wiselib::iSenseOsModel>, unsigned short, wiselib::Position2DType<wiselib::iSenseOsModel, wiselib::iSenseExtendedTxRadioModel<wiselib::iSenseOsModel>, unsigned short, wiselib::iSenseDebug<wiselib::iSenseOsModel> >, wiselib::iSenseDebug<wiselib::iSenseOsModel> >, wiselib::PLTT_NodeTargetType<wiselib::iSenseOsModel, wiselib::iSenseExtendedTxRadioModel<wiselib::iSenseOsModel>, unsigned short, unsigned char, wiselib::iSenseDebug<wiselib::iSenseOsModel> >, wiselib::vector_static<wiselib::iSenseOsModel, wiselib::PLTT_NodeTargetType<wiselib::iSenseOsModel, wiselib::iSenseExtendedTxRadioModel<wiselib::iSenseOsModel>, unsigned short, unsigned char, wiselib::iSenseDebug<wiselib::iSenseOsModel> >, 5>, wiselib::vector_static<wiselib::iSenseOsModel, wiselib::PLTT_TraceType<wiselib::iSenseOsModel, wiselib::iSenseExtendedTxRadioModel<wiselib::iSenseOsModel>, unsigned char, unsigned char, unsigned char, wiselib::NodeType<wiselib::iSenseOsModel, wiselib::iSenseExtendedTxRadioModel<wiselib::iSenseOsModel>, unsigned short, wiselib::Position2DType<wiselib::iSenseOsModel, wiselib::iSenseExtendedTxRadioModel<wiselib::iSenseOsModel>, unsigned short, wiselib::iSenseDebug<wiselib::iSenseOsModel> >, wiselib::iSenseDebug<wiselib::iSenseOsModel> >, unsigned short, wiselib::iSenseDebug<wiselib::iSenseOsModel> >, 5>, wiselib::iSenseDebug<wiselib::iSenseOsModel> >, 25>, wiselib::PLTT_TraceType<wiselib::iSenseOsModel, wiselib::iSenseExtendedTxRadioModel<wiselib::iSenseOsModel>, unsigned char, unsigned char, unsigned char, wiselib::NodeType<wiselib::iSenseOsModel, wiselib::iSenseExtendedTxRadioModel<wiselib::iSenseOsModel>, unsigned short, wiselib::Position2DType<wiselib::iSenseOsModel, wiselib::iSenseExtendedTxRadioModel<wiselib::iSenseOsModel>, unsigned short, wiselib::iSenseDebug<wiselib::iSenseOsModel> >, wiselib::iSenseDebug<wiselib::iSenseOsModel> >, unsigned short, wiselib::iSenseDebug<wiselib::iSenseOsModel> >, wiselib::vector_static<wiselib::iSenseOsModel, wiselib::PLTT_TraceType<wiselib::iSenseOsModel, wiselib::iSenseExtendedTxRadioModel<wiselib::iSenseOsModel>, unsigned char, unsigned char, unsigned char, wiselib::NodeType<wiselib::iSenseOsModel, wiselib::iSenseExtendedTxRadioModel<wiselib::iSenseOsModel>, unsigned short, wiselib::Position2DType<wiselib::iSenseOsModel, wiselib::iSenseExtendedTxRadioModel<wiselib::iSenseOsModel>, unsigned short, wiselib::iSenseDebug<wiselib::iSenseOsModel> >, wiselib::iSenseDebug<wiselib::iSenseOsModel> >, unsigned short, wiselib::iSenseDebug<wiselib::iSenseOsModel> >, 5>, wiselib::PLTT_SecureTraceType<wiselib::iSenseOsModel, wiselib::iSenseExtendedTxRadioModel<wiselib::iSenseOsModel>, unsigned char, unsigned char, unsigned char, wiselib::NodeType<wiselib::iSenseOsModel, wiselib::iSenseExtendedTxRadioModel<wiselib::iSenseOsModel>, unsigned short, wiselib::Position2DType<wiselib::iSenseOsModel, wiselib::iSenseExtendedTxRadioModel<wiselib::iSenseOsModel>, unsigned short, wiselib::iSenseDebug<wiselib::iSenseOsModel> >, wiselib::iSenseDebug<wiselib::iSenseOsModel> >, unsigned short, wiselib::iSenseDebug<wiselib::iSenseOsModel> >, wiselib::vector_static<wiselib::iSenseOsModel, wiselib::PLTT_SecureTraceType<wiselib::iSenseOsModel, wiselib::iSenseExtendedTxRadioModel<wiselib::iSenseOsModel>, unsigned char, unsigned char, unsigned char, wiselib::NodeType<wiselib::iSenseOsModel, wiselib::iSenseExtendedTxRadioModel<wiselib::iSenseOsModel>, unsigned short, wiselib::Position2DType<wiselib::iSenseOsModel, wiselib::iSenseExtendedTxRadioModel<wiselib::iSenseOsModel>, unsigned short, wiselib::iSenseDebug<wiselib::iSenseOsModel> >, wiselib::iSenseDebug<wiselib::iSenseOsModel> >, unsigned short, wiselib::iSenseDebug<wiselib::iSenseOsModel> >, 25>, wiselib::PLTT_AgentType<wiselib::iSenseOsModel, wiselib::iSenseExtendedTxRadioModel<wiselib::iSenseOsModel>, unsigned short, unsigned char, wiselib::iSenseDebug<wiselib::iSenseOsModel> >, wiselib::NeighborDiscovery_Type<wiselib::iSenseOsModel, wiselib::iSenseExtendedTxRadioModel<wiselib::iSenseOsModel>, wiselib::iSenseClockModel<wiselib::iSenseOsModel, isense::Time>, wiselib::iSenseTimerModel<wiselib::iSenseOsModel>, wiselib::iSenseRandModel<wiselib::iSenseOsModel>, wiselib::iSenseDebug<wiselib::iSenseOsModel> >, wiselib::iSenseTimerModel<wiselib::iSenseOsModel>, wiselib::iSenseExtendedTxRadioModel<wiselib::iSenseOsModel>, wiselib::ReliableRadio_Type<wiselib::iSenseOsModel, wiselib::iSenseExtendedTxRadioModel<wiselib::iSenseOsModel>, wiselib::iSenseClockModel<wiselib::iSenseOsModel, isense::Time>, wiselib::iSenseTimerModel<wiselib::iSenseOsModel>, wiselib::iSenseRandModel<wiselib::iSenseOsModel>, wiselib::iSenseDebug<wiselib::iSenseOsModel> >, wiselib::iSenseRandModel<wiselib::iSenseOsModel>, wiselib::iSenseClockModel<wiselib::iSenseOsModel, isense::Time>, wiselib::iSenseDebug<wiselib::iSenseOsModel> >::sync_neighbors(unsigned char, unsigned short, unsigned char, unsigned char*))>(void*, unsigned char, unsigned short, unsigned char, unsigned char*)
 .text._ZN7wiselib26iSenseExtendedTxRadioModelINS_13iSenseOsModelEE13disable_radioEv
                0x040026a8       0x3c out/isense/PLTT_passive_app.o
                0x040026a8                wiselib::iSenseExtendedTxRadioModel<wiselib::iSenseOsModel>::disable_radio()
 .text._ZNK9delegate4IvhthPhEclEhthS0_
                0x040026e4       0x20 out/isense/PLTT_passive_app.o
                0x040026e4                delegate4<void, unsigned char, unsigned short, unsigned char, unsigned char*>::operator()(unsigned char, unsigned short, unsigned char, unsigned char*) const
 .text._ZN7wiselib14Position2DTypeINS_13iSenseOsModelENS_26iSenseExtendedTxRadioModelIS1_EEhNS_11iSenseDebugIS1_EEE12de_serializeEPhh
                0x04002704       0x18 out/isense/PLTT_passive_app.o
                0x04002704                wiselib::Position2DType<wiselib::iSenseOsModel, wiselib::iSenseExtendedTxRadioModel<wiselib::iSenseOsModel>, unsigned char, wiselib::iSenseDebug<wiselib::iSenseOsModel> >::de_serialize(unsigned char*, unsigned char)
 .text._ZN9delegate4IvhthPhE11method_stubIN7wiselib22NeighborDiscovery_TypeINS3_13iSenseOsModelENS3_26iSenseExtendedTxRadioModelIS5_EENS3_16iSenseClockModelIS5_N6isense4TimeEEENS3_16iSenseTimerModelIS5_EENS3_15iSenseRandModelIS5_EENS3_11iSenseDebugIS5_EEEEXadL_ZNSI_15events_callbackEhthS0_EEEEvPvhthS0_
                0x0400271c       0x4c out/isense/PLTT_passive_app.o
                0x0400271c                void delegate4<void, unsigned char, unsigned short, unsigned char, unsigned char*>::method_stub<wiselib::NeighborDiscovery_Type<wiselib::iSenseOsModel, wiselib::iSenseExtendedTxRadioModel<wiselib::iSenseOsModel>, wiselib::iSenseClockModel<wiselib::iSenseOsModel, isense::Time>, wiselib::iSenseTimerModel<wiselib::iSenseOsModel>, wiselib::iSenseRandModel<wiselib::iSenseOsModel>, wiselib::iSenseDebug<wiselib::iSenseOsModel> >, &(wiselib::NeighborDiscovery_Type<wiselib::iSenseOsModel, wiselib::iSenseExtendedTxRadioModel<wiselib::iSenseOsModel>, wiselib::iSenseClockModel<wiselib::iSenseOsModel, isense::Time>, wiselib::iSenseTimerModel<wiselib::iSenseOsModel>, wiselib::iSenseRandModel<wiselib::iSenseOsModel>, wiselib::iSenseDebug<wiselib::iSenseOsModel> >::events_callback(unsigned char, unsigned short, unsigned char, unsigned char*))>(void*, unsigned char, unsigned short, unsigned char, unsigned char*)
 .text._ZN7wiselib13Neighbor_TypeINS_13iSenseOsModelENS_26iSenseExtendedTxRadioModelIS1_EENS_16iSenseClockModelIS1_N6isense4TimeEEENS_16iSenseTimerModelIS1_EENS_11iSenseDebugIS1_EEE30update_link_stab_ratio_inverseEhh
                0x04002768       0x78 out/isense/PLTT_passive_app.o
                0x04002768                wiselib::Neighbor_Type<wiselib::iSenseOsModel, wiselib::iSenseExtendedTxRadioModel<wiselib::iSenseOsModel>, wiselib::iSenseClockModel<wiselib::iSenseOsModel, isense::Time>, wiselib::iSenseTimerModel<wiselib::iSenseOsModel>, wiselib::iSenseDebug<wiselib::iSenseOsModel> >::update_link_stab_ratio_inverse(unsigned char, unsigned char)
 .text._ZN7wiselib13Protocol_TypeINS_13iSenseOsModelENS_26iSenseExtendedTxRadioModelIS1_EENS_16iSenseClockModelIS1_N6isense4TimeEEENS_16iSenseTimerModelIS1_EENS_11iSenseDebugIS1_EEE25resolve_overflow_strategyEt
                0x040027e0      0x134 out/isense/PLTT_passive_app.o
                0x040027e0                wiselib::Protocol_Type<wiselib::iSenseOsModel, wiselib::iSenseExtendedTxRadioModel<wiselib::iSenseOsModel>, wiselib::iSenseClockModel<wiselib::iSenseOsModel, isense::Time>, wiselib::iSenseTimerModel<wiselib::iSenseOsModel>, wiselib::iSenseDebug<wiselib::iSenseOsModel> >::resolve_overflow_strategy(unsigned short)
 .text._ZN7wiselib11Beacon_TypeINS_13iSenseOsModelENS_26iSenseExtendedTxRadioModelIS1_EENS_16iSenseClockModelIS1_N6isense4TimeEEENS_16iSenseTimerModelIS1_EENS_11iSenseDebugIS1_EEE21set_protocol_payloadsERNS_13vector_staticIS1_NS_13Protocol_TypeIS1_S3_S7_S9_SB_EELi2EEE
                0x04002914       0xd8 out/isense/PLTT_passive_app.o
                0x04002914                wiselib::Beacon_Type<wiselib::iSenseOsModel, wiselib::iSenseExtendedTxRadioModel<wiselib::iSenseOsModel>, wiselib::iSenseClockModel<wiselib::iSenseOsModel, isense::Time>, wiselib::iSenseTimerModel<wiselib::iSenseOsModel>, wiselib::iSenseDebug<wiselib::iSenseOsModel> >::set_protocol_payloads(wiselib::vector_static<wiselib::iSenseOsModel, wiselib::Protocol_Type<wiselib::iSenseOsModel, wiselib::iSenseExtendedTxRadioModel<wiselib::iSenseOsModel>, wiselib::iSenseClockModel<wiselib::iSenseOsModel, isense::Time>, wiselib::iSenseTimerModel<wiselib::iSenseOsModel>, wiselib::iSenseDebug<wiselib::iSenseOsModel> >, 2>&)
 .text._ZN7wiselib18PrivacyMessageTypeINS_13iSenseOsModelENS_26iSenseExtendedTxRadioModelIS1_EEE11set_payloadEhPh
                0x040029ec       0x3c out/isense/PLTT_passive_app.o
                0x040029ec                wiselib::PrivacyMessageType<wiselib::iSenseOsModel, wiselib::iSenseExtendedTxRadioModel<wiselib::iSenseOsModel> >::set_payload(unsigned char, unsigned char*)
 .text._ZN7wiselib26iSenseExtendedTxRadioModelINS_13iSenseOsModelEE9set_powerENS2_7TxPowerE
                0x04002a28       0x48 out/isense/PLTT_passive_app.o
                0x04002a28                wiselib::iSenseExtendedTxRadioModel<wiselib::iSenseOsModel>::set_power(wiselib::iSenseExtendedTxRadioModel<wiselib::iSenseOsModel>::TxPower)
 .text._ZN9delegate1IvPvE11method_stubIN7wiselib16PLTT_PassiveTypeINS3_13iSenseOsModelENS3_8NodeTypeIS5_NS3_26iSenseExtendedTxRadioModelIS5_EEtNS3_14Position2DTypeIS5_S8_tNS3_11iSenseDebugIS5_EEEESB_EENS3_13PLTT_NodeTypeIS5_S8_SD_NS3_19PLTT_NodeTargetTypeIS5_S8_thSB_EENS3_13vector_staticIS5_SG_Li5EEENSH_IS5_NS3_14PLTT_TraceTypeIS5_S8_hhhSD_tSB_EELi5EEESB_EENSH_IS5_SM_Li25EEESK_SL_NS3_20PLTT_SecureTraceTypeIS5_S8_hhhSD_tSB_EENSH_IS5_SP_Li25EEENS3_14PLTT_AgentTypeIS5_S8_thSB_EENS3_22NeighborDiscovery_TypeIS5_S8_NS3_16iSenseClockModelIS5_N6isense4TimeEEENS3_16iSenseTimerModelIS5_EENS3_15iSenseRandModelIS5_EESB_EESZ_S8_NS3_18ReliableRadio_TypeIS5_S8_SX_SZ_S11_SB_EES11_SX_SB_EEXadL_ZNS15_31neighbor_discovery_disable_taskES0_EEEEvS0_S0_
                0x04002a70       0x44 out/isense/PLTT_passive_app.o
                0x04002a70                void delegate1<void, void*>::method_stub<wiselib::PLTT_PassiveType<wiselib::iSenseOsModel, wiselib::NodeType<wiselib::iSenseOsModel, wiselib::iSenseExtendedTxRadioModel<wiselib::iSenseOsModel>, unsigned short, wiselib::Position2DType<wiselib::iSenseOsModel, wiselib::iSenseExtendedTxRadioModel<wiselib::iSenseOsModel>, unsigned short, wiselib::iSenseDebug<wiselib::iSenseOsModel> >, wiselib::iSenseDebug<wiselib::iSenseOsModel> >, wiselib::PLTT_NodeType<wiselib::iSenseOsModel, wiselib::iSenseExtendedTxRadioModel<wiselib::iSenseOsModel>, wiselib::NodeType<wiselib::iSenseOsModel, wiselib::iSenseExtendedTxRadioModel<wiselib::iSenseOsModel>, unsigned short, wiselib::Position2DType<wiselib::iSenseOsModel, wiselib::iSenseExtendedTxRadioModel<wiselib::iSenseOsModel>, unsigned short, wiselib::iSenseDebug<wiselib::iSenseOsModel> >, wiselib::iSenseDebug<wiselib::iSenseOsModel> >, wiselib::PLTT_NodeTargetType<wiselib::iSenseOsModel, wiselib::iSenseExtendedTxRadioModel<wiselib::iSenseOsModel>, unsigned short, unsigned char, wiselib::iSenseDebug<wiselib::iSenseOsModel> >, wiselib::vector_static<wiselib::iSenseOsModel, wiselib::PLTT_NodeTargetType<wiselib::iSenseOsModel, wiselib::iSenseExtendedTxRadioModel<wiselib::iSenseOsModel>, unsigned short, unsigned char, wiselib::iSenseDebug<wiselib::iSenseOsModel> >, 5>, wiselib::vector_static<wiselib::iSenseOsModel, wiselib::PLTT_TraceType<wiselib::iSenseOsModel, wiselib::iSenseExtendedTxRadioModel<wiselib::iSenseOsModel>, unsigned char, unsigned char, unsigned char, wiselib::NodeType<wiselib::iSenseOsModel, wiselib::iSenseExtendedTxRadioModel<wiselib::iSenseOsModel>, unsigned short, wiselib::Position2DType<wiselib::iSenseOsModel, wiselib::iSenseExtendedTxRadioModel<wiselib::iSenseOsModel>, unsigned short, wiselib::iSenseDebug<wiselib::iSenseOsModel> >, wiselib::iSenseDebug<wiselib::iSenseOsModel> >, unsigned short, wiselib::iSenseDebug<wiselib::iSenseOsModel> >, 5>, wiselib::iSenseDebug<wiselib::iSenseOsModel> >, wiselib::vector_static<wiselib::iSenseOsModel, wiselib::PLTT_NodeType<wiselib::iSenseOsModel, wiselib::iSenseExtendedTxRadioModel<wiselib::iSenseOsModel>, wiselib::NodeType<wiselib::iSenseOsModel, wiselib::iSenseExtendedTxRadioModel<wiselib::iSenseOsModel>, unsigned short, wiselib::Position2DType<wiselib::iSenseOsModel, wiselib::iSenseExtendedTxRadioModel<wiselib::iSenseOsModel>, unsigned short, wiselib::iSenseDebug<wiselib::iSenseOsModel> >, wiselib::iSenseDebug<wiselib::iSenseOsModel> >, wiselib::PLTT_NodeTargetType<wiselib::iSenseOsModel, wiselib::iSenseExtendedTxRadioModel<wiselib::iSenseOsModel>, unsigned short, unsigned char, wiselib::iSenseDebug<wiselib::iSenseOsModel> >, wiselib::vector_static<wiselib::iSenseOsModel, wiselib::PLTT_NodeTargetType<wiselib::iSenseOsModel, wiselib::iSenseExtendedTxRadioModel<wiselib::iSenseOsModel>, unsigned short, unsigned char, wiselib::iSenseDebug<wiselib::iSenseOsModel> >, 5>, wiselib::vector_static<wiselib::iSenseOsModel, wiselib::PLTT_TraceType<wiselib::iSenseOsModel, wiselib::iSenseExtendedTxRadioModel<wiselib::iSenseOsModel>, unsigned char, unsigned char, unsigned char, wiselib::NodeType<wiselib::iSenseOsModel, wiselib::iSenseExtendedTxRadioModel<wiselib::iSenseOsModel>, unsigned short, wiselib::Position2DType<wiselib::iSenseOsModel, wiselib::iSenseExtendedTxRadioModel<wiselib::iSenseOsModel>, unsigned short, wiselib::iSenseDebug<wiselib::iSenseOsModel> >, wiselib::iSenseDebug<wiselib::iSenseOsModel> >, unsigned short, wiselib::iSenseDebug<wiselib::iSenseOsModel> >, 5>, wiselib::iSenseDebug<wiselib::iSenseOsModel> >, 25>, wiselib::PLTT_TraceType<wiselib::iSenseOsModel, wiselib::iSenseExtendedTxRadioModel<wiselib::iSenseOsModel>, unsigned char, unsigned char, unsigned char, wiselib::NodeType<wiselib::iSenseOsModel, wiselib::iSenseExtendedTxRadioModel<wiselib::iSenseOsModel>, unsigned short, wiselib::Position2DType<wiselib::iSenseOsModel, wiselib::iSenseExtendedTxRadioModel<wiselib::iSenseOsModel>, unsigned short, wiselib::iSenseDebug<wiselib::iSenseOsModel> >, wiselib::iSenseDebug<wiselib::iSenseOsModel> >, unsigned short, wiselib::iSenseDebug<wiselib::iSenseOsModel> >, wiselib::vector_static<wiselib::iSenseOsModel, wiselib::PLTT_TraceType<wiselib::iSenseOsModel, wiselib::iSenseExtendedTxRadioModel<wiselib::iSenseOsModel>, unsigned char, unsigned char, unsigned char, wiselib::NodeType<wiselib::iSenseOsModel, wiselib::iSenseExtendedTxRadioModel<wiselib::iSenseOsModel>, unsigned short, wiselib::Position2DType<wiselib::iSenseOsModel, wiselib::iSenseExtendedTxRadioModel<wiselib::iSenseOsModel>, unsigned short, wiselib::iSenseDebug<wiselib::iSenseOsModel> >, wiselib::iSenseDebug<wiselib::iSenseOsModel> >, unsigned short, wiselib::iSenseDebug<wiselib::iSenseOsModel> >, 5>, wiselib::PLTT_SecureTraceType<wiselib::iSenseOsModel, wiselib::iSenseExtendedTxRadioModel<wiselib::iSenseOsModel>, unsigned char, unsigned char, unsigned char, wiselib::NodeType<wiselib::iSenseOsModel, wiselib::iSenseExtendedTxRadioModel<wiselib::iSenseOsModel>, unsigned short, wiselib::Position2DType<wiselib::iSenseOsModel, wiselib::iSenseExtendedTxRadioModel<wiselib::iSenseOsModel>, unsigned short, wiselib::iSenseDebug<wiselib::iSenseOsModel> >, wiselib::iSenseDebug<wiselib::iSenseOsModel> >, unsigned short, wiselib::iSenseDebug<wiselib::iSenseOsModel> >, wiselib::vector_static<wiselib::iSenseOsModel, wiselib::PLTT_SecureTraceType<wiselib::iSenseOsModel, wiselib::iSenseExtendedTxRadioModel<wiselib::iSenseOsModel>, unsigned char, unsigned char, unsigned char, wiselib::NodeType<wiselib::iSenseOsModel, wiselib::iSenseExtendedTxRadioModel<wiselib::iSenseOsModel>, unsigned short, wiselib::Position2DType<wiselib::iSenseOsModel, wiselib::iSenseExtendedTxRadioModel<wiselib::iSenseOsModel>, unsigned short, wiselib::iSenseDebug<wiselib::iSenseOsModel> >, wiselib::iSenseDebug<wiselib::iSenseOsModel> >, unsigned short, wiselib::iSenseDebug<wiselib::iSenseOsModel> >, 25>, wiselib::PLTT_AgentType<wiselib::iSenseOsModel, wiselib::iSenseExtendedTxRadioModel<wiselib::iSenseOsModel>, unsigned short, unsigned char, wiselib::iSenseDebug<wiselib::iSenseOsModel> >, wiselib::NeighborDiscovery_Type<wiselib::iSenseOsModel, wiselib::iSenseExtendedTxRadioModel<wiselib::iSenseOsModel>, wiselib::iSenseClockModel<wiselib::iSenseOsModel, isense::Time>, wiselib::iSenseTimerModel<wiselib::iSenseOsModel>, wiselib::iSenseRandModel<wiselib::iSenseOsModel>, wiselib::iSenseDebug<wiselib::iSenseOsModel> >, wiselib::iSenseTimerModel<wiselib::iSenseOsModel>, wiselib::iSenseExtendedTxRadioModel<wiselib::iSenseOsModel>, wiselib::ReliableRadio_Type<wiselib::iSenseOsModel, wiselib::iSenseExtendedTxRadioModel<wiselib::iSenseOsModel>, wiselib::iSenseClockModel<wiselib::iSenseOsModel, isense::Time>, wiselib::iSenseTimerModel<wiselib::iSenseOsModel>, wiselib::iSenseRandModel<wiselib::iSenseOsModel>, wiselib::iSenseDebug<wiselib::iSenseOsModel> >, wiselib::iSenseRandModel<wiselib::iSenseOsModel>, wiselib::iSenseClockModel<wiselib::iSenseOsModel, isense::Time>, wiselib::iSenseDebug<wiselib::iSenseOsModel> >, &(wiselib::PLTT_PassiveType<wiselib::iSenseOsModel, wiselib::NodeType<wiselib::iSenseOsModel, wiselib::iSenseExtendedTxRadioModel<wiselib::iSenseOsModel>, unsigned short, wiselib::Position2DType<wiselib::iSenseOsModel, wiselib::iSenseExtendedTxRadioModel<wiselib::iSenseOsModel>, unsigned short, wiselib::iSenseDebug<wiselib::iSenseOsModel> >, wiselib::iSenseDebug<wiselib::iSenseOsModel> >, wiselib::PLTT_NodeType<wiselib::iSenseOsModel, wiselib::iSenseExtendedTxRadioModel<wiselib::iSenseOsModel>, wiselib::NodeType<wiselib::iSenseOsModel, wiselib::iSenseExtendedTxRadioModel<wiselib::iSenseOsModel>, unsigned short, wiselib::Position2DType<wiselib::iSenseOsModel, wiselib::iSenseExtendedTxRadioModel<wiselib::iSenseOsModel>, unsigned short, wiselib::iSenseDebug<wiselib::iSenseOsModel> >, wiselib::iSenseDebug<wiselib::iSenseOsModel> >, wiselib::PLTT_NodeTargetType<wiselib::iSenseOsModel, wiselib::iSenseExtendedTxRadioModel<wiselib::iSenseOsModel>, unsigned short, unsigned char, wiselib::iSenseDebug<wiselib::iSenseOsModel> >, wiselib::vector_static<wiselib::iSenseOsModel, wiselib::PLTT_NodeTargetType<wiselib::iSenseOsModel, wiselib::iSenseExtendedTxRadioModel<wiselib::iSenseOsModel>, unsigned short, unsigned char, wiselib::iSenseDebug<wiselib::iSenseOsModel> >, 5>, wiselib::vector_static<wiselib::iSenseOsModel, wiselib::PLTT_TraceType<wiselib::iSenseOsModel, wiselib::iSenseExtendedTxRadioModel<wiselib::iSenseOsModel>, unsigned char, unsigned char, unsigned char, wiselib::NodeType<wiselib::iSenseOsModel, wiselib::iSenseExtendedTxRadioModel<wiselib::iSenseOsModel>, unsigned short, wiselib::Position2DType<wiselib::iSenseOsModel, wiselib::iSenseExtendedTxRadioModel<wiselib::iSenseOsModel>, unsigned short, wiselib::iSenseDebug<wiselib::iSenseOsModel> >, wiselib::iSenseDebug<wiselib::iSenseOsModel> >, unsigned short, wiselib::iSenseDebug<wiselib::iSenseOsModel> >, 5>, wiselib::iSenseDebug<wiselib::iSenseOsModel> >, wiselib::vector_static<wiselib::iSenseOsModel, wiselib::PLTT_NodeType<wiselib::iSenseOsModel, wiselib::iSenseExtendedTxRadioModel<wiselib::iSenseOsModel>, wiselib::NodeType<wiselib::iSenseOsModel, wiselib::iSenseExtendedTxRadioModel<wiselib::iSenseOsModel>, unsigned short, wiselib::Position2DType<wiselib::iSenseOsModel, wiselib::iSenseExtendedTxRadioModel<wiselib::iSenseOsModel>, unsigned short, wiselib::iSenseDebug<wiselib::iSenseOsModel> >, wiselib::iSenseDebug<wiselib::iSenseOsModel> >, wiselib::PLTT_NodeTargetType<wiselib::iSenseOsModel, wiselib::iSenseExtendedTxRadioModel<wiselib::iSenseOsModel>, unsigned short, unsigned char, wiselib::iSenseDebug<wiselib::iSenseOsModel> >, wiselib::vector_static<wiselib::iSenseOsModel, wiselib::PLTT_NodeTargetType<wiselib::iSenseOsModel, wiselib::iSenseExtendedTxRadioModel<wiselib::iSenseOsModel>, unsigned short, unsigned char, wiselib::iSenseDebug<wiselib::iSenseOsModel> >, 5>, wiselib::vector_static<wiselib::iSenseOsModel, wiselib::PLTT_TraceType<wiselib::iSenseOsModel, wiselib::iSenseExtendedTxRadioModel<wiselib::iSenseOsModel>, unsigned char, unsigned char, unsigned char, wiselib::NodeType<wiselib::iSenseOsModel, wiselib::iSenseExtendedTxRadioModel<wiselib::iSenseOsModel>, unsigned short, wiselib::Position2DType<wiselib::iSenseOsModel, wiselib::iSenseExtendedTxRadioModel<wiselib::iSenseOsModel>, unsigned short, wiselib::iSenseDebug<wiselib::iSenseOsModel> >, wiselib::iSenseDebug<wiselib::iSenseOsModel> >, unsigned short, wiselib::iSenseDebug<wiselib::iSenseOsModel> >, 5>, wiselib::iSenseDebug<wiselib::iSenseOsModel> >, 25>, wiselib::PLTT_TraceType<wiselib::iSenseOsModel, wiselib::iSenseExtendedTxRadioModel<wiselib::iSenseOsModel>, unsigned char, unsigned char, unsigned char, wiselib::NodeType<wiselib::iSenseOsModel, wiselib::iSenseExtendedTxRadioModel<wiselib::iSenseOsModel>, unsigned short, wiselib::Position2DType<wiselib::iSenseOsModel, wiselib::iSenseExtendedTxRadioModel<wiselib::iSenseOsModel>, unsigned short, wiselib::iSenseDebug<wiselib::iSenseOsModel> >, wiselib::iSenseDebug<wiselib::iSenseOsModel> >, unsigned short, wiselib::iSenseDebug<wiselib::iSenseOsModel> >, wiselib::vector_static<wiselib::iSenseOsModel, wiselib::PLTT_TraceType<wiselib::iSenseOsModel, wiselib::iSenseExtendedTxRadioModel<wiselib::iSenseOsModel>, unsigned char, unsigned char, unsigned char, wiselib::NodeType<wiselib::iSenseOsModel, wiselib::iSenseExtendedTxRadioModel<wiselib::iSenseOsModel>, unsigned short, wiselib::Position2DType<wiselib::iSenseOsModel, wiselib::iSenseExtendedTxRadioModel<wiselib::iSenseOsModel>, unsigned short, wiselib::iSenseDebug<wiselib::iSenseOsModel> >, wiselib::iSenseDebug<wiselib::iSenseOsModel> >, unsigned short, wiselib::iSenseDebug<wiselib::iSenseOsModel> >, 5>, wiselib::PLTT_SecureTraceType<wiselib::iSenseOsModel, wiselib::iSenseExtendedTxRadioModel<wiselib::iSenseOsModel>, unsigned char, unsigned char, unsigned char, wiselib::NodeType<wiselib::iSenseOsModel, wiselib::iSenseExtendedTxRadioModel<wiselib::iSenseOsModel>, unsigned short, wiselib::Position2DType<wiselib::iSenseOsModel, wiselib::iSenseExtendedTxRadioModel<wiselib::iSenseOsModel>, unsigned short, wiselib::iSenseDebug<wiselib::iSenseOsModel> >, wiselib::iSenseDebug<wiselib::iSenseOsModel> >, unsigned short, wiselib::iSenseDebug<wiselib::iSenseOsModel> >, wiselib::vector_static<wiselib::iSenseOsModel, wiselib::PLTT_SecureTraceType<wiselib::iSenseOsModel, wiselib::iSenseExtendedTxRadioModel<wiselib::iSenseOsModel>, unsigned char, unsigned char, unsigned char, wiselib::NodeType<wiselib::iSenseOsModel, wiselib::iSenseExtendedTxRadioModel<wiselib::iSenseOsModel>, unsigned short, wiselib::Position2DType<wiselib::iSenseOsModel, wiselib::iSenseExtendedTxRadioModel<wiselib::iSenseOsModel>, unsigned short, wiselib::iSenseDebug<wiselib::iSenseOsModel> >, wiselib::iSenseDebug<wiselib::iSenseOsModel> >, unsigned short, wiselib::iSenseDebug<wiselib::iSenseOsModel> >, 25>, wiselib::PLTT_AgentType<wiselib::iSenseOsModel, wiselib::iSenseExtendedTxRadioModel<wiselib::iSenseOsModel>, unsigned short, unsigned char, wiselib::iSenseDebug<wiselib::iSenseOsModel> >, wiselib::NeighborDiscovery_Type<wiselib::iSenseOsModel, wiselib::iSenseExtendedTxRadioModel<wiselib::iSenseOsModel>, wiselib::iSenseClockModel<wiselib::iSenseOsModel, isense::Time>, wiselib::iSenseTimerModel<wiselib::iSenseOsModel>, wiselib::iSenseRandModel<wiselib::iSenseOsModel>, wiselib::iSenseDebug<wiselib::iSenseOsModel> >, wiselib::iSenseTimerModel<wiselib::iSenseOsModel>, wiselib::iSenseExtendedTxRadioModel<wiselib::iSenseOsModel>, wiselib::ReliableRadio_Type<wiselib::iSenseOsModel, wiselib::iSenseExtendedTxRadioModel<wiselib::iSenseOsModel>, wiselib::iSenseClockModel<wiselib::iSenseOsModel, isense::Time>, wiselib::iSenseTimerModel<wiselib::iSenseOsModel>, wiselib::iSenseRandModel<wiselib::iSenseOsModel>, wiselib::iSenseDebug<wiselib::iSenseOsModel> >, wiselib::iSenseRandModel<wiselib::iSenseOsModel>, wiselib::iSenseClockModel<wiselib::iSenseOsModel, isense::Time>, wiselib::iSenseDebug<wiselib::iSenseOsModel> >::neighbor_discovery_disable_task(void*))>(void*, void*)
 .text._ZN9delegate1IvPvE11method_stubIN7wiselib18ReliableRadio_TypeINS3_13iSenseOsModelENS3_26iSenseExtendedTxRadioModelIS5_EENS3_16iSenseClockModelIS5_N6isense4TimeEEENS3_16iSenseTimerModelIS5_EENS3_15iSenseRandModelIS5_EENS3_11iSenseDebugIS5_EEEEXadL_ZNSI_6daemonES0_EEEEvS0_S0_
                0x04002ab4       0x44 out/isense/PLTT_passive_app.o
                0x04002ab4                void delegate1<void, void*>::method_stub<wiselib::ReliableRadio_Type<wiselib::iSenseOsModel, wiselib::iSenseExtendedTxRadioModel<wiselib::iSenseOsModel>, wiselib::iSenseClockModel<wiselib::iSenseOsModel, isense::Time>, wiselib::iSenseTimerModel<wiselib::iSenseOsModel>, wiselib::iSenseRandModel<wiselib::iSenseOsModel>, wiselib::iSenseDebug<wiselib::iSenseOsModel> >, &(wiselib::ReliableRadio_Type<wiselib::iSenseOsModel, wiselib::iSenseExtendedTxRadioModel<wiselib::iSenseOsModel>, wiselib::iSenseClockModel<wiselib::iSenseOsModel, isense::Time>, wiselib::iSenseTimerModel<wiselib::iSenseOsModel>, wiselib::iSenseRandModel<wiselib::iSenseOsModel>, wiselib::iSenseDebug<wiselib::iSenseOsModel> >::daemon(void*))>(void*, void*)
 .text._ZN9delegate1IvPvE11method_stubIN7wiselib22NeighborDiscovery_TypeINS3_13iSenseOsModelENS3_26iSenseExtendedTxRadioModelIS5_EENS3_16iSenseClockModelIS5_N6isense4TimeEEENS3_16iSenseTimerModelIS5_EENS3_15iSenseRandModelIS5_EENS3_11iSenseDebugIS5_EEEEXadL_ZNSI_17nd_metrics_daemonES0_EEEEvS0_S0_
                0x04002af8       0x44 out/isense/PLTT_passive_app.o
                0x04002af8                void delegate1<void, void*>::method_stub<wiselib::NeighborDiscovery_Type<wiselib::iSenseOsModel, wiselib::iSenseExtendedTxRadioModel<wiselib::iSenseOsModel>, wiselib::iSenseClockModel<wiselib::iSenseOsModel, isense::Time>, wiselib::iSenseTimerModel<wiselib::iSenseOsModel>, wiselib::iSenseRandModel<wiselib::iSenseOsModel>, wiselib::iSenseDebug<wiselib::iSenseOsModel> >, &(wiselib::NeighborDiscovery_Type<wiselib::iSenseOsModel, wiselib::iSenseExtendedTxRadioModel<wiselib::iSenseOsModel>, wiselib::iSenseClockModel<wiselib::iSenseOsModel, isense::Time>, wiselib::iSenseTimerModel<wiselib::iSenseOsModel>, wiselib::iSenseRandModel<wiselib::iSenseOsModel>, wiselib::iSenseDebug<wiselib::iSenseOsModel> >::nd_metrics_daemon(void*))>(void*, void*)
 .text._ZN7wiselib20ProtocolPayload_TypeINS_13iSenseOsModelENS_26iSenseExtendedTxRadioModelIS1_EENS_11iSenseDebugIS1_EEE12de_serializeEPhh
                0x04002b3c       0x58 out/isense/PLTT_passive_app.o
                0x04002b3c                wiselib::ProtocolPayload_Type<wiselib::iSenseOsModel, wiselib::iSenseExtendedTxRadioModel<wiselib::iSenseOsModel>, wiselib::iSenseDebug<wiselib::iSenseOsModel> >::de_serialize(unsigned char*, unsigned char)
 .text._ZN7wiselib13Neighbor_TypeINS_13iSenseOsModelENS_26iSenseExtendedTxRadioModelIS1_EENS_16iSenseClockModelIS1_N6isense4TimeEEENS_16iSenseTimerModelIS1_EENS_11iSenseDebugIS1_EEE12de_serializeEPhh
                0x04002b94       0x38 out/isense/PLTT_passive_app.o
                0x04002b94                wiselib::Neighbor_Type<wiselib::iSenseOsModel, wiselib::iSenseExtendedTxRadioModel<wiselib::iSenseOsModel>, wiselib::iSenseClockModel<wiselib::iSenseOsModel, isense::Time>, wiselib::iSenseTimerModel<wiselib::iSenseOsModel>, wiselib::iSenseDebug<wiselib::iSenseOsModel> >::de_serialize(unsigned char*, unsigned char)
 .text._ZN9delegate4IvthPhRKN7wiselib26iSenseExtendedTxRadioModelINS1_13iSenseOsModelEE12ExtendedDataEE11method_stubINS1_22NeighborDiscovery_TypeIS3_S4_NS1_16iSenseClockModelIS3_N6isense4TimeEEENS1_16iSenseTimerModelIS3_EENS1_15iSenseRandModelIS3_EENS1_11iSenseDebugIS3_EEEEXadL_ZNSL_7receiveEthS0_S7_EEEEvPvthS0_S7_
                0x04002bcc       0x4c out/isense/PLTT_passive_app.o
                0x04002bcc                void delegate4<void, unsigned short, unsigned char, unsigned char*, wiselib::iSenseExtendedTxRadioModel<wiselib::iSenseOsModel>::ExtendedData const&>::method_stub<wiselib::NeighborDiscovery_Type<wiselib::iSenseOsModel, wiselib::iSenseExtendedTxRadioModel<wiselib::iSenseOsModel>, wiselib::iSenseClockModel<wiselib::iSenseOsModel, isense::Time>, wiselib::iSenseTimerModel<wiselib::iSenseOsModel>, wiselib::iSenseRandModel<wiselib::iSenseOsModel>, wiselib::iSenseDebug<wiselib::iSenseOsModel> >, &(wiselib::NeighborDiscovery_Type<wiselib::iSenseOsModel, wiselib::iSenseExtendedTxRadioModel<wiselib::iSenseOsModel>, wiselib::iSenseClockModel<wiselib::iSenseOsModel, isense::Time>, wiselib::iSenseTimerModel<wiselib::iSenseOsModel>, wiselib::iSenseRandModel<wiselib::iSenseOsModel>, wiselib::iSenseDebug<wiselib::iSenseOsModel> >::receive(unsigned short, unsigned char, unsigned char*, wiselib::iSenseExtendedTxRadioModel<wiselib::iSenseOsModel>::ExtendedData const&))>(void*, unsigned short, unsigned char, unsigned char*, wiselib::iSenseExtendedTxRadioModel<wiselib::iSenseOsModel>::ExtendedData const&)
 .text._ZN7wiselib20ProtocolPayload_TypeINS_13iSenseOsModelENS_26iSenseExtendedTxRadioModelIS1_EENS_11iSenseDebugIS1_EEE9serializeEPhh
                0x04002c18       0x70 out/isense/PLTT_passive_app.o
                0x04002c18                wiselib::ProtocolPayload_Type<wiselib::iSenseOsModel, wiselib::iSenseExtendedTxRadioModel<wiselib::iSenseOsModel>, wiselib::iSenseDebug<wiselib::iSenseOsModel> >::serialize(unsigned char*, unsigned char)
 .text._ZN7wiselib13Neighbor_TypeINS_13iSenseOsModelENS_26iSenseExtendedTxRadioModelIS1_EENS_16iSenseClockModelIS1_N6isense4TimeEEENS_16iSenseTimerModelIS1_EENS_11iSenseDebugIS1_EEE9serializeEPhh
                0x04002c88       0x30 out/isense/PLTT_passive_app.o
                0x04002c88                wiselib::Neighbor_Type<wiselib::iSenseOsModel, wiselib::iSenseExtendedTxRadioModel<wiselib::iSenseOsModel>, wiselib::iSenseClockModel<wiselib::iSenseOsModel, isense::Time>, wiselib::iSenseTimerModel<wiselib::iSenseOsModel>, wiselib::iSenseDebug<wiselib::iSenseOsModel> >::serialize(unsigned char*, unsigned char)
 .text._ZN7wiselib11Beacon_TypeINS_13iSenseOsModelENS_26iSenseExtendedTxRadioModelIS1_EENS_16iSenseClockModelIS1_N6isense4TimeEEENS_16iSenseTimerModelIS1_EENS_11iSenseDebugIS1_EEE9serializeEPhh
                0x04002cb8      0x1b4 out/isense/PLTT_passive_app.o
                0x04002cb8                wiselib::Beacon_Type<wiselib::iSenseOsModel, wiselib::iSenseExtendedTxRadioModel<wiselib::iSenseOsModel>, wiselib::iSenseClockModel<wiselib::iSenseOsModel, isense::Time>, wiselib::iSenseTimerModel<wiselib::iSenseOsModel>, wiselib::iSenseDebug<wiselib::iSenseOsModel> >::serialize(unsigned char*, unsigned char)
 .text._ZN7wiselib20PLTT_SecureTraceTypeINS_13iSenseOsModelENS_26iSenseExtendedTxRadioModelIS1_EEhhhNS_8NodeTypeIS1_S3_tNS_14Position2DTypeIS1_S3_tNS_11iSenseDebugIS1_EEEES7_EEtS7_EaSERKSA_
                0x04002e6c       0xc8 out/isense/PLTT_passive_app.o
                0x04002e6c                wiselib::PLTT_SecureTraceType<wiselib::iSenseOsModel, wiselib::iSenseExtendedTxRadioModel<wiselib::iSenseOsModel>, unsigned char, unsigned char, unsigned char, wiselib::NodeType<wiselib::iSenseOsModel, wiselib::iSenseExtendedTxRadioModel<wiselib::iSenseOsModel>, unsigned short, wiselib::Position2DType<wiselib::iSenseOsModel, wiselib::iSenseExtendedTxRadioModel<wiselib::iSenseOsModel>, unsigned short, wiselib::iSenseDebug<wiselib::iSenseOsModel> >, wiselib::iSenseDebug<wiselib::iSenseOsModel> >, unsigned short, wiselib::iSenseDebug<wiselib::iSenseOsModel> >::operator=(wiselib::PLTT_SecureTraceType<wiselib::iSenseOsModel, wiselib::iSenseExtendedTxRadioModel<wiselib::iSenseOsModel>, unsigned char, unsigned char, unsigned char, wiselib::NodeType<wiselib::iSenseOsModel, wiselib::iSenseExtendedTxRadioModel<wiselib::iSenseOsModel>, unsigned short, wiselib::Position2DType<wiselib::iSenseOsModel, wiselib::iSenseExtendedTxRadioModel<wiselib::iSenseOsModel>, unsigned short, wiselib::iSenseDebug<wiselib::iSenseOsModel> >, wiselib::iSenseDebug<wiselib::iSenseOsModel> >, unsigned short, wiselib::iSenseDebug<wiselib::iSenseOsModel> > const&)
 .text._ZN7wiselib13vector_staticINS_13iSenseOsModelENS_20PLTT_SecureTraceTypeIS1_NS_26iSenseExtendedTxRadioModelIS1_EEhhhNS_8NodeTypeIS1_S4_tNS_14Position2DTypeIS1_S4_tNS_11iSenseDebugIS1_EEEES8_EEtS8_EELi25EE5eraseENS_15normal_iteratorIS1_PSB_SC_EE
                0x04002f34       0x80 out/isense/PLTT_passive_app.o
                0x04002f34                wiselib::vector_static<wiselib::iSenseOsModel, wiselib::PLTT_SecureTraceType<wiselib::iSenseOsModel, wiselib::iSenseExtendedTxRadioModel<wiselib::iSenseOsModel>, unsigned char, unsigned char, unsigned char, wiselib::NodeType<wiselib::iSenseOsModel, wiselib::iSenseExtendedTxRadioModel<wiselib::iSenseOsModel>, unsigned short, wiselib::Position2DType<wiselib::iSenseOsModel, wiselib::iSenseExtendedTxRadioModel<wiselib::iSenseOsModel>, unsigned short, wiselib::iSenseDebug<wiselib::iSenseOsModel> >, wiselib::iSenseDebug<wiselib::iSenseOsModel> >, unsigned short, wiselib::iSenseDebug<wiselib::iSenseOsModel> >, 25>::erase(wiselib::normal_iterator<wiselib::iSenseOsModel, wiselib::PLTT_SecureTraceType<wiselib::iSenseOsModel, wiselib::iSenseExtendedTxRadioModel<wiselib::iSenseOsModel>, unsigned char, unsigned char, unsigned char, wiselib::NodeType<wiselib::iSenseOsModel, wiselib::iSenseExtendedTxRadioModel<wiselib::iSenseOsModel>, unsigned short, wiselib::Position2DType<wiselib::iSenseOsModel, wiselib::iSenseExtendedTxRadioModel<wiselib::iSenseOsModel>, unsigned short, wiselib::iSenseDebug<wiselib::iSenseOsModel> >, wiselib::iSenseDebug<wiselib::iSenseOsModel> >, unsigned short, wiselib::iSenseDebug<wiselib::iSenseOsModel> >*, wiselib::vector_static<wiselib::iSenseOsModel, wiselib::PLTT_SecureTraceType<wiselib::iSenseOsModel, wiselib::iSenseExtendedTxRadioModel<wiselib::iSenseOsModel>, unsigned char, unsigned char, unsigned char, wiselib::NodeType<wiselib::iSenseOsModel, wiselib::iSenseExtendedTxRadioModel<wiselib::iSenseOsModel>, unsigned short, wiselib::Position2DType<wiselib::iSenseOsModel, wiselib::iSenseExtendedTxRadioModel<wiselib::iSenseOsModel>, unsigned short, wiselib::iSenseDebug<wiselib::iSenseOsModel> >, wiselib::iSenseDebug<wiselib::iSenseOsModel> >, unsigned short, wiselib::iSenseDebug<wiselib::iSenseOsModel> >, 25> >)
 .text._ZN7wiselib20PLTT_SecureTraceTypeINS_13iSenseOsModelENS_26iSenseExtendedTxRadioModelIS1_EEhhhNS_8NodeTypeIS1_S3_tNS_14Position2DTypeIS1_S3_tNS_11iSenseDebugIS1_EEEES7_EEtS7_EC1ERKSA_
                0x04002fb4       0x10 out/isense/PLTT_passive_app.o
                0x04002fb4                wiselib::PLTT_SecureTraceType<wiselib::iSenseOsModel, wiselib::iSenseExtendedTxRadioModel<wiselib::iSenseOsModel>, unsigned char, unsigned char, unsigned char, wiselib::NodeType<wiselib::iSenseOsModel, wiselib::iSenseExtendedTxRadioModel<wiselib::iSenseOsModel>, unsigned short, wiselib::Position2DType<wiselib::iSenseOsModel, wiselib::iSenseExtendedTxRadioModel<wiselib::iSenseOsModel>, unsigned short, wiselib::iSenseDebug<wiselib::iSenseOsModel> >, wiselib::iSenseDebug<wiselib::iSenseOsModel> >, unsigned short, wiselib::iSenseDebug<wiselib::iSenseOsModel> >::PLTT_SecureTraceType(wiselib::PLTT_SecureTraceType<wiselib::iSenseOsModel, wiselib::iSenseExtendedTxRadioModel<wiselib::iSenseOsModel>, unsigned char, unsigned char, unsigned char, wiselib::NodeType<wiselib::iSenseOsModel, wiselib::iSenseExtendedTxRadioModel<wiselib::iSenseOsModel>, unsigned short, wiselib::Position2DType<wiselib::iSenseOsModel, wiselib::iSenseExtendedTxRadioModel<wiselib::iSenseOsModel>, unsigned short, wiselib::iSenseDebug<wiselib::iSenseOsModel> >, wiselib::iSenseDebug<wiselib::iSenseOsModel> >, unsigned short, wiselib::iSenseDebug<wiselib::iSenseOsModel> > const&)
 .text._ZN7wiselib13vector_staticINS_13iSenseOsModelENS_20PLTT_SecureTraceTypeIS1_NS_26iSenseExtendedTxRadioModelIS1_EEhhhNS_8NodeTypeIS1_S4_tNS_14Position2DTypeIS1_S4_tNS_11iSenseDebugIS1_EEEES8_EEtS8_EELi25EE9push_backERKSB_
                0x04002fc4       0x48 out/isense/PLTT_passive_app.o
                0x04002fc4                wiselib::vector_static<wiselib::iSenseOsModel, wiselib::PLTT_SecureTraceType<wiselib::iSenseOsModel, wiselib::iSenseExtendedTxRadioModel<wiselib::iSenseOsModel>, unsigned char, unsigned char, unsigned char, wiselib::NodeType<wiselib::iSenseOsModel, wiselib::iSenseExtendedTxRadioModel<wiselib::iSenseOsModel>, unsigned short, wiselib::Position2DType<wiselib::iSenseOsModel, wiselib::iSenseExtendedTxRadioModel<wiselib::iSenseOsModel>, unsigned short, wiselib::iSenseDebug<wiselib::iSenseOsModel> >, wiselib::iSenseDebug<wiselib::iSenseOsModel> >, unsigned short, wiselib::iSenseDebug<wiselib::iSenseOsModel> >, 25>::push_back(wiselib::PLTT_SecureTraceType<wiselib::iSenseOsModel, wiselib::iSenseExtendedTxRadioModel<wiselib::iSenseOsModel>, unsigned char, unsigned char, unsigned char, wiselib::NodeType<wiselib::iSenseOsModel, wiselib::iSenseExtendedTxRadioModel<wiselib::iSenseOsModel>, unsigned short, wiselib::Position2DType<wiselib::iSenseOsModel, wiselib::iSenseExtendedTxRadioModel<wiselib::iSenseOsModel>, unsigned short, wiselib::iSenseDebug<wiselib::iSenseOsModel> >, wiselib::iSenseDebug<wiselib::iSenseOsModel> >, unsigned short, wiselib::iSenseDebug<wiselib::iSenseOsModel> > const&)
 .text._ZN7wiselib16PLTT_PassiveTypeINS_13iSenseOsModelENS_8NodeTypeIS1_NS_26iSenseExtendedTxRadioModelIS1_EEtNS_14Position2DTypeIS1_S4_tNS_11iSenseDebugIS1_EEEES7_EENS_13PLTT_NodeTypeIS1_S4_S9_NS_19PLTT_NodeTargetTypeIS1_S4_thS7_EENS_13vector_staticIS1_SC_Li5EEENSD_IS1_NS_14PLTT_TraceTypeIS1_S4_hhhS9_tS7_EELi5EEES7_EENSD_IS1_SI_Li25EEESG_SH_NS_20PLTT_SecureTraceTypeIS1_S4_hhhS9_tS7_EENSD_IS1_SL_Li25EEENS_14PLTT_AgentTypeIS1_S4_thS7_EENS_22NeighborDiscovery_TypeIS1_S4_NS_16iSenseClockModelIS1_N6isense4TimeEEENS_16iSenseTimerModelIS1_EENS_15iSenseRandModelIS1_EES7_EESV_S4_NS_18ReliableRadio_TypeIS1_S4_ST_SV_SX_S7_EESX_ST_S7_E26store_inhibit_secure_traceESL_h
                0x0400300c      0x194 out/isense/PLTT_passive_app.o
                0x0400300c                wiselib::PLTT_PassiveType<wiselib::iSenseOsModel, wiselib::NodeType<wiselib::iSenseOsModel, wiselib::iSenseExtendedTxRadioModel<wiselib::iSenseOsModel>, unsigned short, wiselib::Position2DType<wiselib::iSenseOsModel, wiselib::iSenseExtendedTxRadioModel<wiselib::iSenseOsModel>, unsigned short, wiselib::iSenseDebug<wiselib::iSenseOsModel> >, wiselib::iSenseDebug<wiselib::iSenseOsModel> >, wiselib::PLTT_NodeType<wiselib::iSenseOsModel, wiselib::iSenseExtendedTxRadioModel<wiselib::iSenseOsModel>, wiselib::NodeType<wiselib::iSenseOsModel, wiselib::iSenseExtendedTxRadioModel<wiselib::iSenseOsModel>, unsigned short, wiselib::Position2DType<wiselib::iSenseOsModel, wiselib::iSenseExtendedTxRadioModel<wiselib::iSenseOsModel>, unsigned short, wiselib::iSenseDebug<wiselib::iSenseOsModel> >, wiselib::iSenseDebug<wiselib::iSenseOsModel> >, wiselib::PLTT_NodeTargetType<wiselib::iSenseOsModel, wiselib::iSenseExtendedTxRadioModel<wiselib::iSenseOsModel>, unsigned short, unsigned char, wiselib::iSenseDebug<wiselib::iSenseOsModel> >, wiselib::vector_static<wiselib::iSenseOsModel, wiselib::PLTT_NodeTargetType<wiselib::iSenseOsModel, wiselib::iSenseExtendedTxRadioModel<wiselib::iSenseOsModel>, unsigned short, unsigned char, wiselib::iSenseDebug<wiselib::iSenseOsModel> >, 5>, wiselib::vector_static<wiselib::iSenseOsModel, wiselib::PLTT_TraceType<wiselib::iSenseOsModel, wiselib::iSenseExtendedTxRadioModel<wiselib::iSenseOsModel>, unsigned char, unsigned char, unsigned char, wiselib::NodeType<wiselib::iSenseOsModel, wiselib::iSenseExtendedTxRadioModel<wiselib::iSenseOsModel>, unsigned short, wiselib::Position2DType<wiselib::iSenseOsModel, wiselib::iSenseExtendedTxRadioModel<wiselib::iSenseOsModel>, unsigned short, wiselib::iSenseDebug<wiselib::iSenseOsModel> >, wiselib::iSenseDebug<wiselib::iSenseOsModel> >, unsigned short, wiselib::iSenseDebug<wiselib::iSenseOsModel> >, 5>, wiselib::iSenseDebug<wiselib::iSenseOsModel> >, wiselib::vector_static<wiselib::iSenseOsModel, wiselib::PLTT_NodeType<wiselib::iSenseOsModel, wiselib::iSenseExtendedTxRadioModel<wiselib::iSenseOsModel>, wiselib::NodeType<wiselib::iSenseOsModel, wiselib::iSenseExtendedTxRadioModel<wiselib::iSenseOsModel>, unsigned short, wiselib::Position2DType<wiselib::iSenseOsModel, wiselib::iSenseExtendedTxRadioModel<wiselib::iSenseOsModel>, unsigned short, wiselib::iSenseDebug<wiselib::iSenseOsModel> >, wiselib::iSenseDebug<wiselib::iSenseOsModel> >, wiselib::PLTT_NodeTargetType<wiselib::iSenseOsModel, wiselib::iSenseExtendedTxRadioModel<wiselib::iSenseOsModel>, unsigned short, unsigned char, wiselib::iSenseDebug<wiselib::iSenseOsModel> >, wiselib::vector_static<wiselib::iSenseOsModel, wiselib::PLTT_NodeTargetType<wiselib::iSenseOsModel, wiselib::iSenseExtendedTxRadioModel<wiselib::iSenseOsModel>, unsigned short, unsigned char, wiselib::iSenseDebug<wiselib::iSenseOsModel> >, 5>, wiselib::vector_static<wiselib::iSenseOsModel, wiselib::PLTT_TraceType<wiselib::iSenseOsModel, wiselib::iSenseExtendedTxRadioModel<wiselib::iSenseOsModel>, unsigned char, unsigned char, unsigned char, wiselib::NodeType<wiselib::iSenseOsModel, wiselib::iSenseExtendedTxRadioModel<wiselib::iSenseOsModel>, unsigned short, wiselib::Position2DType<wiselib::iSenseOsModel, wiselib::iSenseExtendedTxRadioModel<wiselib::iSenseOsModel>, unsigned short, wiselib::iSenseDebug<wiselib::iSenseOsModel> >, wiselib::iSenseDebug<wiselib::iSenseOsModel> >, unsigned short, wiselib::iSenseDebug<wiselib::iSenseOsModel> >, 5>, wiselib::iSenseDebug<wiselib::iSenseOsModel> >, 25>, wiselib::PLTT_TraceType<wiselib::iSenseOsModel, wiselib::iSenseExtendedTxRadioModel<wiselib::iSenseOsModel>, unsigned char, unsigned char, unsigned char, wiselib::NodeType<wiselib::iSenseOsModel, wiselib::iSenseExtendedTxRadioModel<wiselib::iSenseOsModel>, unsigned short, wiselib::Position2DType<wiselib::iSenseOsModel, wiselib::iSenseExtendedTxRadioModel<wiselib::iSenseOsModel>, unsigned short, wiselib::iSenseDebug<wiselib::iSenseOsModel> >, wiselib::iSenseDebug<wiselib::iSenseOsModel> >, unsigned short, wiselib::iSenseDebug<wiselib::iSenseOsModel> >, wiselib::vector_static<wiselib::iSenseOsModel, wiselib::PLTT_TraceType<wiselib::iSenseOsModel, wiselib::iSenseExtendedTxRadioModel<wiselib::iSenseOsModel>, unsigned char, unsigned char, unsigned char, wiselib::NodeType<wiselib::iSenseOsModel, wiselib::iSenseExtendedTxRadioModel<wiselib::iSenseOsModel>, unsigned short, wiselib::Position2DType<wiselib::iSenseOsModel, wiselib::iSenseExtendedTxRadioModel<wiselib::iSenseOsModel>, unsigned short, wiselib::iSenseDebug<wiselib::iSenseOsModel> >, wiselib::iSenseDebug<wiselib::iSenseOsModel> >, unsigned short, wiselib::iSenseDebug<wiselib::iSenseOsModel> >, 5>, wiselib::PLTT_SecureTraceType<wiselib::iSenseOsModel, wiselib::iSenseExtendedTxRadioModel<wiselib::iSenseOsModel>, unsigned char, unsigned char, unsigned char, wiselib::NodeType<wiselib::iSenseOsModel, wiselib::iSenseExtendedTxRadioModel<wiselib::iSenseOsModel>, unsigned short, wiselib::Position2DType<wiselib::iSenseOsModel, wiselib::iSenseExtendedTxRadioModel<wiselib::iSenseOsModel>, unsigned short, wiselib::iSenseDebug<wiselib::iSenseOsModel> >, wiselib::iSenseDebug<wiselib::iSenseOsModel> >, unsigned short, wiselib::iSenseDebug<wiselib::iSenseOsModel> >, wiselib::vector_static<wiselib::iSenseOsModel, wiselib::PLTT_SecureTraceType<wiselib::iSenseOsModel, wiselib::iSenseExtendedTxRadioModel<wiselib::iSenseOsModel>, unsigned char, unsigned char, unsigned char, wiselib::NodeType<wiselib::iSenseOsModel, wiselib::iSenseExtendedTxRadioModel<wiselib::iSenseOsModel>, unsigned short, wiselib::Position2DType<wiselib::iSenseOsModel, wiselib::iSenseExtendedTxRadioModel<wiselib::iSenseOsModel>, unsigned short, wiselib::iSenseDebug<wiselib::iSenseOsModel> >, wiselib::iSenseDebug<wiselib::iSenseOsModel> >, unsigned short, wiselib::iSenseDebug<wiselib::iSenseOsModel> >, 25>, wiselib::PLTT_AgentType<wiselib::iSenseOsModel, wiselib::iSenseExtendedTxRadioModel<wiselib::iSenseOsModel>, unsigned short, unsigned char, wiselib::iSenseDebug<wiselib::iSenseOsModel> >, wiselib::NeighborDiscovery_Type<wiselib::iSenseOsModel, wiselib::iSenseExtendedTxRadioModel<wiselib::iSenseOsModel>, wiselib::iSenseClockModel<wiselib::iSenseOsModel, isense::Time>, wiselib::iSenseTimerModel<wiselib::iSenseOsModel>, wiselib::iSenseRandModel<wiselib::iSenseOsModel>, wiselib::iSenseDebug<wiselib::iSenseOsModel> >, wiselib::iSenseTimerModel<wiselib::iSenseOsModel>, wiselib::iSenseExtendedTxRadioModel<wiselib::iSenseOsModel>, wiselib::ReliableRadio_Type<wiselib::iSenseOsModel, wiselib::iSenseExtendedTxRadioModel<wiselib::iSenseOsModel>, wiselib::iSenseClockModel<wiselib::iSenseOsModel, isense::Time>, wiselib::iSenseTimerModel<wiselib::iSenseOsModel>, wiselib::iSenseRandModel<wiselib::iSenseOsModel>, wiselib::iSenseDebug<wiselib::iSenseOsModel> >, wiselib::iSenseRandModel<wiselib::iSenseOsModel>, wiselib::iSenseClockModel<wiselib::iSenseOsModel, isense::Time>, wiselib::iSenseDebug<wiselib::iSenseOsModel> >::store_inhibit_secure_trace(wiselib::PLTT_SecureTraceType<wiselib::iSenseOsModel, wiselib::iSenseExtendedTxRadioModel<wiselib::iSenseOsModel>, unsigned char, unsigned char, unsigned char, wiselib::NodeType<wiselib::iSenseOsModel, wiselib::iSenseExtendedTxRadioModel<wiselib::iSenseOsModel>, unsigned short, wiselib::Position2DType<wiselib::iSenseOsModel, wiselib::iSenseExtendedTxRadioModel<wiselib::iSenseOsModel>, unsigned short, wiselib::iSenseDebug<wiselib::iSenseOsModel> >, wiselib::iSenseDebug<wiselib::iSenseOsModel> >, unsigned short, wiselib::iSenseDebug<wiselib::iSenseOsModel> >, unsigned char)
 .text._ZN9delegate4IvthPhRKN7wiselib26iSenseExtendedTxRadioModelINS1_13iSenseOsModelEE12ExtendedDataEE11method_stubINS1_16PLTT_PassiveTypeIS3_NS1_8NodeTypeIS3_S4_tNS1_14Position2DTypeIS3_S4_tNS1_11iSenseDebugIS3_EEEESE_EENS1_13PLTT_NodeTypeIS3_S4_SG_NS1_19PLTT_NodeTargetTypeIS3_S4_thSE_EENS1_13vector_staticIS3_SJ_Li5EEENSK_IS3_NS1_14PLTT_TraceTypeIS3_S4_hhhSG_tSE_EELi5EEESE_EENSK_IS3_SP_Li25EEESN_SO_NS1_20PLTT_SecureTraceTypeIS3_S4_hhhSG_tSE_EENSK_IS3_SS_Li25EEENS1_14PLTT_AgentTypeIS3_S4_thSE_EENS1_22NeighborDiscovery_TypeIS3_S4_NS1_16iSenseClockModelIS3_N6isense4TimeEEENS1_16iSenseTimerModelIS3_EENS1_15iSenseRandModelIS3_EESE_EES12_S4_NS1_18ReliableRadio_TypeIS3_S4_S10_S12_S14_SE_EES14_S10_SE_EEXadL_ZNS18_7receiveEthS0_S7_EEEEvPvthS0_S7_
                0x040031a0       0x4c out/isense/PLTT_passive_app.o
                0x040031a0                void delegate4<void, unsigned short, unsigned char, unsigned char*, wiselib::iSenseExtendedTxRadioModel<wiselib::iSenseOsModel>::ExtendedData const&>::method_stub<wiselib::PLTT_PassiveType<wiselib::iSenseOsModel, wiselib::NodeType<wiselib::iSenseOsModel, wiselib::iSenseExtendedTxRadioModel<wiselib::iSenseOsModel>, unsigned short, wiselib::Position2DType<wiselib::iSenseOsModel, wiselib::iSenseExtendedTxRadioModel<wiselib::iSenseOsModel>, unsigned short, wiselib::iSenseDebug<wiselib::iSenseOsModel> >, wiselib::iSenseDebug<wiselib::iSenseOsModel> >, wiselib::PLTT_NodeType<wiselib::iSenseOsModel, wiselib::iSenseExtendedTxRadioModel<wiselib::iSenseOsModel>, wiselib::NodeType<wiselib::iSenseOsModel, wiselib::iSenseExtendedTxRadioModel<wiselib::iSenseOsModel>, unsigned short, wiselib::Position2DType<wiselib::iSenseOsModel, wiselib::iSenseExtendedTxRadioModel<wiselib::iSenseOsModel>, unsigned short, wiselib::iSenseDebug<wiselib::iSenseOsModel> >, wiselib::iSenseDebug<wiselib::iSenseOsModel> >, wiselib::PLTT_NodeTargetType<wiselib::iSenseOsModel, wiselib::iSenseExtendedTxRadioModel<wiselib::iSenseOsModel>, unsigned short, unsigned char, wiselib::iSenseDebug<wiselib::iSenseOsModel> >, wiselib::vector_static<wiselib::iSenseOsModel, wiselib::PLTT_NodeTargetType<wiselib::iSenseOsModel, wiselib::iSenseExtendedTxRadioModel<wiselib::iSenseOsModel>, unsigned short, unsigned char, wiselib::iSenseDebug<wiselib::iSenseOsModel> >, 5>, wiselib::vector_static<wiselib::iSenseOsModel, wiselib::PLTT_TraceType<wiselib::iSenseOsModel, wiselib::iSenseExtendedTxRadioModel<wiselib::iSenseOsModel>, unsigned char, unsigned char, unsigned char, wiselib::NodeType<wiselib::iSenseOsModel, wiselib::iSenseExtendedTxRadioModel<wiselib::iSenseOsModel>, unsigned short, wiselib::Position2DType<wiselib::iSenseOsModel, wiselib::iSenseExtendedTxRadioModel<wiselib::iSenseOsModel>, unsigned short, wiselib::iSenseDebug<wiselib::iSenseOsModel> >, wiselib::iSenseDebug<wiselib::iSenseOsModel> >, unsigned short, wiselib::iSenseDebug<wiselib::iSenseOsModel> >, 5>, wiselib::iSenseDebug<wiselib::iSenseOsModel> >, wiselib::vector_static<wiselib::iSenseOsModel, wiselib::PLTT_NodeType<wiselib::iSenseOsModel, wiselib::iSenseExtendedTxRadioModel<wiselib::iSenseOsModel>, wiselib::NodeType<wiselib::iSenseOsModel, wiselib::iSenseExtendedTxRadioModel<wiselib::iSenseOsModel>, unsigned short, wiselib::Position2DType<wiselib::iSenseOsModel, wiselib::iSenseExtendedTxRadioModel<wiselib::iSenseOsModel>, unsigned short, wiselib::iSenseDebug<wiselib::iSenseOsModel> >, wiselib::iSenseDebug<wiselib::iSenseOsModel> >, wiselib::PLTT_NodeTargetType<wiselib::iSenseOsModel, wiselib::iSenseExtendedTxRadioModel<wiselib::iSenseOsModel>, unsigned short, unsigned char, wiselib::iSenseDebug<wiselib::iSenseOsModel> >, wiselib::vector_static<wiselib::iSenseOsModel, wiselib::PLTT_NodeTargetType<wiselib::iSenseOsModel, wiselib::iSenseExtendedTxRadioModel<wiselib::iSenseOsModel>, unsigned short, unsigned char, wiselib::iSenseDebug<wiselib::iSenseOsModel> >, 5>, wiselib::vector_static<wiselib::iSenseOsModel, wiselib::PLTT_TraceType<wiselib::iSenseOsModel, wiselib::iSenseExtendedTxRadioModel<wiselib::iSenseOsModel>, unsigned char, unsigned char, unsigned char, wiselib::NodeType<wiselib::iSenseOsModel, wiselib::iSenseExtendedTxRadioModel<wiselib::iSenseOsModel>, unsigned short, wiselib::Position2DType<wiselib::iSenseOsModel, wiselib::iSenseExtendedTxRadioModel<wiselib::iSenseOsModel>, unsigned short, wiselib::iSenseDebug<wiselib::iSenseOsModel> >, wiselib::iSenseDebug<wiselib::iSenseOsModel> >, unsigned short, wiselib::iSenseDebug<wiselib::iSenseOsModel> >, 5>, wiselib::iSenseDebug<wiselib::iSenseOsModel> >, 25>, wiselib::PLTT_TraceType<wiselib::iSenseOsModel, wiselib::iSenseExtendedTxRadioModel<wiselib::iSenseOsModel>, unsigned char, unsigned char, unsigned char, wiselib::NodeType<wiselib::iSenseOsModel, wiselib::iSenseExtendedTxRadioModel<wiselib::iSenseOsModel>, unsigned short, wiselib::Position2DType<wiselib::iSenseOsModel, wiselib::iSenseExtendedTxRadioModel<wiselib::iSenseOsModel>, unsigned short, wiselib::iSenseDebug<wiselib::iSenseOsModel> >, wiselib::iSenseDebug<wiselib::iSenseOsModel> >, unsigned short, wiselib::iSenseDebug<wiselib::iSenseOsModel> >, wiselib::vector_static<wiselib::iSenseOsModel, wiselib::PLTT_TraceType<wiselib::iSenseOsModel, wiselib::iSenseExtendedTxRadioModel<wiselib::iSenseOsModel>, unsigned char, unsigned char, unsigned char, wiselib::NodeType<wiselib::iSenseOsModel, wiselib::iSenseExtendedTxRadioModel<wiselib::iSenseOsModel>, unsigned short, wiselib::Position2DType<wiselib::iSenseOsModel, wiselib::iSenseExtendedTxRadioModel<wiselib::iSenseOsModel>, unsigned short, wiselib::iSenseDebug<wiselib::iSenseOsModel> >, wiselib::iSenseDebug<wiselib::iSenseOsModel> >, unsigned short, wiselib::iSenseDebug<wiselib::iSenseOsModel> >, 5>, wiselib::PLTT_SecureTraceType<wiselib::iSenseOsModel, wiselib::iSenseExtendedTxRadioModel<wiselib::iSenseOsModel>, unsigned char, unsigned char, unsigned char, wiselib::NodeType<wiselib::iSenseOsModel, wiselib::iSenseExtendedTxRadioModel<wiselib::iSenseOsModel>, unsigned short, wiselib::Position2DType<wiselib::iSenseOsModel, wiselib::iSenseExtendedTxRadioModel<wiselib::iSenseOsModel>, unsigned short, wiselib::iSenseDebug<wiselib::iSenseOsModel> >, wiselib::iSenseDebug<wiselib::iSenseOsModel> >, unsigned short, wiselib::iSenseDebug<wiselib::iSenseOsModel> >, wiselib::vector_static<wiselib::iSenseOsModel, wiselib::PLTT_SecureTraceType<wiselib::iSenseOsModel, wiselib::iSenseExtendedTxRadioModel<wiselib::iSenseOsModel>, unsigned char, unsigned char, unsigned char, wiselib::NodeType<wiselib::iSenseOsModel, wiselib::iSenseExtendedTxRadioModel<wiselib::iSenseOsModel>, unsigned short, wiselib::Position2DType<wiselib::iSenseOsModel, wiselib::iSenseExtendedTxRadioModel<wiselib::iSenseOsModel>, unsigned short, wiselib::iSenseDebug<wiselib::iSenseOsModel> >, wiselib::iSenseDebug<wiselib::iSenseOsModel> >, unsigned short, wiselib::iSenseDebug<wiselib::iSenseOsModel> >, 25>, wiselib::PLTT_AgentType<wiselib::iSenseOsModel, wiselib::iSenseExtendedTxRadioModel<wiselib::iSenseOsModel>, unsigned short, unsigned char, wiselib::iSenseDebug<wiselib::iSenseOsModel> >, wiselib::NeighborDiscovery_Type<wiselib::iSenseOsModel, wiselib::iSenseExtendedTxRadioModel<wiselib::iSenseOsModel>, wiselib::iSenseClockModel<wiselib::iSenseOsModel, isense::Time>, wiselib::iSenseTimerModel<wiselib::iSenseOsModel>, wiselib::iSenseRandModel<wiselib::iSenseOsModel>, wiselib::iSenseDebug<wiselib::iSenseOsModel> >, wiselib::iSenseTimerModel<wiselib::iSenseOsModel>, wiselib::iSenseExtendedTxRadioModel<wiselib::iSenseOsModel>, wiselib::ReliableRadio_Type<wiselib::iSenseOsModel, wiselib::iSenseExtendedTxRadioModel<wiselib::iSenseOsModel>, wiselib::iSenseClockModel<wiselib::iSenseOsModel, isense::Time>, wiselib::iSenseTimerModel<wiselib::iSenseOsModel>, wiselib::iSenseRandModel<wiselib::iSenseOsModel>, wiselib::iSenseDebug<wiselib::iSenseOsModel> >, wiselib::iSenseRandModel<wiselib::iSenseOsModel>, wiselib::iSenseClockModel<wiselib::iSenseOsModel, isense::Time>, wiselib::iSenseDebug<wiselib::iSenseOsModel> >, &(wiselib::PLTT_PassiveType<wiselib::iSenseOsModel, wiselib::NodeType<wiselib::iSenseOsModel, wiselib::iSenseExtendedTxRadioModel<wiselib::iSenseOsModel>, unsigned short, wiselib::Position2DType<wiselib::iSenseOsModel, wiselib::iSenseExtendedTxRadioModel<wiselib::iSenseOsModel>, unsigned short, wiselib::iSenseDebug<wiselib::iSenseOsModel> >, wiselib::iSenseDebug<wiselib::iSenseOsModel> >, wiselib::PLTT_NodeType<wiselib::iSenseOsModel, wiselib::iSenseExtendedTxRadioModel<wiselib::iSenseOsModel>, wiselib::NodeType<wiselib::iSenseOsModel, wiselib::iSenseExtendedTxRadioModel<wiselib::iSenseOsModel>, unsigned short, wiselib::Position2DType<wiselib::iSenseOsModel, wiselib::iSenseExtendedTxRadioModel<wiselib::iSenseOsModel>, unsigned short, wiselib::iSenseDebug<wiselib::iSenseOsModel> >, wiselib::iSenseDebug<wiselib::iSenseOsModel> >, wiselib::PLTT_NodeTargetType<wiselib::iSenseOsModel, wiselib::iSenseExtendedTxRadioModel<wiselib::iSenseOsModel>, unsigned short, unsigned char, wiselib::iSenseDebug<wiselib::iSenseOsModel> >, wiselib::vector_static<wiselib::iSenseOsModel, wiselib::PLTT_NodeTargetType<wiselib::iSenseOsModel, wiselib::iSenseExtendedTxRadioModel<wiselib::iSenseOsModel>, unsigned short, unsigned char, wiselib::iSenseDebug<wiselib::iSenseOsModel> >, 5>, wiselib::vector_static<wiselib::iSenseOsModel, wiselib::PLTT_TraceType<wiselib::iSenseOsModel, wiselib::iSenseExtendedTxRadioModel<wiselib::iSenseOsModel>, unsigned char, unsigned char, unsigned char, wiselib::NodeType<wiselib::iSenseOsModel, wiselib::iSenseExtendedTxRadioModel<wiselib::iSenseOsModel>, unsigned short, wiselib::Position2DType<wiselib::iSenseOsModel, wiselib::iSenseExtendedTxRadioModel<wiselib::iSenseOsModel>, unsigned short, wiselib::iSenseDebug<wiselib::iSenseOsModel> >, wiselib::iSenseDebug<wiselib::iSenseOsModel> >, unsigned short, wiselib::iSenseDebug<wiselib::iSenseOsModel> >, 5>, wiselib::iSenseDebug<wiselib::iSenseOsModel> >, wiselib::vector_static<wiselib::iSenseOsModel, wiselib::PLTT_NodeType<wiselib::iSenseOsModel, wiselib::iSenseExtendedTxRadioModel<wiselib::iSenseOsModel>, wiselib::NodeType<wiselib::iSenseOsModel, wiselib::iSenseExtendedTxRadioModel<wiselib::iSenseOsModel>, unsigned short, wiselib::Position2DType<wiselib::iSenseOsModel, wiselib::iSenseExtendedTxRadioModel<wiselib::iSenseOsModel>, unsigned short, wiselib::iSenseDebug<wiselib::iSenseOsModel> >, wiselib::iSenseDebug<wiselib::iSenseOsModel> >, wiselib::PLTT_NodeTargetType<wiselib::iSenseOsModel, wiselib::iSenseExtendedTxRadioModel<wiselib::iSenseOsModel>, unsigned short, unsigned char, wiselib::iSenseDebug<wiselib::iSenseOsModel> >, wiselib::vector_static<wiselib::iSenseOsModel, wiselib::PLTT_NodeTargetType<wiselib::iSenseOsModel, wiselib::iSenseExtendedTxRadioModel<wiselib::iSenseOsModel>, unsigned short, unsigned char, wiselib::iSenseDebug<wiselib::iSenseOsModel> >, 5>, wiselib::vector_static<wiselib::iSenseOsModel, wiselib::PLTT_TraceType<wiselib::iSenseOsModel, wiselib::iSenseExtendedTxRadioModel<wiselib::iSenseOsModel>, unsigned char, unsigned char, unsigned char, wiselib::NodeType<wiselib::iSenseOsModel, wiselib::iSenseExtendedTxRadioModel<wiselib::iSenseOsModel>, unsigned short, wiselib::Position2DType<wiselib::iSenseOsModel, wiselib::iSenseExtendedTxRadioModel<wiselib::iSenseOsModel>, unsigned short, wiselib::iSenseDebug<wiselib::iSenseOsModel> >, wiselib::iSenseDebug<wiselib::iSenseOsModel> >, unsigned short, wiselib::iSenseDebug<wiselib::iSenseOsModel> >, 5>, wiselib::iSenseDebug<wiselib::iSenseOsModel> >, 25>, wiselib::PLTT_TraceType<wiselib::iSenseOsModel, wiselib::iSenseExtendedTxRadioModel<wiselib::iSenseOsModel>, unsigned char, unsigned char, unsigned char, wiselib::NodeType<wiselib::iSenseOsModel, wiselib::iSenseExtendedTxRadioModel<wiselib::iSenseOsModel>, unsigned short, wiselib::Position2DType<wiselib::iSenseOsModel, wiselib::iSenseExtendedTxRadioModel<wiselib::iSenseOsModel>, unsigned short, wiselib::iSenseDebug<wiselib::iSenseOsModel> >, wiselib::iSenseDebug<wiselib::iSenseOsModel> >, unsigned short, wiselib::iSenseDebug<wiselib::iSenseOsModel> >, wiselib::vector_static<wiselib::iSenseOsModel, wiselib::PLTT_TraceType<wiselib::iSenseOsModel, wiselib::iSenseExtendedTxRadioModel<wiselib::iSenseOsModel>, unsigned char, unsigned char, unsigned char, wiselib::NodeType<wiselib::iSenseOsModel, wiselib::iSenseExtendedTxRadioModel<wiselib::iSenseOsModel>, unsigned short, wiselib::Position2DType<wiselib::iSenseOsModel, wiselib::iSenseExtendedTxRadioModel<wiselib::iSenseOsModel>, unsigned short, wiselib::iSenseDebug<wiselib::iSenseOsModel> >, wiselib::iSenseDebug<wiselib::iSenseOsModel> >, unsigned short, wiselib::iSenseDebug<wiselib::iSenseOsModel> >, 5>, wiselib::PLTT_SecureTraceType<wiselib::iSenseOsModel, wiselib::iSenseExtendedTxRadioModel<wiselib::iSenseOsModel>, unsigned char, unsigned char, unsigned char, wiselib::NodeType<wiselib::iSenseOsModel, wiselib::iSenseExtendedTxRadioModel<wiselib::iSenseOsModel>, unsigned short, wiselib::Position2DType<wiselib::iSenseOsModel, wiselib::iSenseExtendedTxRadioModel<wiselib::iSenseOsModel>, unsigned short, wiselib::iSenseDebug<wiselib::iSenseOsModel> >, wiselib::iSenseDebug<wiselib::iSenseOsModel> >, unsigned short, wiselib::iSenseDebug<wiselib::iSenseOsModel> >, wiselib::vector_static<wiselib::iSenseOsModel, wiselib::PLTT_SecureTraceType<wiselib::iSenseOsModel, wiselib::iSenseExtendedTxRadioModel<wiselib::iSenseOsModel>, unsigned char, unsigned char, unsigned char, wiselib::NodeType<wiselib::iSenseOsModel, wiselib::iSenseExtendedTxRadioModel<wiselib::iSenseOsModel>, unsigned short, wiselib::Position2DType<wiselib::iSenseOsModel, wiselib::iSenseExtendedTxRadioModel<wiselib::iSenseOsModel>, unsigned short, wiselib::iSenseDebug<wiselib::iSenseOsModel> >, wiselib::iSenseDebug<wiselib::iSenseOsModel> >, unsigned short, wiselib::iSenseDebug<wiselib::iSenseOsModel> >, 25>, wiselib::PLTT_AgentType<wiselib::iSenseOsModel, wiselib::iSenseExtendedTxRadioModel<wiselib::iSenseOsModel>, unsigned short, unsigned char, wiselib::iSenseDebug<wiselib::iSenseOsModel> >, wiselib::NeighborDiscovery_Type<wiselib::iSenseOsModel, wiselib::iSenseExtendedTxRadioModel<wiselib::iSenseOsModel>, wiselib::iSenseClockModel<wiselib::iSenseOsModel, isense::Time>, wiselib::iSenseTimerModel<wiselib::iSenseOsModel>, wiselib::iSenseRandModel<wiselib::iSenseOsModel>, wiselib::iSenseDebug<wiselib::iSenseOsModel> >, wiselib::iSenseTimerModel<wiselib::iSenseOsModel>, wiselib::iSenseExtendedTxRadioModel<wiselib::iSenseOsModel>, wiselib::ReliableRadio_Type<wiselib::iSenseOsModel, wiselib::iSenseExtendedTxRadioModel<wiselib::iSenseOsModel>, wiselib::iSenseClockModel<wiselib::iSenseOsModel, isense::Time>, wiselib::iSenseTimerModel<wiselib::iSenseOsModel>, wiselib::iSenseRandModel<wiselib::iSenseOsModel>, wiselib::iSenseDebug<wiselib::iSenseOsModel> >, wiselib::iSenseRandModel<wiselib::iSenseOsModel>, wiselib::iSenseClockModel<wiselib::iSenseOsModel, isense::Time>, wiselib::iSenseDebug<wiselib::iSenseOsModel> >::receive(unsigned short, unsigned char, unsigned char*, wiselib::iSenseExtendedTxRadioModel<wiselib::iSenseOsModel>::ExtendedData const&))>(void*, unsigned short, unsigned char, unsigned char*, wiselib::iSenseExtendedTxRadioModel<wiselib::iSenseOsModel>::ExtendedData const&)
 .text._ZN9delegate1IvPvE11method_stubIN7wiselib22NeighborDiscovery_TypeINS3_13iSenseOsModelENS3_26iSenseExtendedTxRadioModelIS5_EENS3_16iSenseClockModelIS5_N6isense4TimeEEENS3_16iSenseTimerModelIS5_EENS3_15iSenseRandModelIS5_EENS3_11iSenseDebugIS5_EEEEXadL_ZNSI_7beaconsES0_EEEEvS0_S0_
                0x040031ec       0x44 out/isense/PLTT_passive_app.o
                0x040031ec                void delegate1<void, void*>::method_stub<wiselib::NeighborDiscovery_Type<wiselib::iSenseOsModel, wiselib::iSenseExtendedTxRadioModel<wiselib::iSenseOsModel>, wiselib::iSenseClockModel<wiselib::iSenseOsModel, isense::Time>, wiselib::iSenseTimerModel<wiselib::iSenseOsModel>, wiselib::iSenseRandModel<wiselib::iSenseOsModel>, wiselib::iSenseDebug<wiselib::iSenseOsModel> >, &(wiselib::NeighborDiscovery_Type<wiselib::iSenseOsModel, wiselib::iSenseExtendedTxRadioModel<wiselib::iSenseOsModel>, wiselib::iSenseClockModel<wiselib::iSenseOsModel, isense::Time>, wiselib::iSenseTimerModel<wiselib::iSenseOsModel>, wiselib::iSenseRandModel<wiselib::iSenseOsModel>, wiselib::iSenseDebug<wiselib::iSenseOsModel> >::beacons(void*))>(void*, void*)
 .text._ZN9delegate1IvPvE11method_stubIN7wiselib22NeighborDiscovery_TypeINS3_13iSenseOsModelENS3_26iSenseExtendedTxRadioModelIS5_EENS3_16iSenseClockModelIS5_N6isense4TimeEEENS3_16iSenseTimerModelIS5_EENS3_15iSenseRandModelIS5_EENS3_11iSenseDebugIS5_EEEEXadL_ZNSI_9nd_daemonES0_EEEEvS0_S0_
                0x04003230       0x44 out/isense/PLTT_passive_app.o
                0x04003230                void delegate1<void, void*>::method_stub<wiselib::NeighborDiscovery_Type<wiselib::iSenseOsModel, wiselib::iSenseExtendedTxRadioModel<wiselib::iSenseOsModel>, wiselib::iSenseClockModel<wiselib::iSenseOsModel, isense::Time>, wiselib::iSenseTimerModel<wiselib::iSenseOsModel>, wiselib::iSenseRandModel<wiselib::iSenseOsModel>, wiselib::iSenseDebug<wiselib::iSenseOsModel> >, &(wiselib::NeighborDiscovery_Type<wiselib::iSenseOsModel, wiselib::iSenseExtendedTxRadioModel<wiselib::iSenseOsModel>, wiselib::iSenseClockModel<wiselib::iSenseOsModel, isense::Time>, wiselib::iSenseTimerModel<wiselib::iSenseOsModel>, wiselib::iSenseRandModel<wiselib::iSenseOsModel>, wiselib::iSenseDebug<wiselib::iSenseOsModel> >::nd_daemon(void*))>(void*, void*)
 .text._ZN7wiselib8NodeTypeINS_13iSenseOsModelENS_26iSenseExtendedTxRadioModelIS1_EEtNS_14Position2DTypeIS1_S3_tNS_11iSenseDebugIS1_EEEES6_E12de_serializeEPhh
                0x04003274       0x6c out/isense/PLTT_passive_app.o
                0x04003274                wiselib::NodeType<wiselib::iSenseOsModel, wiselib::iSenseExtendedTxRadioModel<wiselib::iSenseOsModel>, unsigned short, wiselib::Position2DType<wiselib::iSenseOsModel, wiselib::iSenseExtendedTxRadioModel<wiselib::iSenseOsModel>, unsigned short, wiselib::iSenseDebug<wiselib::iSenseOsModel> >, wiselib::iSenseDebug<wiselib::iSenseOsModel> >::de_serialize(unsigned char*, unsigned char)
 .text._ZN7wiselib20PLTT_SecureTraceTypeINS_13iSenseOsModelENS_26iSenseExtendedTxRadioModelIS1_EEhhhNS_8NodeTypeIS1_S3_tNS_14Position2DTypeIS1_S3_tNS_11iSenseDebugIS1_EEEES7_EEtS7_E12de_serializeEPhh
                0x040032e0       0xf8 out/isense/PLTT_passive_app.o
                0x040032e0                wiselib::PLTT_SecureTraceType<wiselib::iSenseOsModel, wiselib::iSenseExtendedTxRadioModel<wiselib::iSenseOsModel>, unsigned char, unsigned char, unsigned char, wiselib::NodeType<wiselib::iSenseOsModel, wiselib::iSenseExtendedTxRadioModel<wiselib::iSenseOsModel>, unsigned short, wiselib::Position2DType<wiselib::iSenseOsModel, wiselib::iSenseExtendedTxRadioModel<wiselib::iSenseOsModel>, unsigned short, wiselib::iSenseDebug<wiselib::iSenseOsModel> >, wiselib::iSenseDebug<wiselib::iSenseOsModel> >, unsigned short, wiselib::iSenseDebug<wiselib::iSenseOsModel> >::de_serialize(unsigned char*, unsigned char)
 .text._ZN7wiselib20PLTT_SecureTraceTypeINS_13iSenseOsModelENS_26iSenseExtendedTxRadioModelIS1_EEhhhNS_8NodeTypeIS1_S3_tNS_14Position2DTypeIS1_S3_tNS_11iSenseDebugIS1_EEEES7_EEtS7_EC1EPhh
                0x040033d8       0x68 out/isense/PLTT_passive_app.o
                0x040033d8                wiselib::PLTT_SecureTraceType<wiselib::iSenseOsModel, wiselib::iSenseExtendedTxRadioModel<wiselib::iSenseOsModel>, unsigned char, unsigned char, unsigned char, wiselib::NodeType<wiselib::iSenseOsModel, wiselib::iSenseExtendedTxRadioModel<wiselib::iSenseOsModel>, unsigned short, wiselib::Position2DType<wiselib::iSenseOsModel, wiselib::iSenseExtendedTxRadioModel<wiselib::iSenseOsModel>, unsigned short, wiselib::iSenseDebug<wiselib::iSenseOsModel> >, wiselib::iSenseDebug<wiselib::iSenseOsModel> >, unsigned short, wiselib::iSenseDebug<wiselib::iSenseOsModel> >::PLTT_SecureTraceType(unsigned char*, unsigned char)
 .text._ZN7wiselib13vector_staticINS_13iSenseOsModelENS_8NodeTypeIS1_NS_26iSenseExtendedTxRadioModelIS1_EEtNS_14Position2DTypeIS1_S4_tNS_11iSenseDebugIS1_EEEES7_EELi100EE5eraseENS_15normal_iteratorIS1_PS9_SA_EE
                0x04003440       0x64 out/isense/PLTT_passive_app.o
                0x04003440                wiselib::vector_static<wiselib::iSenseOsModel, wiselib::NodeType<wiselib::iSenseOsModel, wiselib::iSenseExtendedTxRadioModel<wiselib::iSenseOsModel>, unsigned short, wiselib::Position2DType<wiselib::iSenseOsModel, wiselib::iSenseExtendedTxRadioModel<wiselib::iSenseOsModel>, unsigned short, wiselib::iSenseDebug<wiselib::iSenseOsModel> >, wiselib::iSenseDebug<wiselib::iSenseOsModel> >, 100>::erase(wiselib::normal_iterator<wiselib::iSenseOsModel, wiselib::NodeType<wiselib::iSenseOsModel, wiselib::iSenseExtendedTxRadioModel<wiselib::iSenseOsModel>, unsigned short, wiselib::Position2DType<wiselib::iSenseOsModel, wiselib::iSenseExtendedTxRadioModel<wiselib::iSenseOsModel>, unsigned short, wiselib::iSenseDebug<wiselib::iSenseOsModel> >, wiselib::iSenseDebug<wiselib::iSenseOsModel> >*, wiselib::vector_static<wiselib::iSenseOsModel, wiselib::NodeType<wiselib::iSenseOsModel, wiselib::iSenseExtendedTxRadioModel<wiselib::iSenseOsModel>, unsigned short, wiselib::Position2DType<wiselib::iSenseOsModel, wiselib::iSenseExtendedTxRadioModel<wiselib::iSenseOsModel>, unsigned short, wiselib::iSenseDebug<wiselib::iSenseOsModel> >, wiselib::iSenseDebug<wiselib::iSenseOsModel> >, 100> >)
 .text._ZN7wiselib20PLTT_SecureTraceTypeINS_13iSenseOsModelENS_26iSenseExtendedTxRadioModelIS1_EEhhhNS_8NodeTypeIS1_S3_tNS_14Position2DTypeIS1_S3_tNS_11iSenseDebugIS1_EEEES7_EEtS7_E11serial_sizeEv
                0x040034a4        0x8 out/isense/PLTT_passive_app.o
                0x040034a4                wiselib::PLTT_SecureTraceType<wiselib::iSenseOsModel, wiselib::iSenseExtendedTxRadioModel<wiselib::iSenseOsModel>, unsigned char, unsigned char, unsigned char, wiselib::NodeType<wiselib::iSenseOsModel, wiselib::iSenseExtendedTxRadioModel<wiselib::iSenseOsModel>, unsigned short, wiselib::Position2DType<wiselib::iSenseOsModel, wiselib::iSenseExtendedTxRadioModel<wiselib::iSenseOsModel>, unsigned short, wiselib::iSenseDebug<wiselib::iSenseOsModel> >, wiselib::iSenseDebug<wiselib::iSenseOsModel> >, unsigned short, wiselib::iSenseDebug<wiselib::iSenseOsModel> >::serial_size()
 .text._ZN7wiselib16PLTT_PassiveTypeINS_13iSenseOsModelENS_8NodeTypeIS1_NS_26iSenseExtendedTxRadioModelIS1_EEtNS_14Position2DTypeIS1_S4_tNS_11iSenseDebugIS1_EEEES7_EENS_13PLTT_NodeTypeIS1_S4_S9_NS_19PLTT_NodeTargetTypeIS1_S4_thS7_EENS_13vector_staticIS1_SC_Li5EEENSD_IS1_NS_14PLTT_TraceTypeIS1_S4_hhhS9_tS7_EELi5EEES7_EENSD_IS1_SI_Li25EEESG_SH_NS_20PLTT_SecureTraceTypeIS1_S4_hhhS9_tS7_EENSD_IS1_SL_Li25EEENS_14PLTT_AgentTypeIS1_S4_thS7_EENS_22NeighborDiscovery_TypeIS1_S4_NS_16iSenseClockModelIS1_N6isense4TimeEEENS_16iSenseTimerModelIS1_EENS_15iSenseRandModelIS1_EES7_EESV_S4_NS_18ReliableRadio_TypeIS1_S4_ST_SV_SX_S7_EESX_ST_S7_E18erase_secure_traceESL_
                0x040034ac       0xa4 out/isense/PLTT_passive_app.o
                0x040034ac                wiselib::PLTT_PassiveType<wiselib::iSenseOsModel, wiselib::NodeType<wiselib::iSenseOsModel, wiselib::iSenseExtendedTxRadioModel<wiselib::iSenseOsModel>, unsigned short, wiselib::Position2DType<wiselib::iSenseOsModel, wiselib::iSenseExtendedTxRadioModel<wiselib::iSenseOsModel>, unsigned short, wiselib::iSenseDebug<wiselib::iSenseOsModel> >, wiselib::iSenseDebug<wiselib::iSenseOsModel> >, wiselib::PLTT_NodeType<wiselib::iSenseOsModel, wiselib::iSenseExtendedTxRadioModel<wiselib::iSenseOsModel>, wiselib::NodeType<wiselib::iSenseOsModel, wiselib::iSenseExtendedTxRadioModel<wiselib::iSenseOsModel>, unsigned short, wiselib::Position2DType<wiselib::iSenseOsModel, wiselib::iSenseExtendedTxRadioModel<wiselib::iSenseOsModel>, unsigned short, wiselib::iSenseDebug<wiselib::iSenseOsModel> >, wiselib::iSenseDebug<wiselib::iSenseOsModel> >, wiselib::PLTT_NodeTargetType<wiselib::iSenseOsModel, wiselib::iSenseExtendedTxRadioModel<wiselib::iSenseOsModel>, unsigned short, unsigned char, wiselib::iSenseDebug<wiselib::iSenseOsModel> >, wiselib::vector_static<wiselib::iSenseOsModel, wiselib::PLTT_NodeTargetType<wiselib::iSenseOsModel, wiselib::iSenseExtendedTxRadioModel<wiselib::iSenseOsModel>, unsigned short, unsigned char, wiselib::iSenseDebug<wiselib::iSenseOsModel> >, 5>, wiselib::vector_static<wiselib::iSenseOsModel, wiselib::PLTT_TraceType<wiselib::iSenseOsModel, wiselib::iSenseExtendedTxRadioModel<wiselib::iSenseOsModel>, unsigned char, unsigned char, unsigned char, wiselib::NodeType<wiselib::iSenseOsModel, wiselib::iSenseExtendedTxRadioModel<wiselib::iSenseOsModel>, unsigned short, wiselib::Position2DType<wiselib::iSenseOsModel, wiselib::iSenseExtendedTxRadioModel<wiselib::iSenseOsModel>, unsigned short, wiselib::iSenseDebug<wiselib::iSenseOsModel> >, wiselib::iSenseDebug<wiselib::iSenseOsModel> >, unsigned short, wiselib::iSenseDebug<wiselib::iSenseOsModel> >, 5>, wiselib::iSenseDebug<wiselib::iSenseOsModel> >, wiselib::vector_static<wiselib::iSenseOsModel, wiselib::PLTT_NodeType<wiselib::iSenseOsModel, wiselib::iSenseExtendedTxRadioModel<wiselib::iSenseOsModel>, wiselib::NodeType<wiselib::iSenseOsModel, wiselib::iSenseExtendedTxRadioModel<wiselib::iSenseOsModel>, unsigned short, wiselib::Position2DType<wiselib::iSenseOsModel, wiselib::iSenseExtendedTxRadioModel<wiselib::iSenseOsModel>, unsigned short, wiselib::iSenseDebug<wiselib::iSenseOsModel> >, wiselib::iSenseDebug<wiselib::iSenseOsModel> >, wiselib::PLTT_NodeTargetType<wiselib::iSenseOsModel, wiselib::iSenseExtendedTxRadioModel<wiselib::iSenseOsModel>, unsigned short, unsigned char, wiselib::iSenseDebug<wiselib::iSenseOsModel> >, wiselib::vector_static<wiselib::iSenseOsModel, wiselib::PLTT_NodeTargetType<wiselib::iSenseOsModel, wiselib::iSenseExtendedTxRadioModel<wiselib::iSenseOsModel>, unsigned short, unsigned char, wiselib::iSenseDebug<wiselib::iSenseOsModel> >, 5>, wiselib::vector_static<wiselib::iSenseOsModel, wiselib::PLTT_TraceType<wiselib::iSenseOsModel, wiselib::iSenseExtendedTxRadioModel<wiselib::iSenseOsModel>, unsigned char, unsigned char, unsigned char, wiselib::NodeType<wiselib::iSenseOsModel, wiselib::iSenseExtendedTxRadioModel<wiselib::iSenseOsModel>, unsigned short, wiselib::Position2DType<wiselib::iSenseOsModel, wiselib::iSenseExtendedTxRadioModel<wiselib::iSenseOsModel>, unsigned short, wiselib::iSenseDebug<wiselib::iSenseOsModel> >, wiselib::iSenseDebug<wiselib::iSenseOsModel> >, unsigned short, wiselib::iSenseDebug<wiselib::iSenseOsModel> >, 5>, wiselib::iSenseDebug<wiselib::iSenseOsModel> >, 25>, wiselib::PLTT_TraceType<wiselib::iSenseOsModel, wiselib::iSenseExtendedTxRadioModel<wiselib::iSenseOsModel>, unsigned char, unsigned char, unsigned char, wiselib::NodeType<wiselib::iSenseOsModel, wiselib::iSenseExtendedTxRadioModel<wiselib::iSenseOsModel>, unsigned short, wiselib::Position2DType<wiselib::iSenseOsModel, wiselib::iSenseExtendedTxRadioModel<wiselib::iSenseOsModel>, unsigned short, wiselib::iSenseDebug<wiselib::iSenseOsModel> >, wiselib::iSenseDebug<wiselib::iSenseOsModel> >, unsigned short, wiselib::iSenseDebug<wiselib::iSenseOsModel> >, wiselib::vector_static<wiselib::iSenseOsModel, wiselib::PLTT_TraceType<wiselib::iSenseOsModel, wiselib::iSenseExtendedTxRadioModel<wiselib::iSenseOsModel>, unsigned char, unsigned char, unsigned char, wiselib::NodeType<wiselib::iSenseOsModel, wiselib::iSenseExtendedTxRadioModel<wiselib::iSenseOsModel>, unsigned short, wiselib::Position2DType<wiselib::iSenseOsModel, wiselib::iSenseExtendedTxRadioModel<wiselib::iSenseOsModel>, unsigned short, wiselib::iSenseDebug<wiselib::iSenseOsModel> >, wiselib::iSenseDebug<wiselib::iSenseOsModel> >, unsigned short, wiselib::iSenseDebug<wiselib::iSenseOsModel> >, 5>, wiselib::PLTT_SecureTraceType<wiselib::iSenseOsModel, wiselib::iSenseExtendedTxRadioModel<wiselib::iSenseOsModel>, unsigned char, unsigned char, unsigned char, wiselib::NodeType<wiselib::iSenseOsModel, wiselib::iSenseExtendedTxRadioModel<wiselib::iSenseOsModel>, unsigned short, wiselib::Position2DType<wiselib::iSenseOsModel, wiselib::iSenseExtendedTxRadioModel<wiselib::iSenseOsModel>, unsigned short, wiselib::iSenseDebug<wiselib::iSenseOsModel> >, wiselib::iSenseDebug<wiselib::iSenseOsModel> >, unsigned short, wiselib::iSenseDebug<wiselib::iSenseOsModel> >, wiselib::vector_static<wiselib::iSenseOsModel, wiselib::PLTT_SecureTraceType<wiselib::iSenseOsModel, wiselib::iSenseExtendedTxRadioModel<wiselib::iSenseOsModel>, unsigned char, unsigned char, unsigned char, wiselib::NodeType<wiselib::iSenseOsModel, wiselib::iSenseExtendedTxRadioModel<wiselib::iSenseOsModel>, unsigned short, wiselib::Position2DType<wiselib::iSenseOsModel, wiselib::iSenseExtendedTxRadioModel<wiselib::iSenseOsModel>, unsigned short, wiselib::iSenseDebug<wiselib::iSenseOsModel> >, wiselib::iSenseDebug<wiselib::iSenseOsModel> >, unsigned short, wiselib::iSenseDebug<wiselib::iSenseOsModel> >, 25>, wiselib::PLTT_AgentType<wiselib::iSenseOsModel, wiselib::iSenseExtendedTxRadioModel<wiselib::iSenseOsModel>, unsigned short, unsigned char, wiselib::iSenseDebug<wiselib::iSenseOsModel> >, wiselib::NeighborDiscovery_Type<wiselib::iSenseOsModel, wiselib::iSenseExtendedTxRadioModel<wiselib::iSenseOsModel>, wiselib::iSenseClockModel<wiselib::iSenseOsModel, isense::Time>, wiselib::iSenseTimerModel<wiselib::iSenseOsModel>, wiselib::iSenseRandModel<wiselib::iSenseOsModel>, wiselib::iSenseDebug<wiselib::iSenseOsModel> >, wiselib::iSenseTimerModel<wiselib::iSenseOsModel>, wiselib::iSenseExtendedTxRadioModel<wiselib::iSenseOsModel>, wiselib::ReliableRadio_Type<wiselib::iSenseOsModel, wiselib::iSenseExtendedTxRadioModel<wiselib::iSenseOsModel>, wiselib::iSenseClockModel<wiselib::iSenseOsModel, isense::Time>, wiselib::iSenseTimerModel<wiselib::iSenseOsModel>, wiselib::iSenseRandModel<wiselib::iSenseOsModel>, wiselib::iSenseDebug<wiselib::iSenseOsModel> >, wiselib::iSenseRandModel<wiselib::iSenseOsModel>, wiselib::iSenseClockModel<wiselib::iSenseOsModel, isense::Time>, wiselib::iSenseDebug<wiselib::iSenseOsModel> >::erase_secure_trace(wiselib::PLTT_SecureTraceType<wiselib::iSenseOsModel, wiselib::iSenseExtendedTxRadioModel<wiselib::iSenseOsModel>, unsigned char, unsigned char, unsigned char, wiselib::NodeType<wiselib::iSenseOsModel, wiselib::iSenseExtendedTxRadioModel<wiselib::iSenseOsModel>, unsigned short, wiselib::Position2DType<wiselib::iSenseOsModel, wiselib::iSenseExtendedTxRadioModel<wiselib::iSenseOsModel>, unsigned short, wiselib::iSenseDebug<wiselib::iSenseOsModel> >, wiselib::iSenseDebug<wiselib::iSenseOsModel> >, unsigned short, wiselib::iSenseDebug<wiselib::iSenseOsModel> >)
 .text._ZN9delegate1IvPvE11method_stubIN7wiselib16PLTT_PassiveTypeINS3_13iSenseOsModelENS3_8NodeTypeIS5_NS3_26iSenseExtendedTxRadioModelIS5_EEtNS3_14Position2DTypeIS5_S8_tNS3_11iSenseDebugIS5_EEEESB_EENS3_13PLTT_NodeTypeIS5_S8_SD_NS3_19PLTT_NodeTargetTypeIS5_S8_thSB_EENS3_13vector_staticIS5_SG_Li5EEENSH_IS5_NS3_14PLTT_TraceTypeIS5_S8_hhhSD_tSB_EELi5EEESB_EENSH_IS5_SM_Li25EEESK_SL_NS3_20PLTT_SecureTraceTypeIS5_S8_hhhSD_tSB_EENSH_IS5_SP_Li25EEENS3_14PLTT_AgentTypeIS5_S8_thSB_EENS3_22NeighborDiscovery_TypeIS5_S8_NS3_16iSenseClockModelIS5_N6isense4TimeEEENS3_16iSenseTimerModelIS5_EENS3_15iSenseRandModelIS5_EESB_EESZ_S8_NS3_18ReliableRadio_TypeIS5_S8_SX_SZ_S11_SB_EES11_SX_SB_EEXadL_ZNS15_13update_tracesES0_EEEEvS0_S0_
                0x04003550       0x44 out/isense/PLTT_passive_app.o
                0x04003550                void delegate1<void, void*>::method_stub<wiselib::PLTT_PassiveType<wiselib::iSenseOsModel, wiselib::NodeType<wiselib::iSenseOsModel, wiselib::iSenseExtendedTxRadioModel<wiselib::iSenseOsModel>, unsigned short, wiselib::Position2DType<wiselib::iSenseOsModel, wiselib::iSenseExtendedTxRadioModel<wiselib::iSenseOsModel>, unsigned short, wiselib::iSenseDebug<wiselib::iSenseOsModel> >, wiselib::iSenseDebug<wiselib::iSenseOsModel> >, wiselib::PLTT_NodeType<wiselib::iSenseOsModel, wiselib::iSenseExtendedTxRadioModel<wiselib::iSenseOsModel>, wiselib::NodeType<wiselib::iSenseOsModel, wiselib::iSenseExtendedTxRadioModel<wiselib::iSenseOsModel>, unsigned short, wiselib::Position2DType<wiselib::iSenseOsModel, wiselib::iSenseExtendedTxRadioModel<wiselib::iSenseOsModel>, unsigned short, wiselib::iSenseDebug<wiselib::iSenseOsModel> >, wiselib::iSenseDebug<wiselib::iSenseOsModel> >, wiselib::PLTT_NodeTargetType<wiselib::iSenseOsModel, wiselib::iSenseExtendedTxRadioModel<wiselib::iSenseOsModel>, unsigned short, unsigned char, wiselib::iSenseDebug<wiselib::iSenseOsModel> >, wiselib::vector_static<wiselib::iSenseOsModel, wiselib::PLTT_NodeTargetType<wiselib::iSenseOsModel, wiselib::iSenseExtendedTxRadioModel<wiselib::iSenseOsModel>, unsigned short, unsigned char, wiselib::iSenseDebug<wiselib::iSenseOsModel> >, 5>, wiselib::vector_static<wiselib::iSenseOsModel, wiselib::PLTT_TraceType<wiselib::iSenseOsModel, wiselib::iSenseExtendedTxRadioModel<wiselib::iSenseOsModel>, unsigned char, unsigned char, unsigned char, wiselib::NodeType<wiselib::iSenseOsModel, wiselib::iSenseExtendedTxRadioModel<wiselib::iSenseOsModel>, unsigned short, wiselib::Position2DType<wiselib::iSenseOsModel, wiselib::iSenseExtendedTxRadioModel<wiselib::iSenseOsModel>, unsigned short, wiselib::iSenseDebug<wiselib::iSenseOsModel> >, wiselib::iSenseDebug<wiselib::iSenseOsModel> >, unsigned short, wiselib::iSenseDebug<wiselib::iSenseOsModel> >, 5>, wiselib::iSenseDebug<wiselib::iSenseOsModel> >, wiselib::vector_static<wiselib::iSenseOsModel, wiselib::PLTT_NodeType<wiselib::iSenseOsModel, wiselib::iSenseExtendedTxRadioModel<wiselib::iSenseOsModel>, wiselib::NodeType<wiselib::iSenseOsModel, wiselib::iSenseExtendedTxRadioModel<wiselib::iSenseOsModel>, unsigned short, wiselib::Position2DType<wiselib::iSenseOsModel, wiselib::iSenseExtendedTxRadioModel<wiselib::iSenseOsModel>, unsigned short, wiselib::iSenseDebug<wiselib::iSenseOsModel> >, wiselib::iSenseDebug<wiselib::iSenseOsModel> >, wiselib::PLTT_NodeTargetType<wiselib::iSenseOsModel, wiselib::iSenseExtendedTxRadioModel<wiselib::iSenseOsModel>, unsigned short, unsigned char, wiselib::iSenseDebug<wiselib::iSenseOsModel> >, wiselib::vector_static<wiselib::iSenseOsModel, wiselib::PLTT_NodeTargetType<wiselib::iSenseOsModel, wiselib::iSenseExtendedTxRadioModel<wiselib::iSenseOsModel>, unsigned short, unsigned char, wiselib::iSenseDebug<wiselib::iSenseOsModel> >, 5>, wiselib::vector_static<wiselib::iSenseOsModel, wiselib::PLTT_TraceType<wiselib::iSenseOsModel, wiselib::iSenseExtendedTxRadioModel<wiselib::iSenseOsModel>, unsigned char, unsigned char, unsigned char, wiselib::NodeType<wiselib::iSenseOsModel, wiselib::iSenseExtendedTxRadioModel<wiselib::iSenseOsModel>, unsigned short, wiselib::Position2DType<wiselib::iSenseOsModel, wiselib::iSenseExtendedTxRadioModel<wiselib::iSenseOsModel>, unsigned short, wiselib::iSenseDebug<wiselib::iSenseOsModel> >, wiselib::iSenseDebug<wiselib::iSenseOsModel> >, unsigned short, wiselib::iSenseDebug<wiselib::iSenseOsModel> >, 5>, wiselib::iSenseDebug<wiselib::iSenseOsModel> >, 25>, wiselib::PLTT_TraceType<wiselib::iSenseOsModel, wiselib::iSenseExtendedTxRadioModel<wiselib::iSenseOsModel>, unsigned char, unsigned char, unsigned char, wiselib::NodeType<wiselib::iSenseOsModel, wiselib::iSenseExtendedTxRadioModel<wiselib::iSenseOsModel>, unsigned short, wiselib::Position2DType<wiselib::iSenseOsModel, wiselib::iSenseExtendedTxRadioModel<wiselib::iSenseOsModel>, unsigned short, wiselib::iSenseDebug<wiselib::iSenseOsModel> >, wiselib::iSenseDebug<wiselib::iSenseOsModel> >, unsigned short, wiselib::iSenseDebug<wiselib::iSenseOsModel> >, wiselib::vector_static<wiselib::iSenseOsModel, wiselib::PLTT_TraceType<wiselib::iSenseOsModel, wiselib::iSenseExtendedTxRadioModel<wiselib::iSenseOsModel>, unsigned char, unsigned char, unsigned char, wiselib::NodeType<wiselib::iSenseOsModel, wiselib::iSenseExtendedTxRadioModel<wiselib::iSenseOsModel>, unsigned short, wiselib::Position2DType<wiselib::iSenseOsModel, wiselib::iSenseExtendedTxRadioModel<wiselib::iSenseOsModel>, unsigned short, wiselib::iSenseDebug<wiselib::iSenseOsModel> >, wiselib::iSenseDebug<wiselib::iSenseOsModel> >, unsigned short, wiselib::iSenseDebug<wiselib::iSenseOsModel> >, 5>, wiselib::PLTT_SecureTraceType<wiselib::iSenseOsModel, wiselib::iSenseExtendedTxRadioModel<wiselib::iSenseOsModel>, unsigned char, unsigned char, unsigned char, wiselib::NodeType<wiselib::iSenseOsModel, wiselib::iSenseExtendedTxRadioModel<wiselib::iSenseOsModel>, unsigned short, wiselib::Position2DType<wiselib::iSenseOsModel, wiselib::iSenseExtendedTxRadioModel<wiselib::iSenseOsModel>, unsigned short, wiselib::iSenseDebug<wiselib::iSenseOsModel> >, wiselib::iSenseDebug<wiselib::iSenseOsModel> >, unsigned short, wiselib::iSenseDebug<wiselib::iSenseOsModel> >, wiselib::vector_static<wiselib::iSenseOsModel, wiselib::PLTT_SecureTraceType<wiselib::iSenseOsModel, wiselib::iSenseExtendedTxRadioModel<wiselib::iSenseOsModel>, unsigned char, unsigned char, unsigned char, wiselib::NodeType<wiselib::iSenseOsModel, wiselib::iSenseExtendedTxRadioModel<wiselib::iSenseOsModel>, unsigned short, wiselib::Position2DType<wiselib::iSenseOsModel, wiselib::iSenseExtendedTxRadioModel<wiselib::iSenseOsModel>, unsigned short, wiselib::iSenseDebug<wiselib::iSenseOsModel> >, wiselib::iSenseDebug<wiselib::iSenseOsModel> >, unsigned short, wiselib::iSenseDebug<wiselib::iSenseOsModel> >, 25>, wiselib::PLTT_AgentType<wiselib::iSenseOsModel, wiselib::iSenseExtendedTxRadioModel<wiselib::iSenseOsModel>, unsigned short, unsigned char, wiselib::iSenseDebug<wiselib::iSenseOsModel> >, wiselib::NeighborDiscovery_Type<wiselib::iSenseOsModel, wiselib::iSenseExtendedTxRadioModel<wiselib::iSenseOsModel>, wiselib::iSenseClockModel<wiselib::iSenseOsModel, isense::Time>, wiselib::iSenseTimerModel<wiselib::iSenseOsModel>, wiselib::iSenseRandModel<wiselib::iSenseOsModel>, wiselib::iSenseDebug<wiselib::iSenseOsModel> >, wiselib::iSenseTimerModel<wiselib::iSenseOsModel>, wiselib::iSenseExtendedTxRadioModel<wiselib::iSenseOsModel>, wiselib::ReliableRadio_Type<wiselib::iSenseOsModel, wiselib::iSenseExtendedTxRadioModel<wiselib::iSenseOsModel>, wiselib::iSenseClockModel<wiselib::iSenseOsModel, isense::Time>, wiselib::iSenseTimerModel<wiselib::iSenseOsModel>, wiselib::iSenseRandModel<wiselib::iSenseOsModel>, wiselib::iSenseDebug<wiselib::iSenseOsModel> >, wiselib::iSenseRandModel<wiselib::iSenseOsModel>, wiselib::iSenseClockModel<wiselib::iSenseOsModel, isense::Time>, wiselib::iSenseDebug<wiselib::iSenseOsModel> >, &(wiselib::PLTT_PassiveType<wiselib::iSenseOsModel, wiselib::NodeType<wiselib::iSenseOsModel, wiselib::iSenseExtendedTxRadioModel<wiselib::iSenseOsModel>, unsigned short, wiselib::Position2DType<wiselib::iSenseOsModel, wiselib::iSenseExtendedTxRadioModel<wiselib::iSenseOsModel>, unsigned short, wiselib::iSenseDebug<wiselib::iSenseOsModel> >, wiselib::iSenseDebug<wiselib::iSenseOsModel> >, wiselib::PLTT_NodeType<wiselib::iSenseOsModel, wiselib::iSenseExtendedTxRadioModel<wiselib::iSenseOsModel>, wiselib::NodeType<wiselib::iSenseOsModel, wiselib::iSenseExtendedTxRadioModel<wiselib::iSenseOsModel>, unsigned short, wiselib::Position2DType<wiselib::iSenseOsModel, wiselib::iSenseExtendedTxRadioModel<wiselib::iSenseOsModel>, unsigned short, wiselib::iSenseDebug<wiselib::iSenseOsModel> >, wiselib::iSenseDebug<wiselib::iSenseOsModel> >, wiselib::PLTT_NodeTargetType<wiselib::iSenseOsModel, wiselib::iSenseExtendedTxRadioModel<wiselib::iSenseOsModel>, unsigned short, unsigned char, wiselib::iSenseDebug<wiselib::iSenseOsModel> >, wiselib::vector_static<wiselib::iSenseOsModel, wiselib::PLTT_NodeTargetType<wiselib::iSenseOsModel, wiselib::iSenseExtendedTxRadioModel<wiselib::iSenseOsModel>, unsigned short, unsigned char, wiselib::iSenseDebug<wiselib::iSenseOsModel> >, 5>, wiselib::vector_static<wiselib::iSenseOsModel, wiselib::PLTT_TraceType<wiselib::iSenseOsModel, wiselib::iSenseExtendedTxRadioModel<wiselib::iSenseOsModel>, unsigned char, unsigned char, unsigned char, wiselib::NodeType<wiselib::iSenseOsModel, wiselib::iSenseExtendedTxRadioModel<wiselib::iSenseOsModel>, unsigned short, wiselib::Position2DType<wiselib::iSenseOsModel, wiselib::iSenseExtendedTxRadioModel<wiselib::iSenseOsModel>, unsigned short, wiselib::iSenseDebug<wiselib::iSenseOsModel> >, wiselib::iSenseDebug<wiselib::iSenseOsModel> >, unsigned short, wiselib::iSenseDebug<wiselib::iSenseOsModel> >, 5>, wiselib::iSenseDebug<wiselib::iSenseOsModel> >, wiselib::vector_static<wiselib::iSenseOsModel, wiselib::PLTT_NodeType<wiselib::iSenseOsModel, wiselib::iSenseExtendedTxRadioModel<wiselib::iSenseOsModel>, wiselib::NodeType<wiselib::iSenseOsModel, wiselib::iSenseExtendedTxRadioModel<wiselib::iSenseOsModel>, unsigned short, wiselib::Position2DType<wiselib::iSenseOsModel, wiselib::iSenseExtendedTxRadioModel<wiselib::iSenseOsModel>, unsigned short, wiselib::iSenseDebug<wiselib::iSenseOsModel> >, wiselib::iSenseDebug<wiselib::iSenseOsModel> >, wiselib::PLTT_NodeTargetType<wiselib::iSenseOsModel, wiselib::iSenseExtendedTxRadioModel<wiselib::iSenseOsModel>, unsigned short, unsigned char, wiselib::iSenseDebug<wiselib::iSenseOsModel> >, wiselib::vector_static<wiselib::iSenseOsModel, wiselib::PLTT_NodeTargetType<wiselib::iSenseOsModel, wiselib::iSenseExtendedTxRadioModel<wiselib::iSenseOsModel>, unsigned short, unsigned char, wiselib::iSenseDebug<wiselib::iSenseOsModel> >, 5>, wiselib::vector_static<wiselib::iSenseOsModel, wiselib::PLTT_TraceType<wiselib::iSenseOsModel, wiselib::iSenseExtendedTxRadioModel<wiselib::iSenseOsModel>, unsigned char, unsigned char, unsigned char, wiselib::NodeType<wiselib::iSenseOsModel, wiselib::iSenseExtendedTxRadioModel<wiselib::iSenseOsModel>, unsigned short, wiselib::Position2DType<wiselib::iSenseOsModel, wiselib::iSenseExtendedTxRadioModel<wiselib::iSenseOsModel>, unsigned short, wiselib::iSenseDebug<wiselib::iSenseOsModel> >, wiselib::iSenseDebug<wiselib::iSenseOsModel> >, unsigned short, wiselib::iSenseDebug<wiselib::iSenseOsModel> >, 5>, wiselib::iSenseDebug<wiselib::iSenseOsModel> >, 25>, wiselib::PLTT_TraceType<wiselib::iSenseOsModel, wiselib::iSenseExtendedTxRadioModel<wiselib::iSenseOsModel>, unsigned char, unsigned char, unsigned char, wiselib::NodeType<wiselib::iSenseOsModel, wiselib::iSenseExtendedTxRadioModel<wiselib::iSenseOsModel>, unsigned short, wiselib::Position2DType<wiselib::iSenseOsModel, wiselib::iSenseExtendedTxRadioModel<wiselib::iSenseOsModel>, unsigned short, wiselib::iSenseDebug<wiselib::iSenseOsModel> >, wiselib::iSenseDebug<wiselib::iSenseOsModel> >, unsigned short, wiselib::iSenseDebug<wiselib::iSenseOsModel> >, wiselib::vector_static<wiselib::iSenseOsModel, wiselib::PLTT_TraceType<wiselib::iSenseOsModel, wiselib::iSenseExtendedTxRadioModel<wiselib::iSenseOsModel>, unsigned char, unsigned char, unsigned char, wiselib::NodeType<wiselib::iSenseOsModel, wiselib::iSenseExtendedTxRadioModel<wiselib::iSenseOsModel>, unsigned short, wiselib::Position2DType<wiselib::iSenseOsModel, wiselib::iSenseExtendedTxRadioModel<wiselib::iSenseOsModel>, unsigned short, wiselib::iSenseDebug<wiselib::iSenseOsModel> >, wiselib::iSenseDebug<wiselib::iSenseOsModel> >, unsigned short, wiselib::iSenseDebug<wiselib::iSenseOsModel> >, 5>, wiselib::PLTT_SecureTraceType<wiselib::iSenseOsModel, wiselib::iSenseExtendedTxRadioModel<wiselib::iSenseOsModel>, unsigned char, unsigned char, unsigned char, wiselib::NodeType<wiselib::iSenseOsModel, wiselib::iSenseExtendedTxRadioModel<wiselib::iSenseOsModel>, unsigned short, wiselib::Position2DType<wiselib::iSenseOsModel, wiselib::iSenseExtendedTxRadioModel<wiselib::iSenseOsModel>, unsigned short, wiselib::iSenseDebug<wiselib::iSenseOsModel> >, wiselib::iSenseDebug<wiselib::iSenseOsModel> >, unsigned short, wiselib::iSenseDebug<wiselib::iSenseOsModel> >, wiselib::vector_static<wiselib::iSenseOsModel, wiselib::PLTT_SecureTraceType<wiselib::iSenseOsModel, wiselib::iSenseExtendedTxRadioModel<wiselib::iSenseOsModel>, unsigned char, unsigned char, unsigned char, wiselib::NodeType<wiselib::iSenseOsModel, wiselib::iSenseExtendedTxRadioModel<wiselib::iSenseOsModel>, unsigned short, wiselib::Position2DType<wiselib::iSenseOsModel, wiselib::iSenseExtendedTxRadioModel<wiselib::iSenseOsModel>, unsigned short, wiselib::iSenseDebug<wiselib::iSenseOsModel> >, wiselib::iSenseDebug<wiselib::iSenseOsModel> >, unsigned short, wiselib::iSenseDebug<wiselib::iSenseOsModel> >, 25>, wiselib::PLTT_AgentType<wiselib::iSenseOsModel, wiselib::iSenseExtendedTxRadioModel<wiselib::iSenseOsModel>, unsigned short, unsigned char, wiselib::iSenseDebug<wiselib::iSenseOsModel> >, wiselib::NeighborDiscovery_Type<wiselib::iSenseOsModel, wiselib::iSenseExtendedTxRadioModel<wiselib::iSenseOsModel>, wiselib::iSenseClockModel<wiselib::iSenseOsModel, isense::Time>, wiselib::iSenseTimerModel<wiselib::iSenseOsModel>, wiselib::iSenseRandModel<wiselib::iSenseOsModel>, wiselib::iSenseDebug<wiselib::iSenseOsModel> >, wiselib::iSenseTimerModel<wiselib::iSenseOsModel>, wiselib::iSenseExtendedTxRadioModel<wiselib::iSenseOsModel>, wiselib::ReliableRadio_Type<wiselib::iSenseOsModel, wiselib::iSenseExtendedTxRadioModel<wiselib::iSenseOsModel>, wiselib::iSenseClockModel<wiselib::iSenseOsModel, isense::Time>, wiselib::iSenseTimerModel<wiselib::iSenseOsModel>, wiselib::iSenseRandModel<wiselib::iSenseOsModel>, wiselib::iSenseDebug<wiselib::iSenseOsModel> >, wiselib::iSenseRandModel<wiselib::iSenseOsModel>, wiselib::iSenseClockModel<wiselib::iSenseOsModel, isense::Time>, wiselib::iSenseDebug<wiselib::iSenseOsModel> >::update_traces(void*))>(void*, void*)
 .text._ZN9delegate1IvPvE11method_stubIN7wiselib16PLTT_PassiveTypeINS3_13iSenseOsModelENS3_8NodeTypeIS5_NS3_26iSenseExtendedTxRadioModelIS5_EEtNS3_14Position2DTypeIS5_S8_tNS3_11iSenseDebugIS5_EEEESB_EENS3_13PLTT_NodeTypeIS5_S8_SD_NS3_19PLTT_NodeTargetTypeIS5_S8_thSB_EENS3_13vector_staticIS5_SG_Li5EEENSH_IS5_NS3_14PLTT_TraceTypeIS5_S8_hhhSD_tSB_EELi5EEESB_EENSH_IS5_SM_Li25EEESK_SL_NS3_20PLTT_SecureTraceTypeIS5_S8_hhhSD_tSB_EENSH_IS5_SP_Li25EEENS3_14PLTT_AgentTypeIS5_S8_thSB_EENS3_22NeighborDiscovery_TypeIS5_S8_NS3_16iSenseClockModelIS5_N6isense4TimeEEENS3_16iSenseTimerModelIS5_EENS3_15iSenseRandModelIS5_EESB_EESZ_S8_NS3_18ReliableRadio_TypeIS5_S8_SX_SZ_S11_SB_EES11_SX_SB_EEXadL_ZNS15_25decryption_request_daemonES0_EEEEvS0_S0_
                0x04003594       0x44 out/isense/PLTT_passive_app.o
                0x04003594                void delegate1<void, void*>::method_stub<wiselib::PLTT_PassiveType<wiselib::iSenseOsModel, wiselib::NodeType<wiselib::iSenseOsModel, wiselib::iSenseExtendedTxRadioModel<wiselib::iSenseOsModel>, unsigned short, wiselib::Position2DType<wiselib::iSenseOsModel, wiselib::iSenseExtendedTxRadioModel<wiselib::iSenseOsModel>, unsigned short, wiselib::iSenseDebug<wiselib::iSenseOsModel> >, wiselib::iSenseDebug<wiselib::iSenseOsModel> >, wiselib::PLTT_NodeType<wiselib::iSenseOsModel, wiselib::iSenseExtendedTxRadioModel<wiselib::iSenseOsModel>, wiselib::NodeType<wiselib::iSenseOsModel, wiselib::iSenseExtendedTxRadioModel<wiselib::iSenseOsModel>, unsigned short, wiselib::Position2DType<wiselib::iSenseOsModel, wiselib::iSenseExtendedTxRadioModel<wiselib::iSenseOsModel>, unsigned short, wiselib::iSenseDebug<wiselib::iSenseOsModel> >, wiselib::iSenseDebug<wiselib::iSenseOsModel> >, wiselib::PLTT_NodeTargetType<wiselib::iSenseOsModel, wiselib::iSenseExtendedTxRadioModel<wiselib::iSenseOsModel>, unsigned short, unsigned char, wiselib::iSenseDebug<wiselib::iSenseOsModel> >, wiselib::vector_static<wiselib::iSenseOsModel, wiselib::PLTT_NodeTargetType<wiselib::iSenseOsModel, wiselib::iSenseExtendedTxRadioModel<wiselib::iSenseOsModel>, unsigned short, unsigned char, wiselib::iSenseDebug<wiselib::iSenseOsModel> >, 5>, wiselib::vector_static<wiselib::iSenseOsModel, wiselib::PLTT_TraceType<wiselib::iSenseOsModel, wiselib::iSenseExtendedTxRadioModel<wiselib::iSenseOsModel>, unsigned char, unsigned char, unsigned char, wiselib::NodeType<wiselib::iSenseOsModel, wiselib::iSenseExtendedTxRadioModel<wiselib::iSenseOsModel>, unsigned short, wiselib::Position2DType<wiselib::iSenseOsModel, wiselib::iSenseExtendedTxRadioModel<wiselib::iSenseOsModel>, unsigned short, wiselib::iSenseDebug<wiselib::iSenseOsModel> >, wiselib::iSenseDebug<wiselib::iSenseOsModel> >, unsigned short, wiselib::iSenseDebug<wiselib::iSenseOsModel> >, 5>, wiselib::iSenseDebug<wiselib::iSenseOsModel> >, wiselib::vector_static<wiselib::iSenseOsModel, wiselib::PLTT_NodeType<wiselib::iSenseOsModel, wiselib::iSenseExtendedTxRadioModel<wiselib::iSenseOsModel>, wiselib::NodeType<wiselib::iSenseOsModel, wiselib::iSenseExtendedTxRadioModel<wiselib::iSenseOsModel>, unsigned short, wiselib::Position2DType<wiselib::iSenseOsModel, wiselib::iSenseExtendedTxRadioModel<wiselib::iSenseOsModel>, unsigned short, wiselib::iSenseDebug<wiselib::iSenseOsModel> >, wiselib::iSenseDebug<wiselib::iSenseOsModel> >, wiselib::PLTT_NodeTargetType<wiselib::iSenseOsModel, wiselib::iSenseExtendedTxRadioModel<wiselib::iSenseOsModel>, unsigned short, unsigned char, wiselib::iSenseDebug<wiselib::iSenseOsModel> >, wiselib::vector_static<wiselib::iSenseOsModel, wiselib::PLTT_NodeTargetType<wiselib::iSenseOsModel, wiselib::iSenseExtendedTxRadioModel<wiselib::iSenseOsModel>, unsigned short, unsigned char, wiselib::iSenseDebug<wiselib::iSenseOsModel> >, 5>, wiselib::vector_static<wiselib::iSenseOsModel, wiselib::PLTT_TraceType<wiselib::iSenseOsModel, wiselib::iSenseExtendedTxRadioModel<wiselib::iSenseOsModel>, unsigned char, unsigned char, unsigned char, wiselib::NodeType<wiselib::iSenseOsModel, wiselib::iSenseExtendedTxRadioModel<wiselib::iSenseOsModel>, unsigned short, wiselib::Position2DType<wiselib::iSenseOsModel, wiselib::iSenseExtendedTxRadioModel<wiselib::iSenseOsModel>, unsigned short, wiselib::iSenseDebug<wiselib::iSenseOsModel> >, wiselib::iSenseDebug<wiselib::iSenseOsModel> >, unsigned short, wiselib::iSenseDebug<wiselib::iSenseOsModel> >, 5>, wiselib::iSenseDebug<wiselib::iSenseOsModel> >, 25>, wiselib::PLTT_TraceType<wiselib::iSenseOsModel, wiselib::iSenseExtendedTxRadioModel<wiselib::iSenseOsModel>, unsigned char, unsigned char, unsigned char, wiselib::NodeType<wiselib::iSenseOsModel, wiselib::iSenseExtendedTxRadioModel<wiselib::iSenseOsModel>, unsigned short, wiselib::Position2DType<wiselib::iSenseOsModel, wiselib::iSenseExtendedTxRadioModel<wiselib::iSenseOsModel>, unsigned short, wiselib::iSenseDebug<wiselib::iSenseOsModel> >, wiselib::iSenseDebug<wiselib::iSenseOsModel> >, unsigned short, wiselib::iSenseDebug<wiselib::iSenseOsModel> >, wiselib::vector_static<wiselib::iSenseOsModel, wiselib::PLTT_TraceType<wiselib::iSenseOsModel, wiselib::iSenseExtendedTxRadioModel<wiselib::iSenseOsModel>, unsigned char, unsigned char, unsigned char, wiselib::NodeType<wiselib::iSenseOsModel, wiselib::iSenseExtendedTxRadioModel<wiselib::iSenseOsModel>, unsigned short, wiselib::Position2DType<wiselib::iSenseOsModel, wiselib::iSenseExtendedTxRadioModel<wiselib::iSenseOsModel>, unsigned short, wiselib::iSenseDebug<wiselib::iSenseOsModel> >, wiselib::iSenseDebug<wiselib::iSenseOsModel> >, unsigned short, wiselib::iSenseDebug<wiselib::iSenseOsModel> >, 5>, wiselib::PLTT_SecureTraceType<wiselib::iSenseOsModel, wiselib::iSenseExtendedTxRadioModel<wiselib::iSenseOsModel>, unsigned char, unsigned char, unsigned char, wiselib::NodeType<wiselib::iSenseOsModel, wiselib::iSenseExtendedTxRadioModel<wiselib::iSenseOsModel>, unsigned short, wiselib::Position2DType<wiselib::iSenseOsModel, wiselib::iSenseExtendedTxRadioModel<wiselib::iSenseOsModel>, unsigned short, wiselib::iSenseDebug<wiselib::iSenseOsModel> >, wiselib::iSenseDebug<wiselib::iSenseOsModel> >, unsigned short, wiselib::iSenseDebug<wiselib::iSenseOsModel> >, wiselib::vector_static<wiselib::iSenseOsModel, wiselib::PLTT_SecureTraceType<wiselib::iSenseOsModel, wiselib::iSenseExtendedTxRadioModel<wiselib::iSenseOsModel>, unsigned char, unsigned char, unsigned char, wiselib::NodeType<wiselib::iSenseOsModel, wiselib::iSenseExtendedTxRadioModel<wiselib::iSenseOsModel>, unsigned short, wiselib::Position2DType<wiselib::iSenseOsModel, wiselib::iSenseExtendedTxRadioModel<wiselib::iSenseOsModel>, unsigned short, wiselib::iSenseDebug<wiselib::iSenseOsModel> >, wiselib::iSenseDebug<wiselib::iSenseOsModel> >, unsigned short, wiselib::iSenseDebug<wiselib::iSenseOsModel> >, 25>, wiselib::PLTT_AgentType<wiselib::iSenseOsModel, wiselib::iSenseExtendedTxRadioModel<wiselib::iSenseOsModel>, unsigned short, unsigned char, wiselib::iSenseDebug<wiselib::iSenseOsModel> >, wiselib::NeighborDiscovery_Type<wiselib::iSenseOsModel, wiselib::iSenseExtendedTxRadioModel<wiselib::iSenseOsModel>, wiselib::iSenseClockModel<wiselib::iSenseOsModel, isense::Time>, wiselib::iSenseTimerModel<wiselib::iSenseOsModel>, wiselib::iSenseRandModel<wiselib::iSenseOsModel>, wiselib::iSenseDebug<wiselib::iSenseOsModel> >, wiselib::iSenseTimerModel<wiselib::iSenseOsModel>, wiselib::iSenseExtendedTxRadioModel<wiselib::iSenseOsModel>, wiselib::ReliableRadio_Type<wiselib::iSenseOsModel, wiselib::iSenseExtendedTxRadioModel<wiselib::iSenseOsModel>, wiselib::iSenseClockModel<wiselib::iSenseOsModel, isense::Time>, wiselib::iSenseTimerModel<wiselib::iSenseOsModel>, wiselib::iSenseRandModel<wiselib::iSenseOsModel>, wiselib::iSenseDebug<wiselib::iSenseOsModel> >, wiselib::iSenseRandModel<wiselib::iSenseOsModel>, wiselib::iSenseClockModel<wiselib::iSenseOsModel, isense::Time>, wiselib::iSenseDebug<wiselib::iSenseOsModel> >, &(wiselib::PLTT_PassiveType<wiselib::iSenseOsModel, wiselib::NodeType<wiselib::iSenseOsModel, wiselib::iSenseExtendedTxRadioModel<wiselib::iSenseOsModel>, unsigned short, wiselib::Position2DType<wiselib::iSenseOsModel, wiselib::iSenseExtendedTxRadioModel<wiselib::iSenseOsModel>, unsigned short, wiselib::iSenseDebug<wiselib::iSenseOsModel> >, wiselib::iSenseDebug<wiselib::iSenseOsModel> >, wiselib::PLTT_NodeType<wiselib::iSenseOsModel, wiselib::iSenseExtendedTxRadioModel<wiselib::iSenseOsModel>, wiselib::NodeType<wiselib::iSenseOsModel, wiselib::iSenseExtendedTxRadioModel<wiselib::iSenseOsModel>, unsigned short, wiselib::Position2DType<wiselib::iSenseOsModel, wiselib::iSenseExtendedTxRadioModel<wiselib::iSenseOsModel>, unsigned short, wiselib::iSenseDebug<wiselib::iSenseOsModel> >, wiselib::iSenseDebug<wiselib::iSenseOsModel> >, wiselib::PLTT_NodeTargetType<wiselib::iSenseOsModel, wiselib::iSenseExtendedTxRadioModel<wiselib::iSenseOsModel>, unsigned short, unsigned char, wiselib::iSenseDebug<wiselib::iSenseOsModel> >, wiselib::vector_static<wiselib::iSenseOsModel, wiselib::PLTT_NodeTargetType<wiselib::iSenseOsModel, wiselib::iSenseExtendedTxRadioModel<wiselib::iSenseOsModel>, unsigned short, unsigned char, wiselib::iSenseDebug<wiselib::iSenseOsModel> >, 5>, wiselib::vector_static<wiselib::iSenseOsModel, wiselib::PLTT_TraceType<wiselib::iSenseOsModel, wiselib::iSenseExtendedTxRadioModel<wiselib::iSenseOsModel>, unsigned char, unsigned char, unsigned char, wiselib::NodeType<wiselib::iSenseOsModel, wiselib::iSenseExtendedTxRadioModel<wiselib::iSenseOsModel>, unsigned short, wiselib::Position2DType<wiselib::iSenseOsModel, wiselib::iSenseExtendedTxRadioModel<wiselib::iSenseOsModel>, unsigned short, wiselib::iSenseDebug<wiselib::iSenseOsModel> >, wiselib::iSenseDebug<wiselib::iSenseOsModel> >, unsigned short, wiselib::iSenseDebug<wiselib::iSenseOsModel> >, 5>, wiselib::iSenseDebug<wiselib::iSenseOsModel> >, wiselib::vector_static<wiselib::iSenseOsModel, wiselib::PLTT_NodeType<wiselib::iSenseOsModel, wiselib::iSenseExtendedTxRadioModel<wiselib::iSenseOsModel>, wiselib::NodeType<wiselib::iSenseOsModel, wiselib::iSenseExtendedTxRadioModel<wiselib::iSenseOsModel>, unsigned short, wiselib::Position2DType<wiselib::iSenseOsModel, wiselib::iSenseExtendedTxRadioModel<wiselib::iSenseOsModel>, unsigned short, wiselib::iSenseDebug<wiselib::iSenseOsModel> >, wiselib::iSenseDebug<wiselib::iSenseOsModel> >, wiselib::PLTT_NodeTargetType<wiselib::iSenseOsModel, wiselib::iSenseExtendedTxRadioModel<wiselib::iSenseOsModel>, unsigned short, unsigned char, wiselib::iSenseDebug<wiselib::iSenseOsModel> >, wiselib::vector_static<wiselib::iSenseOsModel, wiselib::PLTT_NodeTargetType<wiselib::iSenseOsModel, wiselib::iSenseExtendedTxRadioModel<wiselib::iSenseOsModel>, unsigned short, unsigned char, wiselib::iSenseDebug<wiselib::iSenseOsModel> >, 5>, wiselib::vector_static<wiselib::iSenseOsModel, wiselib::PLTT_TraceType<wiselib::iSenseOsModel, wiselib::iSenseExtendedTxRadioModel<wiselib::iSenseOsModel>, unsigned char, unsigned char, unsigned char, wiselib::NodeType<wiselib::iSenseOsModel, wiselib::iSenseExtendedTxRadioModel<wiselib::iSenseOsModel>, unsigned short, wiselib::Position2DType<wiselib::iSenseOsModel, wiselib::iSenseExtendedTxRadioModel<wiselib::iSenseOsModel>, unsigned short, wiselib::iSenseDebug<wiselib::iSenseOsModel> >, wiselib::iSenseDebug<wiselib::iSenseOsModel> >, unsigned short, wiselib::iSenseDebug<wiselib::iSenseOsModel> >, 5>, wiselib::iSenseDebug<wiselib::iSenseOsModel> >, 25>, wiselib::PLTT_TraceType<wiselib::iSenseOsModel, wiselib::iSenseExtendedTxRadioModel<wiselib::iSenseOsModel>, unsigned char, unsigned char, unsigned char, wiselib::NodeType<wiselib::iSenseOsModel, wiselib::iSenseExtendedTxRadioModel<wiselib::iSenseOsModel>, unsigned short, wiselib::Position2DType<wiselib::iSenseOsModel, wiselib::iSenseExtendedTxRadioModel<wiselib::iSenseOsModel>, unsigned short, wiselib::iSenseDebug<wiselib::iSenseOsModel> >, wiselib::iSenseDebug<wiselib::iSenseOsModel> >, unsigned short, wiselib::iSenseDebug<wiselib::iSenseOsModel> >, wiselib::vector_static<wiselib::iSenseOsModel, wiselib::PLTT_TraceType<wiselib::iSenseOsModel, wiselib::iSenseExtendedTxRadioModel<wiselib::iSenseOsModel>, unsigned char, unsigned char, unsigned char, wiselib::NodeType<wiselib::iSenseOsModel, wiselib::iSenseExtendedTxRadioModel<wiselib::iSenseOsModel>, unsigned short, wiselib::Position2DType<wiselib::iSenseOsModel, wiselib::iSenseExtendedTxRadioModel<wiselib::iSenseOsModel>, unsigned short, wiselib::iSenseDebug<wiselib::iSenseOsModel> >, wiselib::iSenseDebug<wiselib::iSenseOsModel> >, unsigned short, wiselib::iSenseDebug<wiselib::iSenseOsModel> >, 5>, wiselib::PLTT_SecureTraceType<wiselib::iSenseOsModel, wiselib::iSenseExtendedTxRadioModel<wiselib::iSenseOsModel>, unsigned char, unsigned char, unsigned char, wiselib::NodeType<wiselib::iSenseOsModel, wiselib::iSenseExtendedTxRadioModel<wiselib::iSenseOsModel>, unsigned short, wiselib::Position2DType<wiselib::iSenseOsModel, wiselib::iSenseExtendedTxRadioModel<wiselib::iSenseOsModel>, unsigned short, wiselib::iSenseDebug<wiselib::iSenseOsModel> >, wiselib::iSenseDebug<wiselib::iSenseOsModel> >, unsigned short, wiselib::iSenseDebug<wiselib::iSenseOsModel> >, wiselib::vector_static<wiselib::iSenseOsModel, wiselib::PLTT_SecureTraceType<wiselib::iSenseOsModel, wiselib::iSenseExtendedTxRadioModel<wiselib::iSenseOsModel>, unsigned char, unsigned char, unsigned char, wiselib::NodeType<wiselib::iSenseOsModel, wiselib::iSenseExtendedTxRadioModel<wiselib::iSenseOsModel>, unsigned short, wiselib::Position2DType<wiselib::iSenseOsModel, wiselib::iSenseExtendedTxRadioModel<wiselib::iSenseOsModel>, unsigned short, wiselib::iSenseDebug<wiselib::iSenseOsModel> >, wiselib::iSenseDebug<wiselib::iSenseOsModel> >, unsigned short, wiselib::iSenseDebug<wiselib::iSenseOsModel> >, 25>, wiselib::PLTT_AgentType<wiselib::iSenseOsModel, wiselib::iSenseExtendedTxRadioModel<wiselib::iSenseOsModel>, unsigned short, unsigned char, wiselib::iSenseDebug<wiselib::iSenseOsModel> >, wiselib::NeighborDiscovery_Type<wiselib::iSenseOsModel, wiselib::iSenseExtendedTxRadioModel<wiselib::iSenseOsModel>, wiselib::iSenseClockModel<wiselib::iSenseOsModel, isense::Time>, wiselib::iSenseTimerModel<wiselib::iSenseOsModel>, wiselib::iSenseRandModel<wiselib::iSenseOsModel>, wiselib::iSenseDebug<wiselib::iSenseOsModel> >, wiselib::iSenseTimerModel<wiselib::iSenseOsModel>, wiselib::iSenseExtendedTxRadioModel<wiselib::iSenseOsModel>, wiselib::ReliableRadio_Type<wiselib::iSenseOsModel, wiselib::iSenseExtendedTxRadioModel<wiselib::iSenseOsModel>, wiselib::iSenseClockModel<wiselib::iSenseOsModel, isense::Time>, wiselib::iSenseTimerModel<wiselib::iSenseOsModel>, wiselib::iSenseRandModel<wiselib::iSenseOsModel>, wiselib::iSenseDebug<wiselib::iSenseOsModel> >, wiselib::iSenseRandModel<wiselib::iSenseOsModel>, wiselib::iSenseClockModel<wiselib::iSenseOsModel, isense::Time>, wiselib::iSenseDebug<wiselib::iSenseOsModel> >::decryption_request_daemon(void*))>(void*, void*)
 .text._ZN7wiselib8NodeTypeINS_13iSenseOsModelENS_26iSenseExtendedTxRadioModelIS1_EEtNS_14Position2DTypeIS1_S3_tNS_11iSenseDebugIS1_EEEES6_E9serializeEPhh
                0x040035d8       0x5c out/isense/PLTT_passive_app.o
                0x040035d8                wiselib::NodeType<wiselib::iSenseOsModel, wiselib::iSenseExtendedTxRadioModel<wiselib::iSenseOsModel>, unsigned short, wiselib::Position2DType<wiselib::iSenseOsModel, wiselib::iSenseExtendedTxRadioModel<wiselib::iSenseOsModel>, unsigned short, wiselib::iSenseDebug<wiselib::iSenseOsModel> >, wiselib::iSenseDebug<wiselib::iSenseOsModel> >::serialize(unsigned char*, unsigned char)
 .text._ZN7wiselib20PLTT_SecureTraceTypeINS_13iSenseOsModelENS_26iSenseExtendedTxRadioModelIS1_EEhhhNS_8NodeTypeIS1_S3_tNS_14Position2DTypeIS1_S3_tNS_11iSenseDebugIS1_EEEES7_EEtS7_E9serializeEPhh
                0x04003634       0xf4 out/isense/PLTT_passive_app.o
                0x04003634                wiselib::PLTT_SecureTraceType<wiselib::iSenseOsModel, wiselib::iSenseExtendedTxRadioModel<wiselib::iSenseOsModel>, unsigned char, unsigned char, unsigned char, wiselib::NodeType<wiselib::iSenseOsModel, wiselib::iSenseExtendedTxRadioModel<wiselib::iSenseOsModel>, unsigned short, wiselib::Position2DType<wiselib::iSenseOsModel, wiselib::iSenseExtendedTxRadioModel<wiselib::iSenseOsModel>, unsigned short, wiselib::iSenseDebug<wiselib::iSenseOsModel> >, wiselib::iSenseDebug<wiselib::iSenseOsModel> >, unsigned short, wiselib::iSenseDebug<wiselib::iSenseOsModel> >::serialize(unsigned char*, unsigned char)
 .text._ZN9delegate1IvPvE11method_stubIN7wiselib16PLTT_PassiveTypeINS3_13iSenseOsModelENS3_8NodeTypeIS5_NS3_26iSenseExtendedTxRadioModelIS5_EEtNS3_14Position2DTypeIS5_S8_tNS3_11iSenseDebugIS5_EEEESB_EENS3_13PLTT_NodeTypeIS5_S8_SD_NS3_19PLTT_NodeTargetTypeIS5_S8_thSB_EENS3_13vector_staticIS5_SG_Li5EEENSH_IS5_NS3_14PLTT_TraceTypeIS5_S8_hhhSD_tSB_EELi5EEESB_EENSH_IS5_SM_Li25EEESK_SL_NS3_20PLTT_SecureTraceTypeIS5_S8_hhhSD_tSB_EENSH_IS5_SP_Li25EEENS3_14PLTT_AgentTypeIS5_S8_thSB_EENS3_22NeighborDiscovery_TypeIS5_S8_NS3_16iSenseClockModelIS5_N6isense4TimeEEENS3_16iSenseTimerModelIS5_EENS3_15iSenseRandModelIS5_EESB_EESZ_S8_NS3_18ReliableRadio_TypeIS5_S8_SX_SZ_S11_SB_EES11_SX_SB_EEXadL_ZNS15_19spread_secure_traceES0_EEEEvS0_S0_
                0x04003728       0x44 out/isense/PLTT_passive_app.o
                0x04003728                void delegate1<void, void*>::method_stub<wiselib::PLTT_PassiveType<wiselib::iSenseOsModel, wiselib::NodeType<wiselib::iSenseOsModel, wiselib::iSenseExtendedTxRadioModel<wiselib::iSenseOsModel>, unsigned short, wiselib::Position2DType<wiselib::iSenseOsModel, wiselib::iSenseExtendedTxRadioModel<wiselib::iSenseOsModel>, unsigned short, wiselib::iSenseDebug<wiselib::iSenseOsModel> >, wiselib::iSenseDebug<wiselib::iSenseOsModel> >, wiselib::PLTT_NodeType<wiselib::iSenseOsModel, wiselib::iSenseExtendedTxRadioModel<wiselib::iSenseOsModel>, wiselib::NodeType<wiselib::iSenseOsModel, wiselib::iSenseExtendedTxRadioModel<wiselib::iSenseOsModel>, unsigned short, wiselib::Position2DType<wiselib::iSenseOsModel, wiselib::iSenseExtendedTxRadioModel<wiselib::iSenseOsModel>, unsigned short, wiselib::iSenseDebug<wiselib::iSenseOsModel> >, wiselib::iSenseDebug<wiselib::iSenseOsModel> >, wiselib::PLTT_NodeTargetType<wiselib::iSenseOsModel, wiselib::iSenseExtendedTxRadioModel<wiselib::iSenseOsModel>, unsigned short, unsigned char, wiselib::iSenseDebug<wiselib::iSenseOsModel> >, wiselib::vector_static<wiselib::iSenseOsModel, wiselib::PLTT_NodeTargetType<wiselib::iSenseOsModel, wiselib::iSenseExtendedTxRadioModel<wiselib::iSenseOsModel>, unsigned short, unsigned char, wiselib::iSenseDebug<wiselib::iSenseOsModel> >, 5>, wiselib::vector_static<wiselib::iSenseOsModel, wiselib::PLTT_TraceType<wiselib::iSenseOsModel, wiselib::iSenseExtendedTxRadioModel<wiselib::iSenseOsModel>, unsigned char, unsigned char, unsigned char, wiselib::NodeType<wiselib::iSenseOsModel, wiselib::iSenseExtendedTxRadioModel<wiselib::iSenseOsModel>, unsigned short, wiselib::Position2DType<wiselib::iSenseOsModel, wiselib::iSenseExtendedTxRadioModel<wiselib::iSenseOsModel>, unsigned short, wiselib::iSenseDebug<wiselib::iSenseOsModel> >, wiselib::iSenseDebug<wiselib::iSenseOsModel> >, unsigned short, wiselib::iSenseDebug<wiselib::iSenseOsModel> >, 5>, wiselib::iSenseDebug<wiselib::iSenseOsModel> >, wiselib::vector_static<wiselib::iSenseOsModel, wiselib::PLTT_NodeType<wiselib::iSenseOsModel, wiselib::iSenseExtendedTxRadioModel<wiselib::iSenseOsModel>, wiselib::NodeType<wiselib::iSenseOsModel, wiselib::iSenseExtendedTxRadioModel<wiselib::iSenseOsModel>, unsigned short, wiselib::Position2DType<wiselib::iSenseOsModel, wiselib::iSenseExtendedTxRadioModel<wiselib::iSenseOsModel>, unsigned short, wiselib::iSenseDebug<wiselib::iSenseOsModel> >, wiselib::iSenseDebug<wiselib::iSenseOsModel> >, wiselib::PLTT_NodeTargetType<wiselib::iSenseOsModel, wiselib::iSenseExtendedTxRadioModel<wiselib::iSenseOsModel>, unsigned short, unsigned char, wiselib::iSenseDebug<wiselib::iSenseOsModel> >, wiselib::vector_static<wiselib::iSenseOsModel, wiselib::PLTT_NodeTargetType<wiselib::iSenseOsModel, wiselib::iSenseExtendedTxRadioModel<wiselib::iSenseOsModel>, unsigned short, unsigned char, wiselib::iSenseDebug<wiselib::iSenseOsModel> >, 5>, wiselib::vector_static<wiselib::iSenseOsModel, wiselib::PLTT_TraceType<wiselib::iSenseOsModel, wiselib::iSenseExtendedTxRadioModel<wiselib::iSenseOsModel>, unsigned char, unsigned char, unsigned char, wiselib::NodeType<wiselib::iSenseOsModel, wiselib::iSenseExtendedTxRadioModel<wiselib::iSenseOsModel>, unsigned short, wiselib::Position2DType<wiselib::iSenseOsModel, wiselib::iSenseExtendedTxRadioModel<wiselib::iSenseOsModel>, unsigned short, wiselib::iSenseDebug<wiselib::iSenseOsModel> >, wiselib::iSenseDebug<wiselib::iSenseOsModel> >, unsigned short, wiselib::iSenseDebug<wiselib::iSenseOsModel> >, 5>, wiselib::iSenseDebug<wiselib::iSenseOsModel> >, 25>, wiselib::PLTT_TraceType<wiselib::iSenseOsModel, wiselib::iSenseExtendedTxRadioModel<wiselib::iSenseOsModel>, unsigned char, unsigned char, unsigned char, wiselib::NodeType<wiselib::iSenseOsModel, wiselib::iSenseExtendedTxRadioModel<wiselib::iSenseOsModel>, unsigned short, wiselib::Position2DType<wiselib::iSenseOsModel, wiselib::iSenseExtendedTxRadioModel<wiselib::iSenseOsModel>, unsigned short, wiselib::iSenseDebug<wiselib::iSenseOsModel> >, wiselib::iSenseDebug<wiselib::iSenseOsModel> >, unsigned short, wiselib::iSenseDebug<wiselib::iSenseOsModel> >, wiselib::vector_static<wiselib::iSenseOsModel, wiselib::PLTT_TraceType<wiselib::iSenseOsModel, wiselib::iSenseExtendedTxRadioModel<wiselib::iSenseOsModel>, unsigned char, unsigned char, unsigned char, wiselib::NodeType<wiselib::iSenseOsModel, wiselib::iSenseExtendedTxRadioModel<wiselib::iSenseOsModel>, unsigned short, wiselib::Position2DType<wiselib::iSenseOsModel, wiselib::iSenseExtendedTxRadioModel<wiselib::iSenseOsModel>, unsigned short, wiselib::iSenseDebug<wiselib::iSenseOsModel> >, wiselib::iSenseDebug<wiselib::iSenseOsModel> >, unsigned short, wiselib::iSenseDebug<wiselib::iSenseOsModel> >, 5>, wiselib::PLTT_SecureTraceType<wiselib::iSenseOsModel, wiselib::iSenseExtendedTxRadioModel<wiselib::iSenseOsModel>, unsigned char, unsigned char, unsigned char, wiselib::NodeType<wiselib::iSenseOsModel, wiselib::iSenseExtendedTxRadioModel<wiselib::iSenseOsModel>, unsigned short, wiselib::Position2DType<wiselib::iSenseOsModel, wiselib::iSenseExtendedTxRadioModel<wiselib::iSenseOsModel>, unsigned short, wiselib::iSenseDebug<wiselib::iSenseOsModel> >, wiselib::iSenseDebug<wiselib::iSenseOsModel> >, unsigned short, wiselib::iSenseDebug<wiselib::iSenseOsModel> >, wiselib::vector_static<wiselib::iSenseOsModel, wiselib::PLTT_SecureTraceType<wiselib::iSenseOsModel, wiselib::iSenseExtendedTxRadioModel<wiselib::iSenseOsModel>, unsigned char, unsigned char, unsigned char, wiselib::NodeType<wiselib::iSenseOsModel, wiselib::iSenseExtendedTxRadioModel<wiselib::iSenseOsModel>, unsigned short, wiselib::Position2DType<wiselib::iSenseOsModel, wiselib::iSenseExtendedTxRadioModel<wiselib::iSenseOsModel>, unsigned short, wiselib::iSenseDebug<wiselib::iSenseOsModel> >, wiselib::iSenseDebug<wiselib::iSenseOsModel> >, unsigned short, wiselib::iSenseDebug<wiselib::iSenseOsModel> >, 25>, wiselib::PLTT_AgentType<wiselib::iSenseOsModel, wiselib::iSenseExtendedTxRadioModel<wiselib::iSenseOsModel>, unsigned short, unsigned char, wiselib::iSenseDebug<wiselib::iSenseOsModel> >, wiselib::NeighborDiscovery_Type<wiselib::iSenseOsModel, wiselib::iSenseExtendedTxRadioModel<wiselib::iSenseOsModel>, wiselib::iSenseClockModel<wiselib::iSenseOsModel, isense::Time>, wiselib::iSenseTimerModel<wiselib::iSenseOsModel>, wiselib::iSenseRandModel<wiselib::iSenseOsModel>, wiselib::iSenseDebug<wiselib::iSenseOsModel> >, wiselib::iSenseTimerModel<wiselib::iSenseOsModel>, wiselib::iSenseExtendedTxRadioModel<wiselib::iSenseOsModel>, wiselib::ReliableRadio_Type<wiselib::iSenseOsModel, wiselib::iSenseExtendedTxRadioModel<wiselib::iSenseOsModel>, wiselib::iSenseClockModel<wiselib::iSenseOsModel, isense::Time>, wiselib::iSenseTimerModel<wiselib::iSenseOsModel>, wiselib::iSenseRandModel<wiselib::iSenseOsModel>, wiselib::iSenseDebug<wiselib::iSenseOsModel> >, wiselib::iSenseRandModel<wiselib::iSenseOsModel>, wiselib::iSenseClockModel<wiselib::iSenseOsModel, isense::Time>, wiselib::iSenseDebug<wiselib::iSenseOsModel> >, &(wiselib::PLTT_PassiveType<wiselib::iSenseOsModel, wiselib::NodeType<wiselib::iSenseOsModel, wiselib::iSenseExtendedTxRadioModel<wiselib::iSenseOsModel>, unsigned short, wiselib::Position2DType<wiselib::iSenseOsModel, wiselib::iSenseExtendedTxRadioModel<wiselib::iSenseOsModel>, unsigned short, wiselib::iSenseDebug<wiselib::iSenseOsModel> >, wiselib::iSenseDebug<wiselib::iSenseOsModel> >, wiselib::PLTT_NodeType<wiselib::iSenseOsModel, wiselib::iSenseExtendedTxRadioModel<wiselib::iSenseOsModel>, wiselib::NodeType<wiselib::iSenseOsModel, wiselib::iSenseExtendedTxRadioModel<wiselib::iSenseOsModel>, unsigned short, wiselib::Position2DType<wiselib::iSenseOsModel, wiselib::iSenseExtendedTxRadioModel<wiselib::iSenseOsModel>, unsigned short, wiselib::iSenseDebug<wiselib::iSenseOsModel> >, wiselib::iSenseDebug<wiselib::iSenseOsModel> >, wiselib::PLTT_NodeTargetType<wiselib::iSenseOsModel, wiselib::iSenseExtendedTxRadioModel<wiselib::iSenseOsModel>, unsigned short, unsigned char, wiselib::iSenseDebug<wiselib::iSenseOsModel> >, wiselib::vector_static<wiselib::iSenseOsModel, wiselib::PLTT_NodeTargetType<wiselib::iSenseOsModel, wiselib::iSenseExtendedTxRadioModel<wiselib::iSenseOsModel>, unsigned short, unsigned char, wiselib::iSenseDebug<wiselib::iSenseOsModel> >, 5>, wiselib::vector_static<wiselib::iSenseOsModel, wiselib::PLTT_TraceType<wiselib::iSenseOsModel, wiselib::iSenseExtendedTxRadioModel<wiselib::iSenseOsModel>, unsigned char, unsigned char, unsigned char, wiselib::NodeType<wiselib::iSenseOsModel, wiselib::iSenseExtendedTxRadioModel<wiselib::iSenseOsModel>, unsigned short, wiselib::Position2DType<wiselib::iSenseOsModel, wiselib::iSenseExtendedTxRadioModel<wiselib::iSenseOsModel>, unsigned short, wiselib::iSenseDebug<wiselib::iSenseOsModel> >, wiselib::iSenseDebug<wiselib::iSenseOsModel> >, unsigned short, wiselib::iSenseDebug<wiselib::iSenseOsModel> >, 5>, wiselib::iSenseDebug<wiselib::iSenseOsModel> >, wiselib::vector_static<wiselib::iSenseOsModel, wiselib::PLTT_NodeType<wiselib::iSenseOsModel, wiselib::iSenseExtendedTxRadioModel<wiselib::iSenseOsModel>, wiselib::NodeType<wiselib::iSenseOsModel, wiselib::iSenseExtendedTxRadioModel<wiselib::iSenseOsModel>, unsigned short, wiselib::Position2DType<wiselib::iSenseOsModel, wiselib::iSenseExtendedTxRadioModel<wiselib::iSenseOsModel>, unsigned short, wiselib::iSenseDebug<wiselib::iSenseOsModel> >, wiselib::iSenseDebug<wiselib::iSenseOsModel> >, wiselib::PLTT_NodeTargetType<wiselib::iSenseOsModel, wiselib::iSenseExtendedTxRadioModel<wiselib::iSenseOsModel>, unsigned short, unsigned char, wiselib::iSenseDebug<wiselib::iSenseOsModel> >, wiselib::vector_static<wiselib::iSenseOsModel, wiselib::PLTT_NodeTargetType<wiselib::iSenseOsModel, wiselib::iSenseExtendedTxRadioModel<wiselib::iSenseOsModel>, unsigned short, unsigned char, wiselib::iSenseDebug<wiselib::iSenseOsModel> >, 5>, wiselib::vector_static<wiselib::iSenseOsModel, wiselib::PLTT_TraceType<wiselib::iSenseOsModel, wiselib::iSenseExtendedTxRadioModel<wiselib::iSenseOsModel>, unsigned char, unsigned char, unsigned char, wiselib::NodeType<wiselib::iSenseOsModel, wiselib::iSenseExtendedTxRadioModel<wiselib::iSenseOsModel>, unsigned short, wiselib::Position2DType<wiselib::iSenseOsModel, wiselib::iSenseExtendedTxRadioModel<wiselib::iSenseOsModel>, unsigned short, wiselib::iSenseDebug<wiselib::iSenseOsModel> >, wiselib::iSenseDebug<wiselib::iSenseOsModel> >, unsigned short, wiselib::iSenseDebug<wiselib::iSenseOsModel> >, 5>, wiselib::iSenseDebug<wiselib::iSenseOsModel> >, 25>, wiselib::PLTT_TraceType<wiselib::iSenseOsModel, wiselib::iSenseExtendedTxRadioModel<wiselib::iSenseOsModel>, unsigned char, unsigned char, unsigned char, wiselib::NodeType<wiselib::iSenseOsModel, wiselib::iSenseExtendedTxRadioModel<wiselib::iSenseOsModel>, unsigned short, wiselib::Position2DType<wiselib::iSenseOsModel, wiselib::iSenseExtendedTxRadioModel<wiselib::iSenseOsModel>, unsigned short, wiselib::iSenseDebug<wiselib::iSenseOsModel> >, wiselib::iSenseDebug<wiselib::iSenseOsModel> >, unsigned short, wiselib::iSenseDebug<wiselib::iSenseOsModel> >, wiselib::vector_static<wiselib::iSenseOsModel, wiselib::PLTT_TraceType<wiselib::iSenseOsModel, wiselib::iSenseExtendedTxRadioModel<wiselib::iSenseOsModel>, unsigned char, unsigned char, unsigned char, wiselib::NodeType<wiselib::iSenseOsModel, wiselib::iSenseExtendedTxRadioModel<wiselib::iSenseOsModel>, unsigned short, wiselib::Position2DType<wiselib::iSenseOsModel, wiselib::iSenseExtendedTxRadioModel<wiselib::iSenseOsModel>, unsigned short, wiselib::iSenseDebug<wiselib::iSenseOsModel> >, wiselib::iSenseDebug<wiselib::iSenseOsModel> >, unsigned short, wiselib::iSenseDebug<wiselib::iSenseOsModel> >, 5>, wiselib::PLTT_SecureTraceType<wiselib::iSenseOsModel, wiselib::iSenseExtendedTxRadioModel<wiselib::iSenseOsModel>, unsigned char, unsigned char, unsigned char, wiselib::NodeType<wiselib::iSenseOsModel, wiselib::iSenseExtendedTxRadioModel<wiselib::iSenseOsModel>, unsigned short, wiselib::Position2DType<wiselib::iSenseOsModel, wiselib::iSenseExtendedTxRadioModel<wiselib::iSenseOsModel>, unsigned short, wiselib::iSenseDebug<wiselib::iSenseOsModel> >, wiselib::iSenseDebug<wiselib::iSenseOsModel> >, unsigned short, wiselib::iSenseDebug<wiselib::iSenseOsModel> >, wiselib::vector_static<wiselib::iSenseOsModel, wiselib::PLTT_SecureTraceType<wiselib::iSenseOsModel, wiselib::iSenseExtendedTxRadioModel<wiselib::iSenseOsModel>, unsigned char, unsigned char, unsigned char, wiselib::NodeType<wiselib::iSenseOsModel, wiselib::iSenseExtendedTxRadioModel<wiselib::iSenseOsModel>, unsigned short, wiselib::Position2DType<wiselib::iSenseOsModel, wiselib::iSenseExtendedTxRadioModel<wiselib::iSenseOsModel>, unsigned short, wiselib::iSenseDebug<wiselib::iSenseOsModel> >, wiselib::iSenseDebug<wiselib::iSenseOsModel> >, unsigned short, wiselib::iSenseDebug<wiselib::iSenseOsModel> >, 25>, wiselib::PLTT_AgentType<wiselib::iSenseOsModel, wiselib::iSenseExtendedTxRadioModel<wiselib::iSenseOsModel>, unsigned short, unsigned char, wiselib::iSenseDebug<wiselib::iSenseOsModel> >, wiselib::NeighborDiscovery_Type<wiselib::iSenseOsModel, wiselib::iSenseExtendedTxRadioModel<wiselib::iSenseOsModel>, wiselib::iSenseClockModel<wiselib::iSenseOsModel, isense::Time>, wiselib::iSenseTimerModel<wiselib::iSenseOsModel>, wiselib::iSenseRandModel<wiselib::iSenseOsModel>, wiselib::iSenseDebug<wiselib::iSenseOsModel> >, wiselib::iSenseTimerModel<wiselib::iSenseOsModel>, wiselib::iSenseExtendedTxRadioModel<wiselib::iSenseOsModel>, wiselib::ReliableRadio_Type<wiselib::iSenseOsModel, wiselib::iSenseExtendedTxRadioModel<wiselib::iSenseOsModel>, wiselib::iSenseClockModel<wiselib::iSenseOsModel, isense::Time>, wiselib::iSenseTimerModel<wiselib::iSenseOsModel>, wiselib::iSenseRandModel<wiselib::iSenseOsModel>, wiselib::iSenseDebug<wiselib::iSenseOsModel> >, wiselib::iSenseRandModel<wiselib::iSenseOsModel>, wiselib::iSenseClockModel<wiselib::iSenseOsModel, isense::Time>, wiselib::iSenseDebug<wiselib::iSenseOsModel> >::spread_secure_trace(void*))>(void*, void*)
 .text._ZN9delegate1IvPvE11method_stubIN7wiselib16PLTT_PassiveTypeINS3_13iSenseOsModelENS3_8NodeTypeIS5_NS3_26iSenseExtendedTxRadioModelIS5_EEtNS3_14Position2DTypeIS5_S8_tNS3_11iSenseDebugIS5_EEEESB_EENS3_13PLTT_NodeTypeIS5_S8_SD_NS3_19PLTT_NodeTargetTypeIS5_S8_thSB_EENS3_13vector_staticIS5_SG_Li5EEENSH_IS5_NS3_14PLTT_TraceTypeIS5_S8_hhhSD_tSB_EELi5EEESB_EENSH_IS5_SM_Li25EEESK_SL_NS3_20PLTT_SecureTraceTypeIS5_S8_hhhSD_tSB_EENSH_IS5_SP_Li25EEENS3_14PLTT_AgentTypeIS5_S8_thSB_EENS3_22NeighborDiscovery_TypeIS5_S8_NS3_16iSenseClockModelIS5_N6isense4TimeEEENS3_16iSenseTimerModelIS5_EENS3_15iSenseRandModelIS5_EESB_EESZ_S8_NS3_18ReliableRadio_TypeIS5_S8_SX_SZ_S11_SB_EES11_SX_SB_EEXadL_ZNS15_23send_decryption_requestES0_EEEEvS0_S0_
                0x0400376c       0x44 out/isense/PLTT_passive_app.o
                0x0400376c                void delegate1<void, void*>::method_stub<wiselib::PLTT_PassiveType<wiselib::iSenseOsModel, wiselib::NodeType<wiselib::iSenseOsModel, wiselib::iSenseExtendedTxRadioModel<wiselib::iSenseOsModel>, unsigned short, wiselib::Position2DType<wiselib::iSenseOsModel, wiselib::iSenseExtendedTxRadioModel<wiselib::iSenseOsModel>, unsigned short, wiselib::iSenseDebug<wiselib::iSenseOsModel> >, wiselib::iSenseDebug<wiselib::iSenseOsModel> >, wiselib::PLTT_NodeType<wiselib::iSenseOsModel, wiselib::iSenseExtendedTxRadioModel<wiselib::iSenseOsModel>, wiselib::NodeType<wiselib::iSenseOsModel, wiselib::iSenseExtendedTxRadioModel<wiselib::iSenseOsModel>, unsigned short, wiselib::Position2DType<wiselib::iSenseOsModel, wiselib::iSenseExtendedTxRadioModel<wiselib::iSenseOsModel>, unsigned short, wiselib::iSenseDebug<wiselib::iSenseOsModel> >, wiselib::iSenseDebug<wiselib::iSenseOsModel> >, wiselib::PLTT_NodeTargetType<wiselib::iSenseOsModel, wiselib::iSenseExtendedTxRadioModel<wiselib::iSenseOsModel>, unsigned short, unsigned char, wiselib::iSenseDebug<wiselib::iSenseOsModel> >, wiselib::vector_static<wiselib::iSenseOsModel, wiselib::PLTT_NodeTargetType<wiselib::iSenseOsModel, wiselib::iSenseExtendedTxRadioModel<wiselib::iSenseOsModel>, unsigned short, unsigned char, wiselib::iSenseDebug<wiselib::iSenseOsModel> >, 5>, wiselib::vector_static<wiselib::iSenseOsModel, wiselib::PLTT_TraceType<wiselib::iSenseOsModel, wiselib::iSenseExtendedTxRadioModel<wiselib::iSenseOsModel>, unsigned char, unsigned char, unsigned char, wiselib::NodeType<wiselib::iSenseOsModel, wiselib::iSenseExtendedTxRadioModel<wiselib::iSenseOsModel>, unsigned short, wiselib::Position2DType<wiselib::iSenseOsModel, wiselib::iSenseExtendedTxRadioModel<wiselib::iSenseOsModel>, unsigned short, wiselib::iSenseDebug<wiselib::iSenseOsModel> >, wiselib::iSenseDebug<wiselib::iSenseOsModel> >, unsigned short, wiselib::iSenseDebug<wiselib::iSenseOsModel> >, 5>, wiselib::iSenseDebug<wiselib::iSenseOsModel> >, wiselib::vector_static<wiselib::iSenseOsModel, wiselib::PLTT_NodeType<wiselib::iSenseOsModel, wiselib::iSenseExtendedTxRadioModel<wiselib::iSenseOsModel>, wiselib::NodeType<wiselib::iSenseOsModel, wiselib::iSenseExtendedTxRadioModel<wiselib::iSenseOsModel>, unsigned short, wiselib::Position2DType<wiselib::iSenseOsModel, wiselib::iSenseExtendedTxRadioModel<wiselib::iSenseOsModel>, unsigned short, wiselib::iSenseDebug<wiselib::iSenseOsModel> >, wiselib::iSenseDebug<wiselib::iSenseOsModel> >, wiselib::PLTT_NodeTargetType<wiselib::iSenseOsModel, wiselib::iSenseExtendedTxRadioModel<wiselib::iSenseOsModel>, unsigned short, unsigned char, wiselib::iSenseDebug<wiselib::iSenseOsModel> >, wiselib::vector_static<wiselib::iSenseOsModel, wiselib::PLTT_NodeTargetType<wiselib::iSenseOsModel, wiselib::iSenseExtendedTxRadioModel<wiselib::iSenseOsModel>, unsigned short, unsigned char, wiselib::iSenseDebug<wiselib::iSenseOsModel> >, 5>, wiselib::vector_static<wiselib::iSenseOsModel, wiselib::PLTT_TraceType<wiselib::iSenseOsModel, wiselib::iSenseExtendedTxRadioModel<wiselib::iSenseOsModel>, unsigned char, unsigned char, unsigned char, wiselib::NodeType<wiselib::iSenseOsModel, wiselib::iSenseExtendedTxRadioModel<wiselib::iSenseOsModel>, unsigned short, wiselib::Position2DType<wiselib::iSenseOsModel, wiselib::iSenseExtendedTxRadioModel<wiselib::iSenseOsModel>, unsigned short, wiselib::iSenseDebug<wiselib::iSenseOsModel> >, wiselib::iSenseDebug<wiselib::iSenseOsModel> >, unsigned short, wiselib::iSenseDebug<wiselib::iSenseOsModel> >, 5>, wiselib::iSenseDebug<wiselib::iSenseOsModel> >, 25>, wiselib::PLTT_TraceType<wiselib::iSenseOsModel, wiselib::iSenseExtendedTxRadioModel<wiselib::iSenseOsModel>, unsigned char, unsigned char, unsigned char, wiselib::NodeType<wiselib::iSenseOsModel, wiselib::iSenseExtendedTxRadioModel<wiselib::iSenseOsModel>, unsigned short, wiselib::Position2DType<wiselib::iSenseOsModel, wiselib::iSenseExtendedTxRadioModel<wiselib::iSenseOsModel>, unsigned short, wiselib::iSenseDebug<wiselib::iSenseOsModel> >, wiselib::iSenseDebug<wiselib::iSenseOsModel> >, unsigned short, wiselib::iSenseDebug<wiselib::iSenseOsModel> >, wiselib::vector_static<wiselib::iSenseOsModel, wiselib::PLTT_TraceType<wiselib::iSenseOsModel, wiselib::iSenseExtendedTxRadioModel<wiselib::iSenseOsModel>, unsigned char, unsigned char, unsigned char, wiselib::NodeType<wiselib::iSenseOsModel, wiselib::iSenseExtendedTxRadioModel<wiselib::iSenseOsModel>, unsigned short, wiselib::Position2DType<wiselib::iSenseOsModel, wiselib::iSenseExtendedTxRadioModel<wiselib::iSenseOsModel>, unsigned short, wiselib::iSenseDebug<wiselib::iSenseOsModel> >, wiselib::iSenseDebug<wiselib::iSenseOsModel> >, unsigned short, wiselib::iSenseDebug<wiselib::iSenseOsModel> >, 5>, wiselib::PLTT_SecureTraceType<wiselib::iSenseOsModel, wiselib::iSenseExtendedTxRadioModel<wiselib::iSenseOsModel>, unsigned char, unsigned char, unsigned char, wiselib::NodeType<wiselib::iSenseOsModel, wiselib::iSenseExtendedTxRadioModel<wiselib::iSenseOsModel>, unsigned short, wiselib::Position2DType<wiselib::iSenseOsModel, wiselib::iSenseExtendedTxRadioModel<wiselib::iSenseOsModel>, unsigned short, wiselib::iSenseDebug<wiselib::iSenseOsModel> >, wiselib::iSenseDebug<wiselib::iSenseOsModel> >, unsigned short, wiselib::iSenseDebug<wiselib::iSenseOsModel> >, wiselib::vector_static<wiselib::iSenseOsModel, wiselib::PLTT_SecureTraceType<wiselib::iSenseOsModel, wiselib::iSenseExtendedTxRadioModel<wiselib::iSenseOsModel>, unsigned char, unsigned char, unsigned char, wiselib::NodeType<wiselib::iSenseOsModel, wiselib::iSenseExtendedTxRadioModel<wiselib::iSenseOsModel>, unsigned short, wiselib::Position2DType<wiselib::iSenseOsModel, wiselib::iSenseExtendedTxRadioModel<wiselib::iSenseOsModel>, unsigned short, wiselib::iSenseDebug<wiselib::iSenseOsModel> >, wiselib::iSenseDebug<wiselib::iSenseOsModel> >, unsigned short, wiselib::iSenseDebug<wiselib::iSenseOsModel> >, 25>, wiselib::PLTT_AgentType<wiselib::iSenseOsModel, wiselib::iSenseExtendedTxRadioModel<wiselib::iSenseOsModel>, unsigned short, unsigned char, wiselib::iSenseDebug<wiselib::iSenseOsModel> >, wiselib::NeighborDiscovery_Type<wiselib::iSenseOsModel, wiselib::iSenseExtendedTxRadioModel<wiselib::iSenseOsModel>, wiselib::iSenseClockModel<wiselib::iSenseOsModel, isense::Time>, wiselib::iSenseTimerModel<wiselib::iSenseOsModel>, wiselib::iSenseRandModel<wiselib::iSenseOsModel>, wiselib::iSenseDebug<wiselib::iSenseOsModel> >, wiselib::iSenseTimerModel<wiselib::iSenseOsModel>, wiselib::iSenseExtendedTxRadioModel<wiselib::iSenseOsModel>, wiselib::ReliableRadio_Type<wiselib::iSenseOsModel, wiselib::iSenseExtendedTxRadioModel<wiselib::iSenseOsModel>, wiselib::iSenseClockModel<wiselib::iSenseOsModel, isense::Time>, wiselib::iSenseTimerModel<wiselib::iSenseOsModel>, wiselib::iSenseRandModel<wiselib::iSenseOsModel>, wiselib::iSenseDebug<wiselib::iSenseOsModel> >, wiselib::iSenseRandModel<wiselib::iSenseOsModel>, wiselib::iSenseClockModel<wiselib::iSenseOsModel, isense::Time>, wiselib::iSenseDebug<wiselib::iSenseOsModel> >, &(wiselib::PLTT_PassiveType<wiselib::iSenseOsModel, wiselib::NodeType<wiselib::iSenseOsModel, wiselib::iSenseExtendedTxRadioModel<wiselib::iSenseOsModel>, unsigned short, wiselib::Position2DType<wiselib::iSenseOsModel, wiselib::iSenseExtendedTxRadioModel<wiselib::iSenseOsModel>, unsigned short, wiselib::iSenseDebug<wiselib::iSenseOsModel> >, wiselib::iSenseDebug<wiselib::iSenseOsModel> >, wiselib::PLTT_NodeType<wiselib::iSenseOsModel, wiselib::iSenseExtendedTxRadioModel<wiselib::iSenseOsModel>, wiselib::NodeType<wiselib::iSenseOsModel, wiselib::iSenseExtendedTxRadioModel<wiselib::iSenseOsModel>, unsigned short, wiselib::Position2DType<wiselib::iSenseOsModel, wiselib::iSenseExtendedTxRadioModel<wiselib::iSenseOsModel>, unsigned short, wiselib::iSenseDebug<wiselib::iSenseOsModel> >, wiselib::iSenseDebug<wiselib::iSenseOsModel> >, wiselib::PLTT_NodeTargetType<wiselib::iSenseOsModel, wiselib::iSenseExtendedTxRadioModel<wiselib::iSenseOsModel>, unsigned short, unsigned char, wiselib::iSenseDebug<wiselib::iSenseOsModel> >, wiselib::vector_static<wiselib::iSenseOsModel, wiselib::PLTT_NodeTargetType<wiselib::iSenseOsModel, wiselib::iSenseExtendedTxRadioModel<wiselib::iSenseOsModel>, unsigned short, unsigned char, wiselib::iSenseDebug<wiselib::iSenseOsModel> >, 5>, wiselib::vector_static<wiselib::iSenseOsModel, wiselib::PLTT_TraceType<wiselib::iSenseOsModel, wiselib::iSenseExtendedTxRadioModel<wiselib::iSenseOsModel>, unsigned char, unsigned char, unsigned char, wiselib::NodeType<wiselib::iSenseOsModel, wiselib::iSenseExtendedTxRadioModel<wiselib::iSenseOsModel>, unsigned short, wiselib::Position2DType<wiselib::iSenseOsModel, wiselib::iSenseExtendedTxRadioModel<wiselib::iSenseOsModel>, unsigned short, wiselib::iSenseDebug<wiselib::iSenseOsModel> >, wiselib::iSenseDebug<wiselib::iSenseOsModel> >, unsigned short, wiselib::iSenseDebug<wiselib::iSenseOsModel> >, 5>, wiselib::iSenseDebug<wiselib::iSenseOsModel> >, wiselib::vector_static<wiselib::iSenseOsModel, wiselib::PLTT_NodeType<wiselib::iSenseOsModel, wiselib::iSenseExtendedTxRadioModel<wiselib::iSenseOsModel>, wiselib::NodeType<wiselib::iSenseOsModel, wiselib::iSenseExtendedTxRadioModel<wiselib::iSenseOsModel>, unsigned short, wiselib::Position2DType<wiselib::iSenseOsModel, wiselib::iSenseExtendedTxRadioModel<wiselib::iSenseOsModel>, unsigned short, wiselib::iSenseDebug<wiselib::iSenseOsModel> >, wiselib::iSenseDebug<wiselib::iSenseOsModel> >, wiselib::PLTT_NodeTargetType<wiselib::iSenseOsModel, wiselib::iSenseExtendedTxRadioModel<wiselib::iSenseOsModel>, unsigned short, unsigned char, wiselib::iSenseDebug<wiselib::iSenseOsModel> >, wiselib::vector_static<wiselib::iSenseOsModel, wiselib::PLTT_NodeTargetType<wiselib::iSenseOsModel, wiselib::iSenseExtendedTxRadioModel<wiselib::iSenseOsModel>, unsigned short, unsigned char, wiselib::iSenseDebug<wiselib::iSenseOsModel> >, 5>, wiselib::vector_static<wiselib::iSenseOsModel, wiselib::PLTT_TraceType<wiselib::iSenseOsModel, wiselib::iSenseExtendedTxRadioModel<wiselib::iSenseOsModel>, unsigned char, unsigned char, unsigned char, wiselib::NodeType<wiselib::iSenseOsModel, wiselib::iSenseExtendedTxRadioModel<wiselib::iSenseOsModel>, unsigned short, wiselib::Position2DType<wiselib::iSenseOsModel, wiselib::iSenseExtendedTxRadioModel<wiselib::iSenseOsModel>, unsigned short, wiselib::iSenseDebug<wiselib::iSenseOsModel> >, wiselib::iSenseDebug<wiselib::iSenseOsModel> >, unsigned short, wiselib::iSenseDebug<wiselib::iSenseOsModel> >, 5>, wiselib::iSenseDebug<wiselib::iSenseOsModel> >, 25>, wiselib::PLTT_TraceType<wiselib::iSenseOsModel, wiselib::iSenseExtendedTxRadioModel<wiselib::iSenseOsModel>, unsigned char, unsigned char, unsigned char, wiselib::NodeType<wiselib::iSenseOsModel, wiselib::iSenseExtendedTxRadioModel<wiselib::iSenseOsModel>, unsigned short, wiselib::Position2DType<wiselib::iSenseOsModel, wiselib::iSenseExtendedTxRadioModel<wiselib::iSenseOsModel>, unsigned short, wiselib::iSenseDebug<wiselib::iSenseOsModel> >, wiselib::iSenseDebug<wiselib::iSenseOsModel> >, unsigned short, wiselib::iSenseDebug<wiselib::iSenseOsModel> >, wiselib::vector_static<wiselib::iSenseOsModel, wiselib::PLTT_TraceType<wiselib::iSenseOsModel, wiselib::iSenseExtendedTxRadioModel<wiselib::iSenseOsModel>, unsigned char, unsigned char, unsigned char, wiselib::NodeType<wiselib::iSenseOsModel, wiselib::iSenseExtendedTxRadioModel<wiselib::iSenseOsModel>, unsigned short, wiselib::Position2DType<wiselib::iSenseOsModel, wiselib::iSenseExtendedTxRadioModel<wiselib::iSenseOsModel>, unsigned short, wiselib::iSenseDebug<wiselib::iSenseOsModel> >, wiselib::iSenseDebug<wiselib::iSenseOsModel> >, unsigned short, wiselib::iSenseDebug<wiselib::iSenseOsModel> >, 5>, wiselib::PLTT_SecureTraceType<wiselib::iSenseOsModel, wiselib::iSenseExtendedTxRadioModel<wiselib::iSenseOsModel>, unsigned char, unsigned char, unsigned char, wiselib::NodeType<wiselib::iSenseOsModel, wiselib::iSenseExtendedTxRadioModel<wiselib::iSenseOsModel>, unsigned short, wiselib::Position2DType<wiselib::iSenseOsModel, wiselib::iSenseExtendedTxRadioModel<wiselib::iSenseOsModel>, unsigned short, wiselib::iSenseDebug<wiselib::iSenseOsModel> >, wiselib::iSenseDebug<wiselib::iSenseOsModel> >, unsigned short, wiselib::iSenseDebug<wiselib::iSenseOsModel> >, wiselib::vector_static<wiselib::iSenseOsModel, wiselib::PLTT_SecureTraceType<wiselib::iSenseOsModel, wiselib::iSenseExtendedTxRadioModel<wiselib::iSenseOsModel>, unsigned char, unsigned char, unsigned char, wiselib::NodeType<wiselib::iSenseOsModel, wiselib::iSenseExtendedTxRadioModel<wiselib::iSenseOsModel>, unsigned short, wiselib::Position2DType<wiselib::iSenseOsModel, wiselib::iSenseExtendedTxRadioModel<wiselib::iSenseOsModel>, unsigned short, wiselib::iSenseDebug<wiselib::iSenseOsModel> >, wiselib::iSenseDebug<wiselib::iSenseOsModel> >, unsigned short, wiselib::iSenseDebug<wiselib::iSenseOsModel> >, 25>, wiselib::PLTT_AgentType<wiselib::iSenseOsModel, wiselib::iSenseExtendedTxRadioModel<wiselib::iSenseOsModel>, unsigned short, unsigned char, wiselib::iSenseDebug<wiselib::iSenseOsModel> >, wiselib::NeighborDiscovery_Type<wiselib::iSenseOsModel, wiselib::iSenseExtendedTxRadioModel<wiselib::iSenseOsModel>, wiselib::iSenseClockModel<wiselib::iSenseOsModel, isense::Time>, wiselib::iSenseTimerModel<wiselib::iSenseOsModel>, wiselib::iSenseRandModel<wiselib::iSenseOsModel>, wiselib::iSenseDebug<wiselib::iSenseOsModel> >, wiselib::iSenseTimerModel<wiselib::iSenseOsModel>, wiselib::iSenseExtendedTxRadioModel<wiselib::iSenseOsModel>, wiselib::ReliableRadio_Type<wiselib::iSenseOsModel, wiselib::iSenseExtendedTxRadioModel<wiselib::iSenseOsModel>, wiselib::iSenseClockModel<wiselib::iSenseOsModel, isense::Time>, wiselib::iSenseTimerModel<wiselib::iSenseOsModel>, wiselib::iSenseRandModel<wiselib::iSenseOsModel>, wiselib::iSenseDebug<wiselib::iSenseOsModel> >, wiselib::iSenseRandModel<wiselib::iSenseOsModel>, wiselib::iSenseClockModel<wiselib::iSenseOsModel, isense::Time>, wiselib::iSenseDebug<wiselib::iSenseOsModel> >::send_decryption_request(void*))>(void*, void*)
 .text._Z41__static_initialization_and_destruction_0ii
                0x040037b0      0x130 out/isense/PLTT_passive_app.o
 .text._ZNK9delegate3IvthPhEclEthS0_
                0x040038e0       0x20 out/isense/PLTT_passive_app.o
                0x040038e0                delegate3<void, unsigned short, unsigned char, unsigned char*>::operator()(unsigned short, unsigned char, unsigned char*) const
 .text._ZN7wiselib26iSenseExtendedTxRadioModelINS_13iSenseOsModelEE7receiveEhPKhtttthhN6isense4TimeE
                0x04003900       0xfc out/isense/PLTT_passive_app.o
                0x04003900                wiselib::iSenseExtendedTxRadioModel<wiselib::iSenseOsModel>::receive(unsigned char, unsigned char const*, unsigned short, unsigned short, unsigned short, unsigned short, unsigned char, unsigned char, isense::Time)
 .text._GLOBAL__I__ZN7wiselib51_GLOBAL__N_._PLTT_passive_app.cpp_00000000_47BADBE622isense_timer_callbacksE
                0x040039fc        0xc out/isense/PLTT_passive_app.o
 .text._ZN7wiselib51_GLOBAL__N_._PLTT_passive_app.cpp_00000000_47BADBE619iSenseTimerCallbackD1Ev
                0x04003a08       0x10 out/isense/PLTT_passive_app.o
 .text._ZN6isense8ReceiverD0Ev
                0x04003a18       0x10 out/isense/PLTT_passive_app.o
                0x04003a18                isense::Receiver::~Receiver()
 .text._ZN6isense8ReceiverD1Ev
                0x04003a28       0x10 out/isense/PLTT_passive_app.o
                0x04003a28                isense::Receiver::~Receiver()
 .text._ZN7wiselib26iSenseExtendedTxRadioModelINS_13iSenseOsModelEED1Ev
                0x04003a38       0x10 out/isense/PLTT_passive_app.o
                0x04003a38                wiselib::iSenseExtendedTxRadioModel<wiselib::iSenseOsModel>::~iSenseExtendedTxRadioModel()
 .text._ZN7wiselib26iSenseExtendedTxRadioModelINS_13iSenseOsModelEEC1ERN6isense2OsE
                0x04003a48       0x80 out/isense/PLTT_passive_app.o
                0x04003a48                wiselib::iSenseExtendedTxRadioModel<wiselib::iSenseOsModel>::iSenseExtendedTxRadioModel(isense::Os&)
 .text._ZN7wiselib13FacetProviderINS_13iSenseOsModelENS_26iSenseExtendedTxRadioModelIS1_EEE9get_facetERN6isense2OsE
                0x04003ac8       0x6c out/isense/PLTT_passive_app.o
                0x04003ac8                wiselib::FacetProvider<wiselib::iSenseOsModel, wiselib::iSenseExtendedTxRadioModel<wiselib::iSenseOsModel> >::get_facet(isense::Os&)
 .text._ZN7wiselib13FacetProviderINS_13iSenseOsModelENS_16iSenseClockModelIS1_N6isense4TimeEEEE9get_facetERNS3_2OsE
                0x04003b34       0x4c out/isense/PLTT_passive_app.o
                0x04003b34                wiselib::FacetProvider<wiselib::iSenseOsModel, wiselib::iSenseClockModel<wiselib::iSenseOsModel, isense::Time> >::get_facet(isense::Os&)
 .text._ZN7wiselib13FacetProviderINS_13iSenseOsModelENS_15iSenseRandModelIS1_EEE9get_facetERN6isense2OsE
                0x04003b80       0x50 out/isense/PLTT_passive_app.o
                0x04003b80                wiselib::FacetProvider<wiselib::iSenseOsModel, wiselib::iSenseRandModel<wiselib::iSenseOsModel> >::get_facet(isense::Os&)
 .text._ZN7wiselib13FacetProviderINS_13iSenseOsModelENS_11iSenseDebugIS1_EEE9get_facetERN6isense2OsE
                0x04003bd0       0x4c out/isense/PLTT_passive_app.o
                0x04003bd0                wiselib::FacetProvider<wiselib::iSenseOsModel, wiselib::iSenseDebug<wiselib::iSenseOsModel> >::get_facet(isense::Os&)
 .text._ZN7wiselib13FacetProviderINS_13iSenseOsModelENS_16iSenseTimerModelIS1_EEE9get_facetERN6isense2OsE
                0x04003c1c       0x4c out/isense/PLTT_passive_app.o
                0x04003c1c                wiselib::FacetProvider<wiselib::iSenseOsModel, wiselib::iSenseTimerModel<wiselib::iSenseOsModel> >::get_facet(isense::Os&)
 .text._ZN7wiselib14PLTT_AgentTypeINS_13iSenseOsModelENS_26iSenseExtendedTxRadioModelIS1_EEthNS_11iSenseDebugIS1_EEE9serializeEPhh
                0x04003c68       0x98 out/isense/PLTT_passive_app.o
                0x04003c68                wiselib::PLTT_AgentType<wiselib::iSenseOsModel, wiselib::iSenseExtendedTxRadioModel<wiselib::iSenseOsModel>, unsigned short, unsigned char, wiselib::iSenseDebug<wiselib::iSenseOsModel> >::serialize(unsigned char*, unsigned char)
 .text._ZN7wiselib14PLTT_AgentTypeINS_13iSenseOsModelENS_26iSenseExtendedTxRadioModelIS1_EEthNS_11iSenseDebugIS1_EEE12de_serializeEPhh
                0x04003d00       0x94 out/isense/PLTT_passive_app.o
                0x04003d00                wiselib::PLTT_AgentType<wiselib::iSenseOsModel, wiselib::iSenseExtendedTxRadioModel<wiselib::iSenseOsModel>, unsigned short, unsigned char, wiselib::iSenseDebug<wiselib::iSenseOsModel> >::de_serialize(unsigned char*, unsigned char)
 .text._ZN7wiselib13vector_staticINS_13iSenseOsModelENS_13Neighbor_TypeIS1_NS_26iSenseExtendedTxRadioModelIS1_EENS_16iSenseClockModelIS1_N6isense4TimeEEENS_16iSenseTimerModelIS1_EENS_11iSenseDebugIS1_EEEELi25EEaSERKSE_
                0x04003d94       0x58 out/isense/PLTT_passive_app.o
                0x04003d94                wiselib::vector_static<wiselib::iSenseOsModel, wiselib::Neighbor_Type<wiselib::iSenseOsModel, wiselib::iSenseExtendedTxRadioModel<wiselib::iSenseOsModel>, wiselib::iSenseClockModel<wiselib::iSenseOsModel, isense::Time>, wiselib::iSenseTimerModel<wiselib::iSenseOsModel>, wiselib::iSenseDebug<wiselib::iSenseOsModel> >, 25>::operator=(wiselib::vector_static<wiselib::iSenseOsModel, wiselib::Neighbor_Type<wiselib::iSenseOsModel, wiselib::iSenseExtendedTxRadioModel<wiselib::iSenseOsModel>, wiselib::iSenseClockModel<wiselib::iSenseOsModel, isense::Time>, wiselib::iSenseTimerModel<wiselib::iSenseOsModel>, wiselib::iSenseDebug<wiselib::iSenseOsModel> >, 25> const&)
 .text._ZN7wiselib13vector_staticINS_13iSenseOsModelENS_13Neighbor_TypeIS1_NS_26iSenseExtendedTxRadioModelIS1_EENS_16iSenseClockModelIS1_N6isense4TimeEEENS_16iSenseTimerModelIS1_EENS_11iSenseDebugIS1_EEEELi25EEC1ERKSE_
                0x04003dec       0x54 out/isense/PLTT_passive_app.o
                0x04003dec                wiselib::vector_static<wiselib::iSenseOsModel, wiselib::Neighbor_Type<wiselib::iSenseOsModel, wiselib::iSenseExtendedTxRadioModel<wiselib::iSenseOsModel>, wiselib::iSenseClockModel<wiselib::iSenseOsModel, isense::Time>, wiselib::iSenseTimerModel<wiselib::iSenseOsModel>, wiselib::iSenseDebug<wiselib::iSenseOsModel> >, 25>::vector_static(wiselib::vector_static<wiselib::iSenseOsModel, wiselib::Neighbor_Type<wiselib::iSenseOsModel, wiselib::iSenseExtendedTxRadioModel<wiselib::iSenseOsModel>, wiselib::iSenseClockModel<wiselib::iSenseOsModel, isense::Time>, wiselib::iSenseTimerModel<wiselib::iSenseOsModel>, wiselib::iSenseDebug<wiselib::iSenseOsModel> >, 25> const&)
 .text._ZN7wiselib13Protocol_TypeINS_13iSenseOsModelENS_26iSenseExtendedTxRadioModelIS1_EENS_16iSenseClockModelIS1_N6isense4TimeEEENS_16iSenseTimerModelIS1_EENS_11iSenseDebugIS1_EEEaSERKSC_
                0x04003e40       0x60 out/isense/PLTT_passive_app.o
                0x04003e40                wiselib::Protocol_Type<wiselib::iSenseOsModel, wiselib::iSenseExtendedTxRadioModel<wiselib::iSenseOsModel>, wiselib::iSenseClockModel<wiselib::iSenseOsModel, isense::Time>, wiselib::iSenseTimerModel<wiselib::iSenseOsModel>, wiselib::iSenseDebug<wiselib::iSenseOsModel> >::operator=(wiselib::Protocol_Type<wiselib::iSenseOsModel, wiselib::iSenseExtendedTxRadioModel<wiselib::iSenseOsModel>, wiselib::iSenseClockModel<wiselib::iSenseOsModel, isense::Time>, wiselib::iSenseTimerModel<wiselib::iSenseOsModel>, wiselib::iSenseDebug<wiselib::iSenseOsModel> > const&)
 .text._ZN7wiselib13vector_staticINS_13iSenseOsModelENS_13Protocol_TypeIS1_NS_26iSenseExtendedTxRadioModelIS1_EENS_16iSenseClockModelIS1_N6isense4TimeEEENS_16iSenseTimerModelIS1_EENS_11iSenseDebugIS1_EEEELi2EE9push_backERKSD_
                0x04003ea0       0x48 out/isense/PLTT_passive_app.o
                0x04003ea0                wiselib::vector_static<wiselib::iSenseOsModel, wiselib::Protocol_Type<wiselib::iSenseOsModel, wiselib::iSenseExtendedTxRadioModel<wiselib::iSenseOsModel>, wiselib::iSenseClockModel<wiselib::iSenseOsModel, isense::Time>, wiselib::iSenseTimerModel<wiselib::iSenseOsModel>, wiselib::iSenseDebug<wiselib::iSenseOsModel> >, 2>::push_back(wiselib::Protocol_Type<wiselib::iSenseOsModel, wiselib::iSenseExtendedTxRadioModel<wiselib::iSenseOsModel>, wiselib::iSenseClockModel<wiselib::iSenseOsModel, isense::Time>, wiselib::iSenseTimerModel<wiselib::iSenseOsModel>, wiselib::iSenseDebug<wiselib::iSenseOsModel> > const&)
 .text._ZN7wiselib22NeighborDiscovery_TypeINS_13iSenseOsModelENS_26iSenseExtendedTxRadioModelIS1_EENS_16iSenseClockModelIS1_N6isense4TimeEEENS_16iSenseTimerModelIS1_EENS_15iSenseRandModelIS1_EENS_11iSenseDebugIS1_EEE17register_protocolINS_16PLTT_PassiveTypeIS1_NS_8NodeTypeIS1_S3_tNS_14Position2DTypeIS1_S3_tSD_EESD_EENS_13PLTT_NodeTypeIS1_S3_SK_NS_19PLTT_NodeTargetTypeIS1_S3_thSD_EENS_13vector_staticIS1_SN_Li5EEENSO_IS1_NS_14PLTT_TraceTypeIS1_S3_hhhSK_tSD_EELi5EEESD_EENSO_IS1_ST_Li25EEESR_SS_NS_20PLTT_SecureTraceTypeIS1_S3_hhhSK_tSD_EENSO_IS1_SW_Li25EEENS_14PLTT_AgentTypeIS1_S3_thSD_EESE_S9_S3_NS_18ReliableRadio_TypeIS1_S3_S7_S9_SB_SD_EESB_S7_SD_EEXadL_ZNS12_14sync_neighborsEhthPhEEEEhhNS_21ProtocolSettings_TypeIS1_S3_S9_SD_EEPT_
                0x04003ee8      0x228 out/isense/PLTT_passive_app.o
                0x04003ee8                unsigned char wiselib::NeighborDiscovery_Type<wiselib::iSenseOsModel, wiselib::iSenseExtendedTxRadioModel<wiselib::iSenseOsModel>, wiselib::iSenseClockModel<wiselib::iSenseOsModel, isense::Time>, wiselib::iSenseTimerModel<wiselib::iSenseOsModel>, wiselib::iSenseRandModel<wiselib::iSenseOsModel>, wiselib::iSenseDebug<wiselib::iSenseOsModel> >::register_protocol<wiselib::PLTT_PassiveType<wiselib::iSenseOsModel, wiselib::NodeType<wiselib::iSenseOsModel, wiselib::iSenseExtendedTxRadioModel<wiselib::iSenseOsModel>, unsigned short, wiselib::Position2DType<wiselib::iSenseOsModel, wiselib::iSenseExtendedTxRadioModel<wiselib::iSenseOsModel>, unsigned short, wiselib::iSenseDebug<wiselib::iSenseOsModel> >, wiselib::iSenseDebug<wiselib::iSenseOsModel> >, wiselib::PLTT_NodeType<wiselib::iSenseOsModel, wiselib::iSenseExtendedTxRadioModel<wiselib::iSenseOsModel>, wiselib::NodeType<wiselib::iSenseOsModel, wiselib::iSenseExtendedTxRadioModel<wiselib::iSenseOsModel>, unsigned short, wiselib::Position2DType<wiselib::iSenseOsModel, wiselib::iSenseExtendedTxRadioModel<wiselib::iSenseOsModel>, unsigned short, wiselib::iSenseDebug<wiselib::iSenseOsModel> >, wiselib::iSenseDebug<wiselib::iSenseOsModel> >, wiselib::PLTT_NodeTargetType<wiselib::iSenseOsModel, wiselib::iSenseExtendedTxRadioModel<wiselib::iSenseOsModel>, unsigned short, unsigned char, wiselib::iSenseDebug<wiselib::iSenseOsModel> >, wiselib::vector_static<wiselib::iSenseOsModel, wiselib::PLTT_NodeTargetType<wiselib::iSenseOsModel, wiselib::iSenseExtendedTxRadioModel<wiselib::iSenseOsModel>, unsigned short, unsigned char, wiselib::iSenseDebug<wiselib::iSenseOsModel> >, 5>, wiselib::vector_static<wiselib::iSenseOsModel, wiselib::PLTT_TraceType<wiselib::iSenseOsModel, wiselib::iSenseExtendedTxRadioModel<wiselib::iSenseOsModel>, unsigned char, unsigned char, unsigned char, wiselib::NodeType<wiselib::iSenseOsModel, wiselib::iSenseExtendedTxRadioModel<wiselib::iSenseOsModel>, unsigned short, wiselib::Position2DType<wiselib::iSenseOsModel, wiselib::iSenseExtendedTxRadioModel<wiselib::iSenseOsModel>, unsigned short, wiselib::iSenseDebug<wiselib::iSenseOsModel> >, wiselib::iSenseDebug<wiselib::iSenseOsModel> >, unsigned short, wiselib::iSenseDebug<wiselib::iSenseOsModel> >, 5>, wiselib::iSenseDebug<wiselib::iSenseOsModel> >, wiselib::vector_static<wiselib::iSenseOsModel, wiselib::PLTT_NodeType<wiselib::iSenseOsModel, wiselib::iSenseExtendedTxRadioModel<wiselib::iSenseOsModel>, wiselib::NodeType<wiselib::iSenseOsModel, wiselib::iSenseExtendedTxRadioModel<wiselib::iSenseOsModel>, unsigned short, wiselib::Position2DType<wiselib::iSenseOsModel, wiselib::iSenseExtendedTxRadioModel<wiselib::iSenseOsModel>, unsigned short, wiselib::iSenseDebug<wiselib::iSenseOsModel> >, wiselib::iSenseDebug<wiselib::iSenseOsModel> >, wiselib::PLTT_NodeTargetType<wiselib::iSenseOsModel, wiselib::iSenseExtendedTxRadioModel<wiselib::iSenseOsModel>, unsigned short, unsigned char, wiselib::iSenseDebug<wiselib::iSenseOsModel> >, wiselib::vector_static<wiselib::iSenseOsModel, wiselib::PLTT_NodeTargetType<wiselib::iSenseOsModel, wiselib::iSenseExtendedTxRadioModel<wiselib::iSenseOsModel>, unsigned short, unsigned char, wiselib::iSenseDebug<wiselib::iSenseOsModel> >, 5>, wiselib::vector_static<wiselib::iSenseOsModel, wiselib::PLTT_TraceType<wiselib::iSenseOsModel, wiselib::iSenseExtendedTxRadioModel<wiselib::iSenseOsModel>, unsigned char, unsigned char, unsigned char, wiselib::NodeType<wiselib::iSenseOsModel, wiselib::iSenseExtendedTxRadioModel<wiselib::iSenseOsModel>, unsigned short, wiselib::Position2DType<wiselib::iSenseOsModel, wiselib::iSenseExtendedTxRadioModel<wiselib::iSenseOsModel>, unsigned short, wiselib::iSenseDebug<wiselib::iSenseOsModel> >, wiselib::iSenseDebug<wiselib::iSenseOsModel> >, unsigned short, wiselib::iSenseDebug<wiselib::iSenseOsModel> >, 5>, wiselib::iSenseDebug<wiselib::iSenseOsModel> >, 25>, wiselib::PLTT_TraceType<wiselib::iSenseOsModel, wiselib::iSenseExtendedTxRadioModel<wiselib::iSenseOsModel>, unsigned char, unsigned char, unsigned char, wiselib::NodeType<wiselib::iSenseOsModel, wiselib::iSenseExtendedTxRadioModel<wiselib::iSenseOsModel>, unsigned short, wiselib::Position2DType<wiselib::iSenseOsModel, wiselib::iSenseExtendedTxRadioModel<wiselib::iSenseOsModel>, unsigned short, wiselib::iSenseDebug<wiselib::iSenseOsModel> >, wiselib::iSenseDebug<wiselib::iSenseOsModel> >, unsigned short, wiselib::iSenseDebug<wiselib::iSenseOsModel> >, wiselib::vector_static<wiselib::iSenseOsModel, wiselib::PLTT_TraceType<wiselib::iSenseOsModel, wiselib::iSenseExtendedTxRadioModel<wiselib::iSenseOsModel>, unsigned char, unsigned char, unsigned char, wiselib::NodeType<wiselib::iSenseOsModel, wiselib::iSenseExtendedTxRadioModel<wiselib::iSenseOsModel>, unsigned short, wiselib::Position2DType<wiselib::iSenseOsModel, wiselib::iSenseExtendedTxRadioModel<wiselib::iSenseOsModel>, unsigned short, wiselib::iSenseDebug<wiselib::iSenseOsModel> >, wiselib::iSenseDebug<wiselib::iSenseOsModel> >, unsigned short, wiselib::iSenseDebug<wiselib::iSenseOsModel> >, 5>, wiselib::PLTT_SecureTraceType<wiselib::iSenseOsModel, wiselib::iSenseExtendedTxRadioModel<wiselib::iSenseOsModel>, unsigned char, unsigned char, unsigned char, wiselib::NodeType<wiselib::iSenseOsModel, wiselib::iSenseExtendedTxRadioModel<wiselib::iSenseOsModel>, unsigned short, wiselib::Position2DType<wiselib::iSenseOsModel, wiselib::iSenseExtendedTxRadioModel<wiselib::iSenseOsModel>, unsigned short, wiselib::iSenseDebug<wiselib::iSenseOsModel> >, wiselib::iSenseDebug<wiselib::iSenseOsModel> >, unsigned short, wiselib::iSenseDebug<wiselib::iSenseOsModel> >, wiselib::vector_static<wiselib::iSenseOsModel, wiselib::PLTT_SecureTraceType<wiselib::iSenseOsModel, wiselib::iSenseExtendedTxRadioModel<wiselib::iSenseOsModel>, unsigned char, unsigned char, unsigned char, wiselib::NodeType<wiselib::iSenseOsModel, wiselib::iSenseExtendedTxRadioModel<wiselib::iSenseOsModel>, unsigned short, wiselib::Position2DType<wiselib::iSenseOsModel, wiselib::iSenseExtendedTxRadioModel<wiselib::iSenseOsModel>, unsigned short, wiselib::iSenseDebug<wiselib::iSenseOsModel> >, wiselib::iSenseDebug<wiselib::iSenseOsModel> >, unsigned short, wiselib::iSenseDebug<wiselib::iSenseOsModel> >, 25>, wiselib::PLTT_AgentType<wiselib::iSenseOsModel, wiselib::iSenseExtendedTxRadioModel<wiselib::iSenseOsModel>, unsigned short, unsigned char, wiselib::iSenseDebug<wiselib::iSenseOsModel> >, wiselib::NeighborDiscovery_Type<wiselib::iSenseOsModel, wiselib::iSenseExtendedTxRadioModel<wiselib::iSenseOsModel>, wiselib::iSenseClockModel<wiselib::iSenseOsModel, isense::Time>, wiselib::iSenseTimerModel<wiselib::iSenseOsModel>, wiselib::iSenseRandModel<wiselib::iSenseOsModel>, wiselib::iSenseDebug<wiselib::iSenseOsModel> >, wiselib::iSenseTimerModel<wiselib::iSenseOsModel>, wiselib::iSenseExtendedTxRadioModel<wiselib::iSenseOsModel>, wiselib::ReliableRadio_Type<wiselib::iSenseOsModel, wiselib::iSenseExtendedTxRadioModel<wiselib::iSenseOsModel>, wiselib::iSenseClockModel<wiselib::iSenseOsModel, isense::Time>, wiselib::iSenseTimerModel<wiselib::iSenseOsModel>, wiselib::iSenseRandModel<wiselib::iSenseOsModel>, wiselib::iSenseDebug<wiselib::iSenseOsModel> >, wiselib::iSenseRandModel<wiselib::iSenseOsModel>, wiselib::iSenseClockModel<wiselib::iSenseOsModel, isense::Time>, wiselib::iSenseDebug<wiselib::iSenseOsModel> >, &(wiselib::PLTT_PassiveType<wiselib::iSenseOsModel, wiselib::NodeType<wiselib::iSenseOsModel, wiselib::iSenseExtendedTxRadioModel<wiselib::iSenseOsModel>, unsigned short, wiselib::Position2DType<wiselib::iSenseOsModel, wiselib::iSenseExtendedTxRadioModel<wiselib::iSenseOsModel>, unsigned short, wiselib::iSenseDebug<wiselib::iSenseOsModel> >, wiselib::iSenseDebug<wiselib::iSenseOsModel> >, wiselib::PLTT_NodeType<wiselib::iSenseOsModel, wiselib::iSenseExtendedTxRadioModel<wiselib::iSenseOsModel>, wiselib::NodeType<wiselib::iSenseOsModel, wiselib::iSenseExtendedTxRadioModel<wiselib::iSenseOsModel>, unsigned short, wiselib::Position2DType<wiselib::iSenseOsModel, wiselib::iSenseExtendedTxRadioModel<wiselib::iSenseOsModel>, unsigned short, wiselib::iSenseDebug<wiselib::iSenseOsModel> >, wiselib::iSenseDebug<wiselib::iSenseOsModel> >, wiselib::PLTT_NodeTargetType<wiselib::iSenseOsModel, wiselib::iSenseExtendedTxRadioModel<wiselib::iSenseOsModel>, unsigned short, unsigned char, wiselib::iSenseDebug<wiselib::iSenseOsModel> >, wiselib::vector_static<wiselib::iSenseOsModel, wiselib::PLTT_NodeTargetType<wiselib::iSenseOsModel, wiselib::iSenseExtendedTxRadioModel<wiselib::iSenseOsModel>, unsigned short, unsigned char, wiselib::iSenseDebug<wiselib::iSenseOsModel> >, 5>, wiselib::vector_static<wiselib::iSenseOsModel, wiselib::PLTT_TraceType<wiselib::iSenseOsModel, wiselib::iSenseExtendedTxRadioModel<wiselib::iSenseOsModel>, unsigned char, unsigned char, unsigned char, wiselib::NodeType<wiselib::iSenseOsModel, wiselib::iSenseExtendedTxRadioModel<wiselib::iSenseOsModel>, unsigned short, wiselib::Position2DType<wiselib::iSenseOsModel, wiselib::iSenseExtendedTxRadioModel<wiselib::iSenseOsModel>, unsigned short, wiselib::iSenseDebug<wiselib::iSenseOsModel> >, wiselib::iSenseDebug<wiselib::iSenseOsModel> >, unsigned short, wiselib::iSenseDebug<wiselib::iSenseOsModel> >, 5>, wiselib::iSenseDebug<wiselib::iSenseOsModel> >, wiselib::vector_static<wiselib::iSenseOsModel, wiselib::PLTT_NodeType<wiselib::iSenseOsModel, wiselib::iSenseExtendedTxRadioModel<wiselib::iSenseOsModel>, wiselib::NodeType<wiselib::iSenseOsModel, wiselib::iSenseExtendedTxRadioModel<wiselib::iSenseOsModel>, unsigned short, wiselib::Position2DType<wiselib::iSenseOsModel, wiselib::iSenseExtendedTxRadioModel<wiselib::iSenseOsModel>, unsigned short, wiselib::iSenseDebug<wiselib::iSenseOsModel> >, wiselib::iSenseDebug<wiselib::iSenseOsModel> >, wiselib::PLTT_NodeTargetType<wiselib::iSenseOsModel, wiselib::iSenseExtendedTxRadioModel<wiselib::iSenseOsModel>, unsigned short, unsigned char, wiselib::iSenseDebug<wiselib::iSenseOsModel> >, wiselib::vector_static<wiselib::iSenseOsModel, wiselib::PLTT_NodeTargetType<wiselib::iSenseOsModel, wiselib::iSenseExtendedTxRadioModel<wiselib::iSenseOsModel>, unsigned short, unsigned char, wiselib::iSenseDebug<wiselib::iSenseOsModel> >, 5>, wiselib::vector_static<wiselib::iSenseOsModel, wiselib::PLTT_TraceType<wiselib::iSenseOsModel, wiselib::iSenseExtendedTxRadioModel<wiselib::iSenseOsModel>, unsigned char, unsigned char, unsigned char, wiselib::NodeType<wiselib::iSenseOsModel, wiselib::iSenseExtendedTxRadioModel<wiselib::iSenseOsModel>, unsigned short, wiselib::Position2DType<wiselib::iSenseOsModel, wiselib::iSenseExtendedTxRadioModel<wiselib::iSenseOsModel>, unsigned short, wiselib::iSenseDebug<wiselib::iSenseOsModel> >, wiselib::iSenseDebug<wiselib::iSenseOsModel> >, unsigned short, wiselib::iSenseDebug<wiselib::iSenseOsModel> >, 5>, wiselib::iSenseDebug<wiselib::iSenseOsModel> >, 25>, wiselib::PLTT_TraceType<wiselib::iSenseOsModel, wiselib::iSenseExtendedTxRadioModel<wiselib::iSenseOsModel>, unsigned char, unsigned char, unsigned char, wiselib::NodeType<wiselib::iSenseOsModel, wiselib::iSenseExtendedTxRadioModel<wiselib::iSenseOsModel>, unsigned short, wiselib::Position2DType<wiselib::iSenseOsModel, wiselib::iSenseExtendedTxRadioModel<wiselib::iSenseOsModel>, unsigned short, wiselib::iSenseDebug<wiselib::iSenseOsModel> >, wiselib::iSenseDebug<wiselib::iSenseOsModel> >, unsigned short, wiselib::iSenseDebug<wiselib::iSenseOsModel> >, wiselib::vector_static<wiselib::iSenseOsModel, wiselib::PLTT_TraceType<wiselib::iSenseOsModel, wiselib::iSenseExtendedTxRadioModel<wiselib::iSenseOsModel>, unsigned char, unsigned char, unsigned char, wiselib::NodeType<wiselib::iSenseOsModel, wiselib::iSenseExtendedTxRadioModel<wiselib::iSenseOsModel>, unsigned short, wiselib::Position2DType<wiselib::iSenseOsModel, wiselib::iSenseExtendedTxRadioModel<wiselib::iSenseOsModel>, unsigned short, wiselib::iSenseDebug<wiselib::iSenseOsModel> >, wiselib::iSenseDebug<wiselib::iSenseOsModel> >, unsigned short, wiselib::iSenseDebug<wiselib::iSenseOsModel> >, 5>, wiselib::PLTT_SecureTraceType<wiselib::iSenseOsModel, wiselib::iSenseExtendedTxRadioModel<wiselib::iSenseOsModel>, unsigned char, unsigned char, unsigned char, wiselib::NodeType<wiselib::iSenseOsModel, wiselib::iSenseExtendedTxRadioModel<wiselib::iSenseOsModel>, unsigned short, wiselib::Position2DType<wiselib::iSenseOsModel, wiselib::iSenseExtendedTxRadioModel<wiselib::iSenseOsModel>, unsigned short, wiselib::iSenseDebug<wiselib::iSenseOsModel> >, wiselib::iSenseDebug<wiselib::iSenseOsModel> >, unsigned short, wiselib::iSenseDebug<wiselib::iSenseOsModel> >, wiselib::vector_static<wiselib::iSenseOsModel, wiselib::PLTT_SecureTraceType<wiselib::iSenseOsModel, wiselib::iSenseExtendedTxRadioModel<wiselib::iSenseOsModel>, unsigned char, unsigned char, unsigned char, wiselib::NodeType<wiselib::iSenseOsModel, wiselib::iSenseExtendedTxRadioModel<wiselib::iSenseOsModel>, unsigned short, wiselib::Position2DType<wiselib::iSenseOsModel, wiselib::iSenseExtendedTxRadioModel<wiselib::iSenseOsModel>, unsigned short, wiselib::iSenseDebug<wiselib::iSenseOsModel> >, wiselib::iSenseDebug<wiselib::iSenseOsModel> >, unsigned short, wiselib::iSenseDebug<wiselib::iSenseOsModel> >, 25>, wiselib::PLTT_AgentType<wiselib::iSenseOsModel, wiselib::iSenseExtendedTxRadioModel<wiselib::iSenseOsModel>, unsigned short, unsigned char, wiselib::iSenseDebug<wiselib::iSenseOsModel> >, wiselib::NeighborDiscovery_Type<wiselib::iSenseOsModel, wiselib::iSenseExtendedTxRadioModel<wiselib::iSenseOsModel>, wiselib::iSenseClockModel<wiselib::iSenseOsModel, isense::Time>, wiselib::iSenseTimerModel<wiselib::iSenseOsModel>, wiselib::iSenseRandModel<wiselib::iSenseOsModel>, wiselib::iSenseDebug<wiselib::iSenseOsModel> >, wiselib::iSenseTimerModel<wiselib::iSenseOsModel>, wiselib::iSenseExtendedTxRadioModel<wiselib::iSenseOsModel>, wiselib::ReliableRadio_Type<wiselib::iSenseOsModel, wiselib::iSenseExtendedTxRadioModel<wiselib::iSenseOsModel>, wiselib::iSenseClockModel<wiselib::iSenseOsModel, isense::Time>, wiselib::iSenseTimerModel<wiselib::iSenseOsModel>, wiselib::iSenseRandModel<wiselib::iSenseOsModel>, wiselib::iSenseDebug<wiselib::iSenseOsModel> >, wiselib::iSenseRandModel<wiselib::iSenseOsModel>, wiselib::iSenseClockModel<wiselib::iSenseOsModel, isense::Time>, wiselib::iSenseDebug<wiselib::iSenseOsModel> >::sync_neighbors(unsigned char, unsigned short, unsigned char, unsigned char*))>(unsigned char, wiselib::ProtocolSettings_Type<wiselib::iSenseOsModel, wiselib::iSenseExtendedTxRadioModel<wiselib::iSenseOsModel>, wiselib::iSenseTimerModel<wiselib::iSenseOsModel>, wiselib::iSenseDebug<wiselib::iSenseOsModel> >, wiselib::PLTT_PassiveType<wiselib::iSenseOsModel, wiselib::NodeType<wiselib::iSenseOsModel, wiselib::iSenseExtendedTxRadioModel<wiselib::iSenseOsModel>, unsigned short, wiselib::Position2DType<wiselib::iSenseOsModel, wiselib::iSenseExtendedTxRadioModel<wiselib::iSenseOsModel>, unsigned short, wiselib::iSenseDebug<wiselib::iSenseOsModel> >, wiselib::iSenseDebug<wiselib::iSenseOsModel> >, wiselib::PLTT_NodeType<wiselib::iSenseOsModel, wiselib::iSenseExtendedTxRadioModel<wiselib::iSenseOsModel>, wiselib::NodeType<wiselib::iSenseOsModel, wiselib::iSenseExtendedTxRadioModel<wiselib::iSenseOsModel>, unsigned short, wiselib::Position2DType<wiselib::iSenseOsModel, wiselib::iSenseExtendedTxRadioModel<wiselib::iSenseOsModel>, unsigned short, wiselib::iSenseDebug<wiselib::iSenseOsModel> >, wiselib::iSenseDebug<wiselib::iSenseOsModel> >, wiselib::PLTT_NodeTargetType<wiselib::iSenseOsModel, wiselib::iSenseExtendedTxRadioModel<wiselib::iSenseOsModel>, unsigned short, unsigned char, wiselib::iSenseDebug<wiselib::iSenseOsModel> >, wiselib::vector_static<wiselib::iSenseOsModel, wiselib::PLTT_NodeTargetType<wiselib::iSenseOsModel, wiselib::iSenseExtendedTxRadioModel<wiselib::iSenseOsModel>, unsigned short, unsigned char, wiselib::iSenseDebug<wiselib::iSenseOsModel> >, 5>, wiselib::vector_static<wiselib::iSenseOsModel, wiselib::PLTT_TraceType<wiselib::iSenseOsModel, wiselib::iSenseExtendedTxRadioModel<wiselib::iSenseOsModel>, unsigned char, unsigned char, unsigned char, wiselib::NodeType<wiselib::iSenseOsModel, wiselib::iSenseExtendedTxRadioModel<wiselib::iSenseOsModel>, unsigned short, wiselib::Position2DType<wiselib::iSenseOsModel, wiselib::iSenseExtendedTxRadioModel<wiselib::iSenseOsModel>, unsigned short, wiselib::iSenseDebug<wiselib::iSenseOsModel> >, wiselib::iSenseDebug<wiselib::iSenseOsModel> >, unsigned short, wiselib::iSenseDebug<wiselib::iSenseOsModel> >, 5>, wiselib::iSenseDebug<wiselib::iSenseOsModel> >, wiselib::vector_static<wiselib::iSenseOsModel, wiselib::PLTT_NodeType<wiselib::iSenseOsModel, wiselib::iSenseExtendedTxRadioModel<wiselib::iSenseOsModel>, wiselib::NodeType<wiselib::iSenseOsModel, wiselib::iSenseExtendedTxRadioModel<wiselib::iSenseOsModel>, unsigned short, wiselib::Position2DType<wiselib::iSenseOsModel, wiselib::iSenseExtendedTxRadioModel<wiselib::iSenseOsModel>, unsigned short, wiselib::iSenseDebug<wiselib::iSenseOsModel> >, wiselib::iSenseDebug<wiselib::iSenseOsModel> >, wiselib::PLTT_NodeTargetType<wiselib::iSenseOsModel, wiselib::iSenseExtendedTxRadioModel<wiselib::iSenseOsModel>, unsigned short, unsigned char, wiselib::iSenseDebug<wiselib::iSenseOsModel> >, wiselib::vector_static<wiselib::iSenseOsModel, wiselib::PLTT_NodeTargetType<wiselib::iSenseOsModel, wiselib::iSenseExtendedTxRadioModel<wiselib::iSenseOsModel>, unsigned short, unsigned char, wiselib::iSenseDebug<wiselib::iSenseOsModel> >, 5>, wiselib::vector_static<wiselib::iSenseOsModel, wiselib::PLTT_TraceType<wiselib::iSenseOsModel, wiselib::iSenseExtendedTxRadioModel<wiselib::iSenseOsModel>, unsigned char, unsigned char, unsigned char, wiselib::NodeType<wiselib::iSenseOsModel, wiselib::iSenseExtendedTxRadioModel<wiselib::iSenseOsModel>, unsigned short, wiselib::Position2DType<wiselib::iSenseOsModel, wiselib::iSenseExtendedTxRadioModel<wiselib::iSenseOsModel>, unsigned short, wiselib::iSenseDebug<wiselib::iSenseOsModel> >, wiselib::iSenseDebug<wiselib::iSenseOsModel> >, unsigned short, wiselib::iSenseDebug<wiselib::iSenseOsModel> >, 5>, wiselib::iSenseDebug<wiselib::iSenseOsModel> >, 25>, wiselib::PLTT_TraceType<wiselib::iSenseOsModel, wiselib::iSenseExtendedTxRadioModel<wiselib::iSenseOsModel>, unsigned char, unsigned char, unsigned char, wiselib::NodeType<wiselib::iSenseOsModel, wiselib::iSenseExtendedTxRadioModel<wiselib::iSenseOsModel>, unsigned short, wiselib::Position2DType<wiselib::iSenseOsModel, wiselib::iSenseExtendedTxRadioModel<wiselib::iSenseOsModel>, unsigned short, wiselib::iSenseDebug<wiselib::iSenseOsModel> >, wiselib::iSenseDebug<wiselib::iSenseOsModel> >, unsigned short, wiselib::iSenseDebug<wiselib::iSenseOsModel> >, wiselib::vector_static<wiselib::iSenseOsModel, wiselib::PLTT_TraceType<wiselib::iSenseOsModel, wiselib::iSenseExtendedTxRadioModel<wiselib::iSenseOsModel>, unsigned char, unsigned char, unsigned char, wiselib::NodeType<wiselib::iSenseOsModel, wiselib::iSenseExtendedTxRadioModel<wiselib::iSenseOsModel>, unsigned short, wiselib::Position2DType<wiselib::iSenseOsModel, wiselib::iSenseExtendedTxRadioModel<wiselib::iSenseOsModel>, unsigned short, wiselib::iSenseDebug<wiselib::iSenseOsModel> >, wiselib::iSenseDebug<wiselib::iSenseOsModel> >, unsigned short, wiselib::iSenseDebug<wiselib::iSenseOsModel> >, 5>, wiselib::PLTT_SecureTraceType<wiselib::iSenseOsModel, wiselib::iSenseExtendedTxRadioModel<wiselib::iSenseOsModel>, unsigned char, unsigned char, unsigned char, wiselib::NodeType<wiselib::iSenseOsModel, wiselib::iSenseExtendedTxRadioModel<wiselib::iSenseOsModel>, unsigned short, wiselib::Position2DType<wiselib::iSenseOsModel, wiselib::iSenseExtendedTxRadioModel<wiselib::iSenseOsModel>, unsigned short, wiselib::iSenseDebug<wiselib::iSenseOsModel> >, wiselib::iSenseDebug<wiselib::iSenseOsModel> >, unsigned short, wiselib::iSenseDebug<wiselib::iSenseOsModel> >, wiselib::vector_static<wiselib::iSenseOsModel, wiselib::PLTT_SecureTraceType<wiselib::iSenseOsModel, wiselib::iSenseExtendedTxRadioModel<wiselib::iSenseOsModel>, unsigned char, unsigned char, unsigned char, wiselib::NodeType<wiselib::iSenseOsModel, wiselib::iSenseExtendedTxRadioModel<wiselib::iSenseOsModel>, unsigned short, wiselib::Position2DType<wiselib::iSenseOsModel, wiselib::iSenseExtendedTxRadioModel<wiselib::iSenseOsModel>, unsigned short, wiselib::iSenseDebug<wiselib::iSenseOsModel> >, wiselib::iSenseDebug<wiselib::iSenseOsModel> >, unsigned short, wiselib::iSenseDebug<wiselib::iSenseOsModel> >, 25>, wiselib::PLTT_AgentType<wiselib::iSenseOsModel, wiselib::iSenseExtendedTxRadioModel<wiselib::iSenseOsModel>, unsigned short, unsigned char, wiselib::iSenseDebug<wiselib::iSenseOsModel> >, wiselib::NeighborDiscovery_Type<wiselib::iSenseOsModel, wiselib::iSenseExtendedTxRadioModel<wiselib::iSenseOsModel>, wiselib::iSenseClockModel<wiselib::iSenseOsModel, isense::Time>, wiselib::iSenseTimerModel<wiselib::iSenseOsModel>, wiselib::iSenseRandModel<wiselib::iSenseOsModel>, wiselib::iSenseDebug<wiselib::iSenseOsModel> >, wiselib::iSenseTimerModel<wiselib::iSenseOsModel>, wiselib::iSenseExtendedTxRadioModel<wiselib::iSenseOsModel>, wiselib::ReliableRadio_Type<wiselib::iSenseOsModel, wiselib::iSenseExtendedTxRadioModel<wiselib::iSenseOsModel>, wiselib::iSenseClockModel<wiselib::iSenseOsModel, isense::Time>, wiselib::iSenseTimerModel<wiselib::iSenseOsModel>, wiselib::iSenseRandModel<wiselib::iSenseOsModel>, wiselib::iSenseDebug<wiselib::iSenseOsModel> >, wiselib::iSenseRandModel<wiselib::iSenseOsModel>, wiselib::iSenseClockModel<wiselib::iSenseOsModel, isense::Time>, wiselib::iSenseDebug<wiselib::iSenseOsModel> >*)
 .text._ZN7wiselib25ReliableRadioMessage_TypeINS_13iSenseOsModelENS_26iSenseExtendedTxRadioModelIS1_EENS_11iSenseDebugIS1_EEEaSERKS6_
                0x04004110       0x50 out/isense/PLTT_passive_app.o
                0x04004110                wiselib::ReliableRadioMessage_Type<wiselib::iSenseOsModel, wiselib::iSenseExtendedTxRadioModel<wiselib::iSenseOsModel>, wiselib::iSenseDebug<wiselib::iSenseOsModel> >::operator=(wiselib::ReliableRadioMessage_Type<wiselib::iSenseOsModel, wiselib::iSenseExtendedTxRadioModel<wiselib::iSenseOsModel>, wiselib::iSenseDebug<wiselib::iSenseOsModel> > const&)
 .text._ZN7wiselib13vector_staticINS_13iSenseOsModelENS_25ReliableRadioMessage_TypeIS1_NS_26iSenseExtendedTxRadioModelIS1_EENS_11iSenseDebugIS1_EEEELi20EE9push_backERKS7_
                0x04004160       0x48 out/isense/PLTT_passive_app.o
                0x04004160                wiselib::vector_static<wiselib::iSenseOsModel, wiselib::ReliableRadioMessage_Type<wiselib::iSenseOsModel, wiselib::iSenseExtendedTxRadioModel<wiselib::iSenseOsModel>, wiselib::iSenseDebug<wiselib::iSenseOsModel> >, 20>::push_back(wiselib::ReliableRadioMessage_Type<wiselib::iSenseOsModel, wiselib::iSenseExtendedTxRadioModel<wiselib::iSenseOsModel>, wiselib::iSenseDebug<wiselib::iSenseOsModel> > const&)
 .text._ZN7wiselib18ReliableRadio_TypeINS_13iSenseOsModelENS_26iSenseExtendedTxRadioModelIS1_EENS_16iSenseClockModelIS1_N6isense4TimeEEENS_16iSenseTimerModelIS1_EENS_15iSenseRandModelIS1_EENS_11iSenseDebugIS1_EEE29insert_reliable_radio_messageENS_25ReliableRadioMessage_TypeIS1_S3_SD_EE
                0x040041a8       0x80 out/isense/PLTT_passive_app.o
                0x040041a8                wiselib::ReliableRadio_Type<wiselib::iSenseOsModel, wiselib::iSenseExtendedTxRadioModel<wiselib::iSenseOsModel>, wiselib::iSenseClockModel<wiselib::iSenseOsModel, isense::Time>, wiselib::iSenseTimerModel<wiselib::iSenseOsModel>, wiselib::iSenseRandModel<wiselib::iSenseOsModel>, wiselib::iSenseDebug<wiselib::iSenseOsModel> >::insert_reliable_radio_message(wiselib::ReliableRadioMessage_Type<wiselib::iSenseOsModel, wiselib::iSenseExtendedTxRadioModel<wiselib::iSenseOsModel>, wiselib::iSenseDebug<wiselib::iSenseOsModel> >)
 .text._ZN7wiselib18ReliableRadio_TypeINS_13iSenseOsModelENS_26iSenseExtendedTxRadioModelIS1_EENS_16iSenseClockModelIS1_N6isense4TimeEEENS_16iSenseTimerModelIS1_EENS_15iSenseRandModelIS1_EENS_11iSenseDebugIS1_EEE27insert_reliable_radio_replyENS_25ReliableRadioMessage_TypeIS1_S3_SD_EE
                0x04004228       0x84 out/isense/PLTT_passive_app.o
                0x04004228                wiselib::ReliableRadio_Type<wiselib::iSenseOsModel, wiselib::iSenseExtendedTxRadioModel<wiselib::iSenseOsModel>, wiselib::iSenseClockModel<wiselib::iSenseOsModel, isense::Time>, wiselib::iSenseTimerModel<wiselib::iSenseOsModel>, wiselib::iSenseRandModel<wiselib::iSenseOsModel>, wiselib::iSenseDebug<wiselib::iSenseOsModel> >::insert_reliable_radio_reply(wiselib::ReliableRadioMessage_Type<wiselib::iSenseOsModel, wiselib::iSenseExtendedTxRadioModel<wiselib::iSenseOsModel>, wiselib::iSenseDebug<wiselib::iSenseOsModel> >)
 .text._ZN7wiselib12Message_TypeINS_13iSenseOsModelENS_26iSenseExtendedTxRadioModelIS1_EENS_11iSenseDebugIS1_EEE11set_payloadEhPh
                0x040042ac       0x18 out/isense/PLTT_passive_app.o
                0x040042ac                wiselib::Message_Type<wiselib::iSenseOsModel, wiselib::iSenseExtendedTxRadioModel<wiselib::iSenseOsModel>, wiselib::iSenseDebug<wiselib::iSenseOsModel> >::set_payload(unsigned char, unsigned char*)
 .text._ZN7wiselib12Message_TypeINS_13iSenseOsModelENS_26iSenseExtendedTxRadioModelIS1_EENS_11iSenseDebugIS1_EEEC1Ev
                0x040042c4       0x10 out/isense/PLTT_passive_app.o
                0x040042c4                wiselib::Message_Type<wiselib::iSenseOsModel, wiselib::iSenseExtendedTxRadioModel<wiselib::iSenseOsModel>, wiselib::iSenseDebug<wiselib::iSenseOsModel> >::Message_Type()
 .text._ZN7wiselib25ReliableRadioMessage_TypeINS_13iSenseOsModelENS_26iSenseExtendedTxRadioModelIS1_EENS_11iSenseDebugIS1_EEE9serializeEPhm
                0x040042d4       0x74 out/isense/PLTT_passive_app.o
                0x040042d4                wiselib::ReliableRadioMessage_Type<wiselib::iSenseOsModel, wiselib::iSenseExtendedTxRadioModel<wiselib::iSenseOsModel>, wiselib::iSenseDebug<wiselib::iSenseOsModel> >::serialize(unsigned char*, unsigned long)
 .text._ZN7wiselib25ReliableRadioMessage_TypeINS_13iSenseOsModelENS_26iSenseExtendedTxRadioModelIS1_EENS_11iSenseDebugIS1_EEE11set_payloadEmPh
                0x04004348       0x18 out/isense/PLTT_passive_app.o
                0x04004348                wiselib::ReliableRadioMessage_Type<wiselib::iSenseOsModel, wiselib::iSenseExtendedTxRadioModel<wiselib::iSenseOsModel>, wiselib::iSenseDebug<wiselib::iSenseOsModel> >::set_payload(unsigned long, unsigned char*)
 .text._ZN7wiselib25ReliableRadioMessage_TypeINS_13iSenseOsModelENS_26iSenseExtendedTxRadioModelIS1_EENS_11iSenseDebugIS1_EEE12de_serializeEPhm
                0x04004360       0x68 out/isense/PLTT_passive_app.o
                0x04004360                wiselib::ReliableRadioMessage_Type<wiselib::iSenseOsModel, wiselib::iSenseExtendedTxRadioModel<wiselib::iSenseOsModel>, wiselib::iSenseDebug<wiselib::iSenseOsModel> >::de_serialize(unsigned char*, unsigned long)
 .text._ZN7wiselib13vector_staticINS_13iSenseOsModelENS_19PLTT_NodeTargetTypeIS1_NS_26iSenseExtendedTxRadioModelIS1_EEthNS_11iSenseDebugIS1_EEEELi5EEaSERKS8_
                0x040043c8       0x58 out/isense/PLTT_passive_app.o
                0x040043c8                wiselib::vector_static<wiselib::iSenseOsModel, wiselib::PLTT_NodeTargetType<wiselib::iSenseOsModel, wiselib::iSenseExtendedTxRadioModel<wiselib::iSenseOsModel>, unsigned short, unsigned char, wiselib::iSenseDebug<wiselib::iSenseOsModel> >, 5>::operator=(wiselib::vector_static<wiselib::iSenseOsModel, wiselib::PLTT_NodeTargetType<wiselib::iSenseOsModel, wiselib::iSenseExtendedTxRadioModel<wiselib::iSenseOsModel>, unsigned short, unsigned char, wiselib::iSenseDebug<wiselib::iSenseOsModel> >, 5> const&)
 .text._ZN7wiselib13PLTT_NodeTypeINS_13iSenseOsModelENS_26iSenseExtendedTxRadioModelIS1_EENS_8NodeTypeIS1_S3_tNS_14Position2DTypeIS1_S3_tNS_11iSenseDebugIS1_EEEES7_EENS_19PLTT_NodeTargetTypeIS1_S3_thS7_EENS_13vector_staticIS1_SB_Li5EEENSC_IS1_NS_14PLTT_TraceTypeIS1_S3_hhhS9_tS7_EELi5EEES7_EaSERKSH_
                0x04004420       0x48 out/isense/PLTT_passive_app.o
                0x04004420                wiselib::PLTT_NodeType<wiselib::iSenseOsModel, wiselib::iSenseExtendedTxRadioModel<wiselib::iSenseOsModel>, wiselib::NodeType<wiselib::iSenseOsModel, wiselib::iSenseExtendedTxRadioModel<wiselib::iSenseOsModel>, unsigned short, wiselib::Position2DType<wiselib::iSenseOsModel, wiselib::iSenseExtendedTxRadioModel<wiselib::iSenseOsModel>, unsigned short, wiselib::iSenseDebug<wiselib::iSenseOsModel> >, wiselib::iSenseDebug<wiselib::iSenseOsModel> >, wiselib::PLTT_NodeTargetType<wiselib::iSenseOsModel, wiselib::iSenseExtendedTxRadioModel<wiselib::iSenseOsModel>, unsigned short, unsigned char, wiselib::iSenseDebug<wiselib::iSenseOsModel> >, wiselib::vector_static<wiselib::iSenseOsModel, wiselib::PLTT_NodeTargetType<wiselib::iSenseOsModel, wiselib::iSenseExtendedTxRadioModel<wiselib::iSenseOsModel>, unsigned short, unsigned char, wiselib::iSenseDebug<wiselib::iSenseOsModel> >, 5>, wiselib::vector_static<wiselib::iSenseOsModel, wiselib::PLTT_TraceType<wiselib::iSenseOsModel, wiselib::iSenseExtendedTxRadioModel<wiselib::iSenseOsModel>, unsigned char, unsigned char, unsigned char, wiselib::NodeType<wiselib::iSenseOsModel, wiselib::iSenseExtendedTxRadioModel<wiselib::iSenseOsModel>, unsigned short, wiselib::Position2DType<wiselib::iSenseOsModel, wiselib::iSenseExtendedTxRadioModel<wiselib::iSenseOsModel>, unsigned short, wiselib::iSenseDebug<wiselib::iSenseOsModel> >, wiselib::iSenseDebug<wiselib::iSenseOsModel> >, unsigned short, wiselib::iSenseDebug<wiselib::iSenseOsModel> >, 5>, wiselib::iSenseDebug<wiselib::iSenseOsModel> >::operator=(wiselib::PLTT_NodeType<wiselib::iSenseOsModel, wiselib::iSenseExtendedTxRadioModel<wiselib::iSenseOsModel>, wiselib::NodeType<wiselib::iSenseOsModel, wiselib::iSenseExtendedTxRadioModel<wiselib::iSenseOsModel>, unsigned short, wiselib::Position2DType<wiselib::iSenseOsModel, wiselib::iSenseExtendedTxRadioModel<wiselib::iSenseOsModel>, unsigned short, wiselib::iSenseDebug<wiselib::iSenseOsModel> >, wiselib::iSenseDebug<wiselib::iSenseOsModel> >, wiselib::PLTT_NodeTargetType<wiselib::iSenseOsModel, wiselib::iSenseExtendedTxRadioModel<wiselib::iSenseOsModel>, unsigned short, unsigned char, wiselib::iSenseDebug<wiselib::iSenseOsModel> >, wiselib::vector_static<wiselib::iSenseOsModel, wiselib::PLTT_NodeTargetType<wiselib::iSenseOsModel, wiselib::iSenseExtendedTxRadioModel<wiselib::iSenseOsModel>, unsigned short, unsigned char, wiselib::iSenseDebug<wiselib::iSenseOsModel> >, 5>, wiselib::vector_static<wiselib::iSenseOsModel, wiselib::PLTT_TraceType<wiselib::iSenseOsModel, wiselib::iSenseExtendedTxRadioModel<wiselib::iSenseOsModel>, unsigned char, unsigned char, unsigned char, wiselib::NodeType<wiselib::iSenseOsModel, wiselib::iSenseExtendedTxRadioModel<wiselib::iSenseOsModel>, unsigned short, wiselib::Position2DType<wiselib::iSenseOsModel, wiselib::iSenseExtendedTxRadioModel<wiselib::iSenseOsModel>, unsigned short, wiselib::iSenseDebug<wiselib::iSenseOsModel> >, wiselib::iSenseDebug<wiselib::iSenseOsModel> >, unsigned short, wiselib::iSenseDebug<wiselib::iSenseOsModel> >, 5>, wiselib::iSenseDebug<wiselib::iSenseOsModel> > const&)
 .text._ZN7wiselib13vector_staticINS_13iSenseOsModelENS_13PLTT_NodeTypeIS1_NS_26iSenseExtendedTxRadioModelIS1_EENS_8NodeTypeIS1_S4_tNS_14Position2DTypeIS1_S4_tNS_11iSenseDebugIS1_EEEES8_EENS_19PLTT_NodeTargetTypeIS1_S4_thS8_EENS0_IS1_SC_Li5EEENS0_IS1_NS_14PLTT_TraceTypeIS1_S4_hhhSA_tS8_EELi5EEES8_EELi25EE5eraseENS_15normal_iteratorIS1_PSH_SI_EE
                0x04004468       0x80 out/isense/PLTT_passive_app.o
                0x04004468                wiselib::vector_static<wiselib::iSenseOsModel, wiselib::PLTT_NodeType<wiselib::iSenseOsModel, wiselib::iSenseExtendedTxRadioModel<wiselib::iSenseOsModel>, wiselib::NodeType<wiselib::iSenseOsModel, wiselib::iSenseExtendedTxRadioModel<wiselib::iSenseOsModel>, unsigned short, wiselib::Position2DType<wiselib::iSenseOsModel, wiselib::iSenseExtendedTxRadioModel<wiselib::iSenseOsModel>, unsigned short, wiselib::iSenseDebug<wiselib::iSenseOsModel> >, wiselib::iSenseDebug<wiselib::iSenseOsModel> >, wiselib::PLTT_NodeTargetType<wiselib::iSenseOsModel, wiselib::iSenseExtendedTxRadioModel<wiselib::iSenseOsModel>, unsigned short, unsigned char, wiselib::iSenseDebug<wiselib::iSenseOsModel> >, wiselib::vector_static<wiselib::iSenseOsModel, wiselib::PLTT_NodeTargetType<wiselib::iSenseOsModel, wiselib::iSenseExtendedTxRadioModel<wiselib::iSenseOsModel>, unsigned short, unsigned char, wiselib::iSenseDebug<wiselib::iSenseOsModel> >, 5>, wiselib::vector_static<wiselib::iSenseOsModel, wiselib::PLTT_TraceType<wiselib::iSenseOsModel, wiselib::iSenseExtendedTxRadioModel<wiselib::iSenseOsModel>, unsigned char, unsigned char, unsigned char, wiselib::NodeType<wiselib::iSenseOsModel, wiselib::iSenseExtendedTxRadioModel<wiselib::iSenseOsModel>, unsigned short, wiselib::Position2DType<wiselib::iSenseOsModel, wiselib::iSenseExtendedTxRadioModel<wiselib::iSenseOsModel>, unsigned short, wiselib::iSenseDebug<wiselib::iSenseOsModel> >, wiselib::iSenseDebug<wiselib::iSenseOsModel> >, unsigned short, wiselib::iSenseDebug<wiselib::iSenseOsModel> >, 5>, wiselib::iSenseDebug<wiselib::iSenseOsModel> >, 25>::erase(wiselib::normal_iterator<wiselib::iSenseOsModel, wiselib::PLTT_NodeType<wiselib::iSenseOsModel, wiselib::iSenseExtendedTxRadioModel<wiselib::iSenseOsModel>, wiselib::NodeType<wiselib::iSenseOsModel, wiselib::iSenseExtendedTxRadioModel<wiselib::iSenseOsModel>, unsigned short, wiselib::Position2DType<wiselib::iSenseOsModel, wiselib::iSenseExtendedTxRadioModel<wiselib::iSenseOsModel>, unsigned short, wiselib::iSenseDebug<wiselib::iSenseOsModel> >, wiselib::iSenseDebug<wiselib::iSenseOsModel> >, wiselib::PLTT_NodeTargetType<wiselib::iSenseOsModel, wiselib::iSenseExtendedTxRadioModel<wiselib::iSenseOsModel>, unsigned short, unsigned char, wiselib::iSenseDebug<wiselib::iSenseOsModel> >, wiselib::vector_static<wiselib::iSenseOsModel, wiselib::PLTT_NodeTargetType<wiselib::iSenseOsModel, wiselib::iSenseExtendedTxRadioModel<wiselib::iSenseOsModel>, unsigned short, unsigned char, wiselib::iSenseDebug<wiselib::iSenseOsModel> >, 5>, wiselib::vector_static<wiselib::iSenseOsModel, wiselib::PLTT_TraceType<wiselib::iSenseOsModel, wiselib::iSenseExtendedTxRadioModel<wiselib::iSenseOsModel>, unsigned char, unsigned char, unsigned char, wiselib::NodeType<wiselib::iSenseOsModel, wiselib::iSenseExtendedTxRadioModel<wiselib::iSenseOsModel>, unsigned short, wiselib::Position2DType<wiselib::iSenseOsModel, wiselib::iSenseExtendedTxRadioModel<wiselib::iSenseOsModel>, unsigned short, wiselib::iSenseDebug<wiselib::iSenseOsModel> >, wiselib::iSenseDebug<wiselib::iSenseOsModel> >, unsigned short, wiselib::iSenseDebug<wiselib::iSenseOsModel> >, 5>, wiselib::iSenseDebug<wiselib::iSenseOsModel> >*, wiselib::vector_static<wiselib::iSenseOsModel, wiselib::PLTT_NodeType<wiselib::iSenseOsModel, wiselib::iSenseExtendedTxRadioModel<wiselib::iSenseOsModel>, wiselib::NodeType<wiselib::iSenseOsModel, wiselib::iSenseExtendedTxRadioModel<wiselib::iSenseOsModel>, unsigned short, wiselib::Position2DType<wiselib::iSenseOsModel, wiselib::iSenseExtendedTxRadioModel<wiselib::iSenseOsModel>, unsigned short, wiselib::iSenseDebug<wiselib::iSenseOsModel> >, wiselib::iSenseDebug<wiselib::iSenseOsModel> >, wiselib::PLTT_NodeTargetType<wiselib::iSenseOsModel, wiselib::iSenseExtendedTxRadioModel<wiselib::iSenseOsModel>, unsigned short, unsigned char, wiselib::iSenseDebug<wiselib::iSenseOsModel> >, wiselib::vector_static<wiselib::iSenseOsModel, wiselib::PLTT_NodeTargetType<wiselib::iSenseOsModel, wiselib::iSenseExtendedTxRadioModel<wiselib::iSenseOsModel>, unsigned short, unsigned char, wiselib::iSenseDebug<wiselib::iSenseOsModel> >, 5>, wiselib::vector_static<wiselib::iSenseOsModel, wiselib::PLTT_TraceType<wiselib::iSenseOsModel, wiselib::iSenseExtendedTxRadioModel<wiselib::iSenseOsModel>, unsigned char, unsigned char, unsigned char, wiselib::NodeType<wiselib::iSenseOsModel, wiselib::iSenseExtendedTxRadioModel<wiselib::iSenseOsModel>, unsigned short, wiselib::Position2DType<wiselib::iSenseOsModel, wiselib::iSenseExtendedTxRadioModel<wiselib::iSenseOsModel>, unsigned short, wiselib::iSenseDebug<wiselib::iSenseOsModel> >, wiselib::iSenseDebug<wiselib::iSenseOsModel> >, unsigned short, wiselib::iSenseDebug<wiselib::iSenseOsModel> >, 5>, wiselib::iSenseDebug<wiselib::iSenseOsModel> >, 25> >)
 .text._ZN7wiselib13vector_staticINS_13iSenseOsModelENS_13PLTT_NodeTypeIS1_NS_26iSenseExtendedTxRadioModelIS1_EENS_8NodeTypeIS1_S4_tNS_14Position2DTypeIS1_S4_tNS_11iSenseDebugIS1_EEEES8_EENS_19PLTT_NodeTargetTypeIS1_S4_thS8_EENS0_IS1_SC_Li5EEENS0_IS1_NS_14PLTT_TraceTypeIS1_S4_hhhSA_tS8_EELi5EEES8_EELi25EE9push_backERKSH_
                0x040044e8       0x48 out/isense/PLTT_passive_app.o
                0x040044e8                wiselib::vector_static<wiselib::iSenseOsModel, wiselib::PLTT_NodeType<wiselib::iSenseOsModel, wiselib::iSenseExtendedTxRadioModel<wiselib::iSenseOsModel>, wiselib::NodeType<wiselib::iSenseOsModel, wiselib::iSenseExtendedTxRadioModel<wiselib::iSenseOsModel>, unsigned short, wiselib::Position2DType<wiselib::iSenseOsModel, wiselib::iSenseExtendedTxRadioModel<wiselib::iSenseOsModel>, unsigned short, wiselib::iSenseDebug<wiselib::iSenseOsModel> >, wiselib::iSenseDebug<wiselib::iSenseOsModel> >, wiselib::PLTT_NodeTargetType<wiselib::iSenseOsModel, wiselib::iSenseExtendedTxRadioModel<wiselib::iSenseOsModel>, unsigned short, unsigned char, wiselib::iSenseDebug<wiselib::iSenseOsModel> >, wiselib::vector_static<wiselib::iSenseOsModel, wiselib::PLTT_NodeTargetType<wiselib::iSenseOsModel, wiselib::iSenseExtendedTxRadioModel<wiselib::iSenseOsModel>, unsigned short, unsigned char, wiselib::iSenseDebug<wiselib::iSenseOsModel> >, 5>, wiselib::vector_static<wiselib::iSenseOsModel, wiselib::PLTT_TraceType<wiselib::iSenseOsModel, wiselib::iSenseExtendedTxRadioModel<wiselib::iSenseOsModel>, unsigned char, unsigned char, unsigned char, wiselib::NodeType<wiselib::iSenseOsModel, wiselib::iSenseExtendedTxRadioModel<wiselib::iSenseOsModel>, unsigned short, wiselib::Position2DType<wiselib::iSenseOsModel, wiselib::iSenseExtendedTxRadioModel<wiselib::iSenseOsModel>, unsigned short, wiselib::iSenseDebug<wiselib::iSenseOsModel> >, wiselib::iSenseDebug<wiselib::iSenseOsModel> >, unsigned short, wiselib::iSenseDebug<wiselib::iSenseOsModel> >, 5>, wiselib::iSenseDebug<wiselib::iSenseOsModel> >, 25>::push_back(wiselib::PLTT_NodeType<wiselib::iSenseOsModel, wiselib::iSenseExtendedTxRadioModel<wiselib::iSenseOsModel>, wiselib::NodeType<wiselib::iSenseOsModel, wiselib::iSenseExtendedTxRadioModel<wiselib::iSenseOsModel>, unsigned short, wiselib::Position2DType<wiselib::iSenseOsModel, wiselib::iSenseExtendedTxRadioModel<wiselib::iSenseOsModel>, unsigned short, wiselib::iSenseDebug<wiselib::iSenseOsModel> >, wiselib::iSenseDebug<wiselib::iSenseOsModel> >, wiselib::PLTT_NodeTargetType<wiselib::iSenseOsModel, wiselib::iSenseExtendedTxRadioModel<wiselib::iSenseOsModel>, unsigned short, unsigned char, wiselib::iSenseDebug<wiselib::iSenseOsModel> >, wiselib::vector_static<wiselib::iSenseOsModel, wiselib::PLTT_NodeTargetType<wiselib::iSenseOsModel, wiselib::iSenseExtendedTxRadioModel<wiselib::iSenseOsModel>, unsigned short, unsigned char, wiselib::iSenseDebug<wiselib::iSenseOsModel> >, 5>, wiselib::vector_static<wiselib::iSenseOsModel, wiselib::PLTT_TraceType<wiselib::iSenseOsModel, wiselib::iSenseExtendedTxRadioModel<wiselib::iSenseOsModel>, unsigned char, unsigned char, unsigned char, wiselib::NodeType<wiselib::iSenseOsModel, wiselib::iSenseExtendedTxRadioModel<wiselib::iSenseOsModel>, unsigned short, wiselib::Position2DType<wiselib::iSenseOsModel, wiselib::iSenseExtendedTxRadioModel<wiselib::iSenseOsModel>, unsigned short, wiselib::iSenseDebug<wiselib::iSenseOsModel> >, wiselib::iSenseDebug<wiselib::iSenseOsModel> >, unsigned short, wiselib::iSenseDebug<wiselib::iSenseOsModel> >, 5>, wiselib::iSenseDebug<wiselib::iSenseOsModel> > const&)
 .text._ZN7wiselib16iSenseTimerModelINS_13iSenseOsModelEE9set_timerINS_16PLTT_PassiveTypeIS1_NS_8NodeTypeIS1_NS_26iSenseExtendedTxRadioModelIS1_EEtNS_14Position2DTypeIS1_S7_tNS_11iSenseDebugIS1_EEEESA_EENS_13PLTT_NodeTypeIS1_S7_SC_NS_19PLTT_NodeTargetTypeIS1_S7_thSA_EENS_13vector_staticIS1_SF_Li5EEENSG_IS1_NS_14PLTT_TraceTypeIS1_S7_hhhSC_tSA_EELi5EEESA_EENSG_IS1_SL_Li25EEESJ_SK_NS_20PLTT_SecureTraceTypeIS1_S7_hhhSC_tSA_EENSG_IS1_SO_Li25EEENS_14PLTT_AgentTypeIS1_S7_thSA_EENS_22NeighborDiscovery_TypeIS1_S7_NS_16iSenseClockModelIS1_N6isense4TimeEEES2_NS_15iSenseRandModelIS1_EESA_EES2_S7_NS_18ReliableRadio_TypeIS1_S7_SW_S2_SY_SA_EESY_SW_SA_EEXadL_ZNS12_23send_decryption_requestEPvEEEEimPT_S13_
                0x04004530      0x10c out/isense/PLTT_passive_app.o
                0x04004530                int wiselib::iSenseTimerModel<wiselib::iSenseOsModel>::set_timer<wiselib::PLTT_PassiveType<wiselib::iSenseOsModel, wiselib::NodeType<wiselib::iSenseOsModel, wiselib::iSenseExtendedTxRadioModel<wiselib::iSenseOsModel>, unsigned short, wiselib::Position2DType<wiselib::iSenseOsModel, wiselib::iSenseExtendedTxRadioModel<wiselib::iSenseOsModel>, unsigned short, wiselib::iSenseDebug<wiselib::iSenseOsModel> >, wiselib::iSenseDebug<wiselib::iSenseOsModel> >, wiselib::PLTT_NodeType<wiselib::iSenseOsModel, wiselib::iSenseExtendedTxRadioModel<wiselib::iSenseOsModel>, wiselib::NodeType<wiselib::iSenseOsModel, wiselib::iSenseExtendedTxRadioModel<wiselib::iSenseOsModel>, unsigned short, wiselib::Position2DType<wiselib::iSenseOsModel, wiselib::iSenseExtendedTxRadioModel<wiselib::iSenseOsModel>, unsigned short, wiselib::iSenseDebug<wiselib::iSenseOsModel> >, wiselib::iSenseDebug<wiselib::iSenseOsModel> >, wiselib::PLTT_NodeTargetType<wiselib::iSenseOsModel, wiselib::iSenseExtendedTxRadioModel<wiselib::iSenseOsModel>, unsigned short, unsigned char, wiselib::iSenseDebug<wiselib::iSenseOsModel> >, wiselib::vector_static<wiselib::iSenseOsModel, wiselib::PLTT_NodeTargetType<wiselib::iSenseOsModel, wiselib::iSenseExtendedTxRadioModel<wiselib::iSenseOsModel>, unsigned short, unsigned char, wiselib::iSenseDebug<wiselib::iSenseOsModel> >, 5>, wiselib::vector_static<wiselib::iSenseOsModel, wiselib::PLTT_TraceType<wiselib::iSenseOsModel, wiselib::iSenseExtendedTxRadioModel<wiselib::iSenseOsModel>, unsigned char, unsigned char, unsigned char, wiselib::NodeType<wiselib::iSenseOsModel, wiselib::iSenseExtendedTxRadioModel<wiselib::iSenseOsModel>, unsigned short, wiselib::Position2DType<wiselib::iSenseOsModel, wiselib::iSenseExtendedTxRadioModel<wiselib::iSenseOsModel>, unsigned short, wiselib::iSenseDebug<wiselib::iSenseOsModel> >, wiselib::iSenseDebug<wiselib::iSenseOsModel> >, unsigned short, wiselib::iSenseDebug<wiselib::iSenseOsModel> >, 5>, wiselib::iSenseDebug<wiselib::iSenseOsModel> >, wiselib::vector_static<wiselib::iSenseOsModel, wiselib::PLTT_NodeType<wiselib::iSenseOsModel, wiselib::iSenseExtendedTxRadioModel<wiselib::iSenseOsModel>, wiselib::NodeType<wiselib::iSenseOsModel, wiselib::iSenseExtendedTxRadioModel<wiselib::iSenseOsModel>, unsigned short, wiselib::Position2DType<wiselib::iSenseOsModel, wiselib::iSenseExtendedTxRadioModel<wiselib::iSenseOsModel>, unsigned short, wiselib::iSenseDebug<wiselib::iSenseOsModel> >, wiselib::iSenseDebug<wiselib::iSenseOsModel> >, wiselib::PLTT_NodeTargetType<wiselib::iSenseOsModel, wiselib::iSenseExtendedTxRadioModel<wiselib::iSenseOsModel>, unsigned short, unsigned char, wiselib::iSenseDebug<wiselib::iSenseOsModel> >, wiselib::vector_static<wiselib::iSenseOsModel, wiselib::PLTT_NodeTargetType<wiselib::iSenseOsModel, wiselib::iSenseExtendedTxRadioModel<wiselib::iSenseOsModel>, unsigned short, unsigned char, wiselib::iSenseDebug<wiselib::iSenseOsModel> >, 5>, wiselib::vector_static<wiselib::iSenseOsModel, wiselib::PLTT_TraceType<wiselib::iSenseOsModel, wiselib::iSenseExtendedTxRadioModel<wiselib::iSenseOsModel>, unsigned char, unsigned char, unsigned char, wiselib::NodeType<wiselib::iSenseOsModel, wiselib::iSenseExtendedTxRadioModel<wiselib::iSenseOsModel>, unsigned short, wiselib::Position2DType<wiselib::iSenseOsModel, wiselib::iSenseExtendedTxRadioModel<wiselib::iSenseOsModel>, unsigned short, wiselib::iSenseDebug<wiselib::iSenseOsModel> >, wiselib::iSenseDebug<wiselib::iSenseOsModel> >, unsigned short, wiselib::iSenseDebug<wiselib::iSenseOsModel> >, 5>, wiselib::iSenseDebug<wiselib::iSenseOsModel> >, 25>, wiselib::PLTT_TraceType<wiselib::iSenseOsModel, wiselib::iSenseExtendedTxRadioModel<wiselib::iSenseOsModel>, unsigned char, unsigned char, unsigned char, wiselib::NodeType<wiselib::iSenseOsModel, wiselib::iSenseExtendedTxRadioModel<wiselib::iSenseOsModel>, unsigned short, wiselib::Position2DType<wiselib::iSenseOsModel, wiselib::iSenseExtendedTxRadioModel<wiselib::iSenseOsModel>, unsigned short, wiselib::iSenseDebug<wiselib::iSenseOsModel> >, wiselib::iSenseDebug<wiselib::iSenseOsModel> >, unsigned short, wiselib::iSenseDebug<wiselib::iSenseOsModel> >, wiselib::vector_static<wiselib::iSenseOsModel, wiselib::PLTT_TraceType<wiselib::iSenseOsModel, wiselib::iSenseExtendedTxRadioModel<wiselib::iSenseOsModel>, unsigned char, unsigned char, unsigned char, wiselib::NodeType<wiselib::iSenseOsModel, wiselib::iSenseExtendedTxRadioModel<wiselib::iSenseOsModel>, unsigned short, wiselib::Position2DType<wiselib::iSenseOsModel, wiselib::iSenseExtendedTxRadioModel<wiselib::iSenseOsModel>, unsigned short, wiselib::iSenseDebug<wiselib::iSenseOsModel> >, wiselib::iSenseDebug<wiselib::iSenseOsModel> >, unsigned short, wiselib::iSenseDebug<wiselib::iSenseOsModel> >, 5>, wiselib::PLTT_SecureTraceType<wiselib::iSenseOsModel, wiselib::iSenseExtendedTxRadioModel<wiselib::iSenseOsModel>, unsigned char, unsigned char, unsigned char, wiselib::NodeType<wiselib::iSenseOsModel, wiselib::iSenseExtendedTxRadioModel<wiselib::iSenseOsModel>, unsigned short, wiselib::Position2DType<wiselib::iSenseOsModel, wiselib::iSenseExtendedTxRadioModel<wiselib::iSenseOsModel>, unsigned short, wiselib::iSenseDebug<wiselib::iSenseOsModel> >, wiselib::iSenseDebug<wiselib::iSenseOsModel> >, unsigned short, wiselib::iSenseDebug<wiselib::iSenseOsModel> >, wiselib::vector_static<wiselib::iSenseOsModel, wiselib::PLTT_SecureTraceType<wiselib::iSenseOsModel, wiselib::iSenseExtendedTxRadioModel<wiselib::iSenseOsModel>, unsigned char, unsigned char, unsigned char, wiselib::NodeType<wiselib::iSenseOsModel, wiselib::iSenseExtendedTxRadioModel<wiselib::iSenseOsModel>, unsigned short, wiselib::Position2DType<wiselib::iSenseOsModel, wiselib::iSenseExtendedTxRadioModel<wiselib::iSenseOsModel>, unsigned short, wiselib::iSenseDebug<wiselib::iSenseOsModel> >, wiselib::iSenseDebug<wiselib::iSenseOsModel> >, unsigned short, wiselib::iSenseDebug<wiselib::iSenseOsModel> >, 25>, wiselib::PLTT_AgentType<wiselib::iSenseOsModel, wiselib::iSenseExtendedTxRadioModel<wiselib::iSenseOsModel>, unsigned short, unsigned char, wiselib::iSenseDebug<wiselib::iSenseOsModel> >, wiselib::NeighborDiscovery_Type<wiselib::iSenseOsModel, wiselib::iSenseExtendedTxRadioModel<wiselib::iSenseOsModel>, wiselib::iSenseClockModel<wiselib::iSenseOsModel, isense::Time>, wiselib::iSenseTimerModel<wiselib::iSenseOsModel>, wiselib::iSenseRandModel<wiselib::iSenseOsModel>, wiselib::iSenseDebug<wiselib::iSenseOsModel> >, wiselib::iSenseTimerModel<wiselib::iSenseOsModel>, wiselib::iSenseExtendedTxRadioModel<wiselib::iSenseOsModel>, wiselib::ReliableRadio_Type<wiselib::iSenseOsModel, wiselib::iSenseExtendedTxRadioModel<wiselib::iSenseOsModel>, wiselib::iSenseClockModel<wiselib::iSenseOsModel, isense::Time>, wiselib::iSenseTimerModel<wiselib::iSenseOsModel>, wiselib::iSenseRandModel<wiselib::iSenseOsModel>, wiselib::iSenseDebug<wiselib::iSenseOsModel> >, wiselib::iSenseRandModel<wiselib::iSenseOsModel>, wiselib::iSenseClockModel<wiselib::iSenseOsModel, isense::Time>, wiselib::iSenseDebug<wiselib::iSenseOsModel> >, &(wiselib::PLTT_PassiveType<wiselib::iSenseOsModel, wiselib::NodeType<wiselib::iSenseOsModel, wiselib::iSenseExtendedTxRadioModel<wiselib::iSenseOsModel>, unsigned short, wiselib::Position2DType<wiselib::iSenseOsModel, wiselib::iSenseExtendedTxRadioModel<wiselib::iSenseOsModel>, unsigned short, wiselib::iSenseDebug<wiselib::iSenseOsModel> >, wiselib::iSenseDebug<wiselib::iSenseOsModel> >, wiselib::PLTT_NodeType<wiselib::iSenseOsModel, wiselib::iSenseExtendedTxRadioModel<wiselib::iSenseOsModel>, wiselib::NodeType<wiselib::iSenseOsModel, wiselib::iSenseExtendedTxRadioModel<wiselib::iSenseOsModel>, unsigned short, wiselib::Position2DType<wiselib::iSenseOsModel, wiselib::iSenseExtendedTxRadioModel<wiselib::iSenseOsModel>, unsigned short, wiselib::iSenseDebug<wiselib::iSenseOsModel> >, wiselib::iSenseDebug<wiselib::iSenseOsModel> >, wiselib::PLTT_NodeTargetType<wiselib::iSenseOsModel, wiselib::iSenseExtendedTxRadioModel<wiselib::iSenseOsModel>, unsigned short, unsigned char, wiselib::iSenseDebug<wiselib::iSenseOsModel> >, wiselib::vector_static<wiselib::iSenseOsModel, wiselib::PLTT_NodeTargetType<wiselib::iSenseOsModel, wiselib::iSenseExtendedTxRadioModel<wiselib::iSenseOsModel>, unsigned short, unsigned char, wiselib::iSenseDebug<wiselib::iSenseOsModel> >, 5>, wiselib::vector_static<wiselib::iSenseOsModel, wiselib::PLTT_TraceType<wiselib::iSenseOsModel, wiselib::iSenseExtendedTxRadioModel<wiselib::iSenseOsModel>, unsigned char, unsigned char, unsigned char, wiselib::NodeType<wiselib::iSenseOsModel, wiselib::iSenseExtendedTxRadioModel<wiselib::iSenseOsModel>, unsigned short, wiselib::Position2DType<wiselib::iSenseOsModel, wiselib::iSenseExtendedTxRadioModel<wiselib::iSenseOsModel>, unsigned short, wiselib::iSenseDebug<wiselib::iSenseOsModel> >, wiselib::iSenseDebug<wiselib::iSenseOsModel> >, unsigned short, wiselib::iSenseDebug<wiselib::iSenseOsModel> >, 5>, wiselib::iSenseDebug<wiselib::iSenseOsModel> >, wiselib::vector_static<wiselib::iSenseOsModel, wiselib::PLTT_NodeType<wiselib::iSenseOsModel, wiselib::iSenseExtendedTxRadioModel<wiselib::iSenseOsModel>, wiselib::NodeType<wiselib::iSenseOsModel, wiselib::iSenseExtendedTxRadioModel<wiselib::iSenseOsModel>, unsigned short, wiselib::Position2DType<wiselib::iSenseOsModel, wiselib::iSenseExtendedTxRadioModel<wiselib::iSenseOsModel>, unsigned short, wiselib::iSenseDebug<wiselib::iSenseOsModel> >, wiselib::iSenseDebug<wiselib::iSenseOsModel> >, wiselib::PLTT_NodeTargetType<wiselib::iSenseOsModel, wiselib::iSenseExtendedTxRadioModel<wiselib::iSenseOsModel>, unsigned short, unsigned char, wiselib::iSenseDebug<wiselib::iSenseOsModel> >, wiselib::vector_static<wiselib::iSenseOsModel, wiselib::PLTT_NodeTargetType<wiselib::iSenseOsModel, wiselib::iSenseExtendedTxRadioModel<wiselib::iSenseOsModel>, unsigned short, unsigned char, wiselib::iSenseDebug<wiselib::iSenseOsModel> >, 5>, wiselib::vector_static<wiselib::iSenseOsModel, wiselib::PLTT_TraceType<wiselib::iSenseOsModel, wiselib::iSenseExtendedTxRadioModel<wiselib::iSenseOsModel>, unsigned char, unsigned char, unsigned char, wiselib::NodeType<wiselib::iSenseOsModel, wiselib::iSenseExtendedTxRadioModel<wiselib::iSenseOsModel>, unsigned short, wiselib::Position2DType<wiselib::iSenseOsModel, wiselib::iSenseExtendedTxRadioModel<wiselib::iSenseOsModel>, unsigned short, wiselib::iSenseDebug<wiselib::iSenseOsModel> >, wiselib::iSenseDebug<wiselib::iSenseOsModel> >, unsigned short, wiselib::iSenseDebug<wiselib::iSenseOsModel> >, 5>, wiselib::iSenseDebug<wiselib::iSenseOsModel> >, 25>, wiselib::PLTT_TraceType<wiselib::iSenseOsModel, wiselib::iSenseExtendedTxRadioModel<wiselib::iSenseOsModel>, unsigned char, unsigned char, unsigned char, wiselib::NodeType<wiselib::iSenseOsModel, wiselib::iSenseExtendedTxRadioModel<wiselib::iSenseOsModel>, unsigned short, wiselib::Position2DType<wiselib::iSenseOsModel, wiselib::iSenseExtendedTxRadioModel<wiselib::iSenseOsModel>, unsigned short, wiselib::iSenseDebug<wiselib::iSenseOsModel> >, wiselib::iSenseDebug<wiselib::iSenseOsModel> >, unsigned short, wiselib::iSenseDebug<wiselib::iSenseOsModel> >, wiselib::vector_static<wiselib::iSenseOsModel, wiselib::PLTT_TraceType<wiselib::iSenseOsModel, wiselib::iSenseExtendedTxRadioModel<wiselib::iSenseOsModel>, unsigned char, unsigned char, unsigned char, wiselib::NodeType<wiselib::iSenseOsModel, wiselib::iSenseExtendedTxRadioModel<wiselib::iSenseOsModel>, unsigned short, wiselib::Position2DType<wiselib::iSenseOsModel, wiselib::iSenseExtendedTxRadioModel<wiselib::iSenseOsModel>, unsigned short, wiselib::iSenseDebug<wiselib::iSenseOsModel> >, wiselib::iSenseDebug<wiselib::iSenseOsModel> >, unsigned short, wiselib::iSenseDebug<wiselib::iSenseOsModel> >, 5>, wiselib::PLTT_SecureTraceType<wiselib::iSenseOsModel, wiselib::iSenseExtendedTxRadioModel<wiselib::iSenseOsModel>, unsigned char, unsigned char, unsigned char, wiselib::NodeType<wiselib::iSenseOsModel, wiselib::iSenseExtendedTxRadioModel<wiselib::iSenseOsModel>, unsigned short, wiselib::Position2DType<wiselib::iSenseOsModel, wiselib::iSenseExtendedTxRadioModel<wiselib::iSenseOsModel>, unsigned short, wiselib::iSenseDebug<wiselib::iSenseOsModel> >, wiselib::iSenseDebug<wiselib::iSenseOsModel> >, unsigned short, wiselib::iSenseDebug<wiselib::iSenseOsModel> >, wiselib::vector_static<wiselib::iSenseOsModel, wiselib::PLTT_SecureTraceType<wiselib::iSenseOsModel, wiselib::iSenseExtendedTxRadioModel<wiselib::iSenseOsModel>, unsigned char, unsigned char, unsigned char, wiselib::NodeType<wiselib::iSenseOsModel, wiselib::iSenseExtendedTxRadioModel<wiselib::iSenseOsModel>, unsigned short, wiselib::Position2DType<wiselib::iSenseOsModel, wiselib::iSenseExtendedTxRadioModel<wiselib::iSenseOsModel>, unsigned short, wiselib::iSenseDebug<wiselib::iSenseOsModel> >, wiselib::iSenseDebug<wiselib::iSenseOsModel> >, unsigned short, wiselib::iSenseDebug<wiselib::iSenseOsModel> >, 25>, wiselib::PLTT_AgentType<wiselib::iSenseOsModel, wiselib::iSenseExtendedTxRadioModel<wiselib::iSenseOsModel>, unsigned short, unsigned char, wiselib::iSenseDebug<wiselib::iSenseOsModel> >, wiselib::NeighborDiscovery_Type<wiselib::iSenseOsModel, wiselib::iSenseExtendedTxRadioModel<wiselib::iSenseOsModel>, wiselib::iSenseClockModel<wiselib::iSenseOsModel, isense::Time>, wiselib::iSenseTimerModel<wiselib::iSenseOsModel>, wiselib::iSenseRandModel<wiselib::iSenseOsModel>, wiselib::iSenseDebug<wiselib::iSenseOsModel> >, wiselib::iSenseTimerModel<wiselib::iSenseOsModel>, wiselib::iSenseExtendedTxRadioModel<wiselib::iSenseOsModel>, wiselib::ReliableRadio_Type<wiselib::iSenseOsModel, wiselib::iSenseExtendedTxRadioModel<wiselib::iSenseOsModel>, wiselib::iSenseClockModel<wiselib::iSenseOsModel, isense::Time>, wiselib::iSenseTimerModel<wiselib::iSenseOsModel>, wiselib::iSenseRandModel<wiselib::iSenseOsModel>, wiselib::iSenseDebug<wiselib::iSenseOsModel> >, wiselib::iSenseRandModel<wiselib::iSenseOsModel>, wiselib::iSenseClockModel<wiselib::iSenseOsModel, isense::Time>, wiselib::iSenseDebug<wiselib::iSenseOsModel> >::send_decryption_request(void*))>(unsigned long, wiselib::PLTT_PassiveType<wiselib::iSenseOsModel, wiselib::NodeType<wiselib::iSenseOsModel, wiselib::iSenseExtendedTxRadioModel<wiselib::iSenseOsModel>, unsigned short, wiselib::Position2DType<wiselib::iSenseOsModel, wiselib::iSenseExtendedTxRadioModel<wiselib::iSenseOsModel>, unsigned short, wiselib::iSenseDebug<wiselib::iSenseOsModel> >, wiselib::iSenseDebug<wiselib::iSenseOsModel> >, wiselib::PLTT_NodeType<wiselib::iSenseOsModel, wiselib::iSenseExtendedTxRadioModel<wiselib::iSenseOsModel>, wiselib::NodeType<wiselib::iSenseOsModel, wiselib::iSenseExtendedTxRadioModel<wiselib::iSenseOsModel>, unsigned short, wiselib::Position2DType<wiselib::iSenseOsModel, wiselib::iSenseExtendedTxRadioModel<wiselib::iSenseOsModel>, unsigned short, wiselib::iSenseDebug<wiselib::iSenseOsModel> >, wiselib::iSenseDebug<wiselib::iSenseOsModel> >, wiselib::PLTT_NodeTargetType<wiselib::iSenseOsModel, wiselib::iSenseExtendedTxRadioModel<wiselib::iSenseOsModel>, unsigned short, unsigned char, wiselib::iSenseDebug<wiselib::iSenseOsModel> >, wiselib::vector_static<wiselib::iSenseOsModel, wiselib::PLTT_NodeTargetType<wiselib::iSenseOsModel, wiselib::iSenseExtendedTxRadioModel<wiselib::iSenseOsModel>, unsigned short, unsigned char, wiselib::iSenseDebug<wiselib::iSenseOsModel> >, 5>, wiselib::vector_static<wiselib::iSenseOsModel, wiselib::PLTT_TraceType<wiselib::iSenseOsModel, wiselib::iSenseExtendedTxRadioModel<wiselib::iSenseOsModel>, unsigned char, unsigned char, unsigned char, wiselib::NodeType<wiselib::iSenseOsModel, wiselib::iSenseExtendedTxRadioModel<wiselib::iSenseOsModel>, unsigned short, wiselib::Position2DType<wiselib::iSenseOsModel, wiselib::iSenseExtendedTxRadioModel<wiselib::iSenseOsModel>, unsigned short, wiselib::iSenseDebug<wiselib::iSenseOsModel> >, wiselib::iSenseDebug<wiselib::iSenseOsModel> >, unsigned short, wiselib::iSenseDebug<wiselib::iSenseOsModel> >, 5>, wiselib::iSenseDebug<wiselib::iSenseOsModel> >, wiselib::vector_static<wiselib::iSenseOsModel, wiselib::PLTT_NodeType<wiselib::iSenseOsModel, wiselib::iSenseExtendedTxRadioModel<wiselib::iSenseOsModel>, wiselib::NodeType<wiselib::iSenseOsModel, wiselib::iSenseExtendedTxRadioModel<wiselib::iSenseOsModel>, unsigned short, wiselib::Position2DType<wiselib::iSenseOsModel, wiselib::iSenseExtendedTxRadioModel<wiselib::iSenseOsModel>, unsigned short, wiselib::iSenseDebug<wiselib::iSenseOsModel> >, wiselib::iSenseDebug<wiselib::iSenseOsModel> >, wiselib::PLTT_NodeTargetType<wiselib::iSenseOsModel, wiselib::iSenseExtendedTxRadioModel<wiselib::iSenseOsModel>, unsigned short, unsigned char, wiselib::iSenseDebug<wiselib::iSenseOsModel> >, wiselib::vector_static<wiselib::iSenseOsModel, wiselib::PLTT_NodeTargetType<wiselib::iSenseOsModel, wiselib::iSenseExtendedTxRadioModel<wiselib::iSenseOsModel>, unsigned short, unsigned char, wiselib::iSenseDebug<wiselib::iSenseOsModel> >, 5>, wiselib::vector_static<wiselib::iSenseOsModel, wiselib::PLTT_TraceType<wiselib::iSenseOsModel, wiselib::iSenseExtendedTxRadioModel<wiselib::iSenseOsModel>, unsigned char, unsigned char, unsigned char, wiselib::NodeType<wiselib::iSenseOsModel, wiselib::iSenseExtendedTxRadioModel<wiselib::iSenseOsModel>, unsigned short, wiselib::Position2DType<wiselib::iSenseOsModel, wiselib::iSenseExtendedTxRadioModel<wiselib::iSenseOsModel>, unsigned short, wiselib::iSenseDebug<wiselib::iSenseOsModel> >, wiselib::iSenseDebug<wiselib::iSenseOsModel> >, unsigned short, wiselib::iSenseDebug<wiselib::iSenseOsModel> >, 5>, wiselib::iSenseDebug<wiselib::iSenseOsModel> >, 25>, wiselib::PLTT_TraceType<wiselib::iSenseOsModel, wiselib::iSenseExtendedTxRadioModel<wiselib::iSenseOsModel>, unsigned char, unsigned char, unsigned char, wiselib::NodeType<wiselib::iSenseOsModel, wiselib::iSenseExtendedTxRadioModel<wiselib::iSenseOsModel>, unsigned short, wiselib::Position2DType<wiselib::iSenseOsModel, wiselib::iSenseExtendedTxRadioModel<wiselib::iSenseOsModel>, unsigned short, wiselib::iSenseDebug<wiselib::iSenseOsModel> >, wiselib::iSenseDebug<wiselib::iSenseOsModel> >, unsigned short, wiselib::iSenseDebug<wiselib::iSenseOsModel> >, wiselib::vector_static<wiselib::iSenseOsModel, wiselib::PLTT_TraceType<wiselib::iSenseOsModel, wiselib::iSenseExtendedTxRadioModel<wiselib::iSenseOsModel>, unsigned char, unsigned char, unsigned char, wiselib::NodeType<wiselib::iSenseOsModel, wiselib::iSenseExtendedTxRadioModel<wiselib::iSenseOsModel>, unsigned short, wiselib::Position2DType<wiselib::iSenseOsModel, wiselib::iSenseExtendedTxRadioModel<wiselib::iSenseOsModel>, unsigned short, wiselib::iSenseDebug<wiselib::iSenseOsModel> >, wiselib::iSenseDebug<wiselib::iSenseOsModel> >, unsigned short, wiselib::iSenseDebug<wiselib::iSenseOsModel> >, 5>, wiselib::PLTT_SecureTraceType<wiselib::iSenseOsModel, wiselib::iSenseExtendedTxRadioModel<wiselib::iSenseOsModel>, unsigned char, unsigned char, unsigned char, wiselib::NodeType<wiselib::iSenseOsModel, wiselib::iSenseExtendedTxRadioModel<wiselib::iSenseOsModel>, unsigned short, wiselib::Position2DType<wiselib::iSenseOsModel, wiselib::iSenseExtendedTxRadioModel<wiselib::iSenseOsModel>, unsigned short, wiselib::iSenseDebug<wiselib::iSenseOsModel> >, wiselib::iSenseDebug<wiselib::iSenseOsModel> >, unsigned short, wiselib::iSenseDebug<wiselib::iSenseOsModel> >, wiselib::vector_static<wiselib::iSenseOsModel, wiselib::PLTT_SecureTraceType<wiselib::iSenseOsModel, wiselib::iSenseExtendedTxRadioModel<wiselib::iSenseOsModel>, unsigned char, unsigned char, unsigned char, wiselib::NodeType<wiselib::iSenseOsModel, wiselib::iSenseExtendedTxRadioModel<wiselib::iSenseOsModel>, unsigned short, wiselib::Position2DType<wiselib::iSenseOsModel, wiselib::iSenseExtendedTxRadioModel<wiselib::iSenseOsModel>, unsigned short, wiselib::iSenseDebug<wiselib::iSenseOsModel> >, wiselib::iSenseDebug<wiselib::iSenseOsModel> >, unsigned short, wiselib::iSenseDebug<wiselib::iSenseOsModel> >, 25>, wiselib::PLTT_AgentType<wiselib::iSenseOsModel, wiselib::iSenseExtendedTxRadioModel<wiselib::iSenseOsModel>, unsigned short, unsigned char, wiselib::iSenseDebug<wiselib::iSenseOsModel> >, wiselib::NeighborDiscovery_Type<wiselib::iSenseOsModel, wiselib::iSenseExtendedTxRadioModel<wiselib::iSenseOsModel>, wiselib::iSenseClockModel<wiselib::iSenseOsModel, isense::Time>, wiselib::iSenseTimerModel<wiselib::iSenseOsModel>, wiselib::iSenseRandModel<wiselib::iSenseOsModel>, wiselib::iSenseDebug<wiselib::iSenseOsModel> >, wiselib::iSenseTimerModel<wiselib::iSenseOsModel>, wiselib::iSenseExtendedTxRadioModel<wiselib::iSenseOsModel>, wiselib::ReliableRadio_Type<wiselib::iSenseOsModel, wiselib::iSenseExtendedTxRadioModel<wiselib::iSenseOsModel>, wiselib::iSenseClockModel<wiselib::iSenseOsModel, isense::Time>, wiselib::iSenseTimerModel<wiselib::iSenseOsModel>, wiselib::iSenseRandModel<wiselib::iSenseOsModel>, wiselib::iSenseDebug<wiselib::iSenseOsModel> >, wiselib::iSenseRandModel<wiselib::iSenseOsModel>, wiselib::iSenseClockModel<wiselib::iSenseOsModel, isense::Time>, wiselib::iSenseDebug<wiselib::iSenseOsModel> >*, void*)
 .text._ZN7wiselib16iSenseTimerModelINS_13iSenseOsModelEE9set_timerINS_16PLTT_PassiveTypeIS1_NS_8NodeTypeIS1_NS_26iSenseExtendedTxRadioModelIS1_EEtNS_14Position2DTypeIS1_S7_tNS_11iSenseDebugIS1_EEEESA_EENS_13PLTT_NodeTypeIS1_S7_SC_NS_19PLTT_NodeTargetTypeIS1_S7_thSA_EENS_13vector_staticIS1_SF_Li5EEENSG_IS1_NS_14PLTT_TraceTypeIS1_S7_hhhSC_tSA_EELi5EEESA_EENSG_IS1_SL_Li25EEESJ_SK_NS_20PLTT_SecureTraceTypeIS1_S7_hhhSC_tSA_EENSG_IS1_SO_Li25EEENS_14PLTT_AgentTypeIS1_S7_thSA_EENS_22NeighborDiscovery_TypeIS1_S7_NS_16iSenseClockModelIS1_N6isense4TimeEEES2_NS_15iSenseRandModelIS1_EESA_EES2_S7_NS_18ReliableRadio_TypeIS1_S7_SW_S2_SY_SA_EESY_SW_SA_EEXadL_ZNS12_19spread_secure_traceEPvEEEEimPT_S13_
                0x0400463c      0x10c out/isense/PLTT_passive_app.o
                0x0400463c                int wiselib::iSenseTimerModel<wiselib::iSenseOsModel>::set_timer<wiselib::PLTT_PassiveType<wiselib::iSenseOsModel, wiselib::NodeType<wiselib::iSenseOsModel, wiselib::iSenseExtendedTxRadioModel<wiselib::iSenseOsModel>, unsigned short, wiselib::Position2DType<wiselib::iSenseOsModel, wiselib::iSenseExtendedTxRadioModel<wiselib::iSenseOsModel>, unsigned short, wiselib::iSenseDebug<wiselib::iSenseOsModel> >, wiselib::iSenseDebug<wiselib::iSenseOsModel> >, wiselib::PLTT_NodeType<wiselib::iSenseOsModel, wiselib::iSenseExtendedTxRadioModel<wiselib::iSenseOsModel>, wiselib::NodeType<wiselib::iSenseOsModel, wiselib::iSenseExtendedTxRadioModel<wiselib::iSenseOsModel>, unsigned short, wiselib::Position2DType<wiselib::iSenseOsModel, wiselib::iSenseExtendedTxRadioModel<wiselib::iSenseOsModel>, unsigned short, wiselib::iSenseDebug<wiselib::iSenseOsModel> >, wiselib::iSenseDebug<wiselib::iSenseOsModel> >, wiselib::PLTT_NodeTargetType<wiselib::iSenseOsModel, wiselib::iSenseExtendedTxRadioModel<wiselib::iSenseOsModel>, unsigned short, unsigned char, wiselib::iSenseDebug<wiselib::iSenseOsModel> >, wiselib::vector_static<wiselib::iSenseOsModel, wiselib::PLTT_NodeTargetType<wiselib::iSenseOsModel, wiselib::iSenseExtendedTxRadioModel<wiselib::iSenseOsModel>, unsigned short, unsigned char, wiselib::iSenseDebug<wiselib::iSenseOsModel> >, 5>, wiselib::vector_static<wiselib::iSenseOsModel, wiselib::PLTT_TraceType<wiselib::iSenseOsModel, wiselib::iSenseExtendedTxRadioModel<wiselib::iSenseOsModel>, unsigned char, unsigned char, unsigned char, wiselib::NodeType<wiselib::iSenseOsModel, wiselib::iSenseExtendedTxRadioModel<wiselib::iSenseOsModel>, unsigned short, wiselib::Position2DType<wiselib::iSenseOsModel, wiselib::iSenseExtendedTxRadioModel<wiselib::iSenseOsModel>, unsigned short, wiselib::iSenseDebug<wiselib::iSenseOsModel> >, wiselib::iSenseDebug<wiselib::iSenseOsModel> >, unsigned short, wiselib::iSenseDebug<wiselib::iSenseOsModel> >, 5>, wiselib::iSenseDebug<wiselib::iSenseOsModel> >, wiselib::vector_static<wiselib::iSenseOsModel, wiselib::PLTT_NodeType<wiselib::iSenseOsModel, wiselib::iSenseExtendedTxRadioModel<wiselib::iSenseOsModel>, wiselib::NodeType<wiselib::iSenseOsModel, wiselib::iSenseExtendedTxRadioModel<wiselib::iSenseOsModel>, unsigned short, wiselib::Position2DType<wiselib::iSenseOsModel, wiselib::iSenseExtendedTxRadioModel<wiselib::iSenseOsModel>, unsigned short, wiselib::iSenseDebug<wiselib::iSenseOsModel> >, wiselib::iSenseDebug<wiselib::iSenseOsModel> >, wiselib::PLTT_NodeTargetType<wiselib::iSenseOsModel, wiselib::iSenseExtendedTxRadioModel<wiselib::iSenseOsModel>, unsigned short, unsigned char, wiselib::iSenseDebug<wiselib::iSenseOsModel> >, wiselib::vector_static<wiselib::iSenseOsModel, wiselib::PLTT_NodeTargetType<wiselib::iSenseOsModel, wiselib::iSenseExtendedTxRadioModel<wiselib::iSenseOsModel>, unsigned short, unsigned char, wiselib::iSenseDebug<wiselib::iSenseOsModel> >, 5>, wiselib::vector_static<wiselib::iSenseOsModel, wiselib::PLTT_TraceType<wiselib::iSenseOsModel, wiselib::iSenseExtendedTxRadioModel<wiselib::iSenseOsModel>, unsigned char, unsigned char, unsigned char, wiselib::NodeType<wiselib::iSenseOsModel, wiselib::iSenseExtendedTxRadioModel<wiselib::iSenseOsModel>, unsigned short, wiselib::Position2DType<wiselib::iSenseOsModel, wiselib::iSenseExtendedTxRadioModel<wiselib::iSenseOsModel>, unsigned short, wiselib::iSenseDebug<wiselib::iSenseOsModel> >, wiselib::iSenseDebug<wiselib::iSenseOsModel> >, unsigned short, wiselib::iSenseDebug<wiselib::iSenseOsModel> >, 5>, wiselib::iSenseDebug<wiselib::iSenseOsModel> >, 25>, wiselib::PLTT_TraceType<wiselib::iSenseOsModel, wiselib::iSenseExtendedTxRadioModel<wiselib::iSenseOsModel>, unsigned char, unsigned char, unsigned char, wiselib::NodeType<wiselib::iSenseOsModel, wiselib::iSenseExtendedTxRadioModel<wiselib::iSenseOsModel>, unsigned short, wiselib::Position2DType<wiselib::iSenseOsModel, wiselib::iSenseExtendedTxRadioModel<wiselib::iSenseOsModel>, unsigned short, wiselib::iSenseDebug<wiselib::iSenseOsModel> >, wiselib::iSenseDebug<wiselib::iSenseOsModel> >, unsigned short, wiselib::iSenseDebug<wiselib::iSenseOsModel> >, wiselib::vector_static<wiselib::iSenseOsModel, wiselib::PLTT_TraceType<wiselib::iSenseOsModel, wiselib::iSenseExtendedTxRadioModel<wiselib::iSenseOsModel>, unsigned char, unsigned char, unsigned char, wiselib::NodeType<wiselib::iSenseOsModel, wiselib::iSenseExtendedTxRadioModel<wiselib::iSenseOsModel>, unsigned short, wiselib::Position2DType<wiselib::iSenseOsModel, wiselib::iSenseExtendedTxRadioModel<wiselib::iSenseOsModel>, unsigned short, wiselib::iSenseDebug<wiselib::iSenseOsModel> >, wiselib::iSenseDebug<wiselib::iSenseOsModel> >, unsigned short, wiselib::iSenseDebug<wiselib::iSenseOsModel> >, 5>, wiselib::PLTT_SecureTraceType<wiselib::iSenseOsModel, wiselib::iSenseExtendedTxRadioModel<wiselib::iSenseOsModel>, unsigned char, unsigned char, unsigned char, wiselib::NodeType<wiselib::iSenseOsModel, wiselib::iSenseExtendedTxRadioModel<wiselib::iSenseOsModel>, unsigned short, wiselib::Position2DType<wiselib::iSenseOsModel, wiselib::iSenseExtendedTxRadioModel<wiselib::iSenseOsModel>, unsigned short, wiselib::iSenseDebug<wiselib::iSenseOsModel> >, wiselib::iSenseDebug<wiselib::iSenseOsModel> >, unsigned short, wiselib::iSenseDebug<wiselib::iSenseOsModel> >, wiselib::vector_static<wiselib::iSenseOsModel, wiselib::PLTT_SecureTraceType<wiselib::iSenseOsModel, wiselib::iSenseExtendedTxRadioModel<wiselib::iSenseOsModel>, unsigned char, unsigned char, unsigned char, wiselib::NodeType<wiselib::iSenseOsModel, wiselib::iSenseExtendedTxRadioModel<wiselib::iSenseOsModel>, unsigned short, wiselib::Position2DType<wiselib::iSenseOsModel, wiselib::iSenseExtendedTxRadioModel<wiselib::iSenseOsModel>, unsigned short, wiselib::iSenseDebug<wiselib::iSenseOsModel> >, wiselib::iSenseDebug<wiselib::iSenseOsModel> >, unsigned short, wiselib::iSenseDebug<wiselib::iSenseOsModel> >, 25>, wiselib::PLTT_AgentType<wiselib::iSenseOsModel, wiselib::iSenseExtendedTxRadioModel<wiselib::iSenseOsModel>, unsigned short, unsigned char, wiselib::iSenseDebug<wiselib::iSenseOsModel> >, wiselib::NeighborDiscovery_Type<wiselib::iSenseOsModel, wiselib::iSenseExtendedTxRadioModel<wiselib::iSenseOsModel>, wiselib::iSenseClockModel<wiselib::iSenseOsModel, isense::Time>, wiselib::iSenseTimerModel<wiselib::iSenseOsModel>, wiselib::iSenseRandModel<wiselib::iSenseOsModel>, wiselib::iSenseDebug<wiselib::iSenseOsModel> >, wiselib::iSenseTimerModel<wiselib::iSenseOsModel>, wiselib::iSenseExtendedTxRadioModel<wiselib::iSenseOsModel>, wiselib::ReliableRadio_Type<wiselib::iSenseOsModel, wiselib::iSenseExtendedTxRadioModel<wiselib::iSenseOsModel>, wiselib::iSenseClockModel<wiselib::iSenseOsModel, isense::Time>, wiselib::iSenseTimerModel<wiselib::iSenseOsModel>, wiselib::iSenseRandModel<wiselib::iSenseOsModel>, wiselib::iSenseDebug<wiselib::iSenseOsModel> >, wiselib::iSenseRandModel<wiselib::iSenseOsModel>, wiselib::iSenseClockModel<wiselib::iSenseOsModel, isense::Time>, wiselib::iSenseDebug<wiselib::iSenseOsModel> >, &(wiselib::PLTT_PassiveType<wiselib::iSenseOsModel, wiselib::NodeType<wiselib::iSenseOsModel, wiselib::iSenseExtendedTxRadioModel<wiselib::iSenseOsModel>, unsigned short, wiselib::Position2DType<wiselib::iSenseOsModel, wiselib::iSenseExtendedTxRadioModel<wiselib::iSenseOsModel>, unsigned short, wiselib::iSenseDebug<wiselib::iSenseOsModel> >, wiselib::iSenseDebug<wiselib::iSenseOsModel> >, wiselib::PLTT_NodeType<wiselib::iSenseOsModel, wiselib::iSenseExtendedTxRadioModel<wiselib::iSenseOsModel>, wiselib::NodeType<wiselib::iSenseOsModel, wiselib::iSenseExtendedTxRadioModel<wiselib::iSenseOsModel>, unsigned short, wiselib::Position2DType<wiselib::iSenseOsModel, wiselib::iSenseExtendedTxRadioModel<wiselib::iSenseOsModel>, unsigned short, wiselib::iSenseDebug<wiselib::iSenseOsModel> >, wiselib::iSenseDebug<wiselib::iSenseOsModel> >, wiselib::PLTT_NodeTargetType<wiselib::iSenseOsModel, wiselib::iSenseExtendedTxRadioModel<wiselib::iSenseOsModel>, unsigned short, unsigned char, wiselib::iSenseDebug<wiselib::iSenseOsModel> >, wiselib::vector_static<wiselib::iSenseOsModel, wiselib::PLTT_NodeTargetType<wiselib::iSenseOsModel, wiselib::iSenseExtendedTxRadioModel<wiselib::iSenseOsModel>, unsigned short, unsigned char, wiselib::iSenseDebug<wiselib::iSenseOsModel> >, 5>, wiselib::vector_static<wiselib::iSenseOsModel, wiselib::PLTT_TraceType<wiselib::iSenseOsModel, wiselib::iSenseExtendedTxRadioModel<wiselib::iSenseOsModel>, unsigned char, unsigned char, unsigned char, wiselib::NodeType<wiselib::iSenseOsModel, wiselib::iSenseExtendedTxRadioModel<wiselib::iSenseOsModel>, unsigned short, wiselib::Position2DType<wiselib::iSenseOsModel, wiselib::iSenseExtendedTxRadioModel<wiselib::iSenseOsModel>, unsigned short, wiselib::iSenseDebug<wiselib::iSenseOsModel> >, wiselib::iSenseDebug<wiselib::iSenseOsModel> >, unsigned short, wiselib::iSenseDebug<wiselib::iSenseOsModel> >, 5>, wiselib::iSenseDebug<wiselib::iSenseOsModel> >, wiselib::vector_static<wiselib::iSenseOsModel, wiselib::PLTT_NodeType<wiselib::iSenseOsModel, wiselib::iSenseExtendedTxRadioModel<wiselib::iSenseOsModel>, wiselib::NodeType<wiselib::iSenseOsModel, wiselib::iSenseExtendedTxRadioModel<wiselib::iSenseOsModel>, unsigned short, wiselib::Position2DType<wiselib::iSenseOsModel, wiselib::iSenseExtendedTxRadioModel<wiselib::iSenseOsModel>, unsigned short, wiselib::iSenseDebug<wiselib::iSenseOsModel> >, wiselib::iSenseDebug<wiselib::iSenseOsModel> >, wiselib::PLTT_NodeTargetType<wiselib::iSenseOsModel, wiselib::iSenseExtendedTxRadioModel<wiselib::iSenseOsModel>, unsigned short, unsigned char, wiselib::iSenseDebug<wiselib::iSenseOsModel> >, wiselib::vector_static<wiselib::iSenseOsModel, wiselib::PLTT_NodeTargetType<wiselib::iSenseOsModel, wiselib::iSenseExtendedTxRadioModel<wiselib::iSenseOsModel>, unsigned short, unsigned char, wiselib::iSenseDebug<wiselib::iSenseOsModel> >, 5>, wiselib::vector_static<wiselib::iSenseOsModel, wiselib::PLTT_TraceType<wiselib::iSenseOsModel, wiselib::iSenseExtendedTxRadioModel<wiselib::iSenseOsModel>, unsigned char, unsigned char, unsigned char, wiselib::NodeType<wiselib::iSenseOsModel, wiselib::iSenseExtendedTxRadioModel<wiselib::iSenseOsModel>, unsigned short, wiselib::Position2DType<wiselib::iSenseOsModel, wiselib::iSenseExtendedTxRadioModel<wiselib::iSenseOsModel>, unsigned short, wiselib::iSenseDebug<wiselib::iSenseOsModel> >, wiselib::iSenseDebug<wiselib::iSenseOsModel> >, unsigned short, wiselib::iSenseDebug<wiselib::iSenseOsModel> >, 5>, wiselib::iSenseDebug<wiselib::iSenseOsModel> >, 25>, wiselib::PLTT_TraceType<wiselib::iSenseOsModel, wiselib::iSenseExtendedTxRadioModel<wiselib::iSenseOsModel>, unsigned char, unsigned char, unsigned char, wiselib::NodeType<wiselib::iSenseOsModel, wiselib::iSenseExtendedTxRadioModel<wiselib::iSenseOsModel>, unsigned short, wiselib::Position2DType<wiselib::iSenseOsModel, wiselib::iSenseExtendedTxRadioModel<wiselib::iSenseOsModel>, unsigned short, wiselib::iSenseDebug<wiselib::iSenseOsModel> >, wiselib::iSenseDebug<wiselib::iSenseOsModel> >, unsigned short, wiselib::iSenseDebug<wiselib::iSenseOsModel> >, wiselib::vector_static<wiselib::iSenseOsModel, wiselib::PLTT_TraceType<wiselib::iSenseOsModel, wiselib::iSenseExtendedTxRadioModel<wiselib::iSenseOsModel>, unsigned char, unsigned char, unsigned char, wiselib::NodeType<wiselib::iSenseOsModel, wiselib::iSenseExtendedTxRadioModel<wiselib::iSenseOsModel>, unsigned short, wiselib::Position2DType<wiselib::iSenseOsModel, wiselib::iSenseExtendedTxRadioModel<wiselib::iSenseOsModel>, unsigned short, wiselib::iSenseDebug<wiselib::iSenseOsModel> >, wiselib::iSenseDebug<wiselib::iSenseOsModel> >, unsigned short, wiselib::iSenseDebug<wiselib::iSenseOsModel> >, 5>, wiselib::PLTT_SecureTraceType<wiselib::iSenseOsModel, wiselib::iSenseExtendedTxRadioModel<wiselib::iSenseOsModel>, unsigned char, unsigned char, unsigned char, wiselib::NodeType<wiselib::iSenseOsModel, wiselib::iSenseExtendedTxRadioModel<wiselib::iSenseOsModel>, unsigned short, wiselib::Position2DType<wiselib::iSenseOsModel, wiselib::iSenseExtendedTxRadioModel<wiselib::iSenseOsModel>, unsigned short, wiselib::iSenseDebug<wiselib::iSenseOsModel> >, wiselib::iSenseDebug<wiselib::iSenseOsModel> >, unsigned short, wiselib::iSenseDebug<wiselib::iSenseOsModel> >, wiselib::vector_static<wiselib::iSenseOsModel, wiselib::PLTT_SecureTraceType<wiselib::iSenseOsModel, wiselib::iSenseExtendedTxRadioModel<wiselib::iSenseOsModel>, unsigned char, unsigned char, unsigned char, wiselib::NodeType<wiselib::iSenseOsModel, wiselib::iSenseExtendedTxRadioModel<wiselib::iSenseOsModel>, unsigned short, wiselib::Position2DType<wiselib::iSenseOsModel, wiselib::iSenseExtendedTxRadioModel<wiselib::iSenseOsModel>, unsigned short, wiselib::iSenseDebug<wiselib::iSenseOsModel> >, wiselib::iSenseDebug<wiselib::iSenseOsModel> >, unsigned short, wiselib::iSenseDebug<wiselib::iSenseOsModel> >, 25>, wiselib::PLTT_AgentType<wiselib::iSenseOsModel, wiselib::iSenseExtendedTxRadioModel<wiselib::iSenseOsModel>, unsigned short, unsigned char, wiselib::iSenseDebug<wiselib::iSenseOsModel> >, wiselib::NeighborDiscovery_Type<wiselib::iSenseOsModel, wiselib::iSenseExtendedTxRadioModel<wiselib::iSenseOsModel>, wiselib::iSenseClockModel<wiselib::iSenseOsModel, isense::Time>, wiselib::iSenseTimerModel<wiselib::iSenseOsModel>, wiselib::iSenseRandModel<wiselib::iSenseOsModel>, wiselib::iSenseDebug<wiselib::iSenseOsModel> >, wiselib::iSenseTimerModel<wiselib::iSenseOsModel>, wiselib::iSenseExtendedTxRadioModel<wiselib::iSenseOsModel>, wiselib::ReliableRadio_Type<wiselib::iSenseOsModel, wiselib::iSenseExtendedTxRadioModel<wiselib::iSenseOsModel>, wiselib::iSenseClockModel<wiselib::iSenseOsModel, isense::Time>, wiselib::iSenseTimerModel<wiselib::iSenseOsModel>, wiselib::iSenseRandModel<wiselib::iSenseOsModel>, wiselib::iSenseDebug<wiselib::iSenseOsModel> >, wiselib::iSenseRandModel<wiselib::iSenseOsModel>, wiselib::iSenseClockModel<wiselib::iSenseOsModel, isense::Time>, wiselib::iSenseDebug<wiselib::iSenseOsModel> >::spread_secure_trace(void*))>(unsigned long, wiselib::PLTT_PassiveType<wiselib::iSenseOsModel, wiselib::NodeType<wiselib::iSenseOsModel, wiselib::iSenseExtendedTxRadioModel<wiselib::iSenseOsModel>, unsigned short, wiselib::Position2DType<wiselib::iSenseOsModel, wiselib::iSenseExtendedTxRadioModel<wiselib::iSenseOsModel>, unsigned short, wiselib::iSenseDebug<wiselib::iSenseOsModel> >, wiselib::iSenseDebug<wiselib::iSenseOsModel> >, wiselib::PLTT_NodeType<wiselib::iSenseOsModel, wiselib::iSenseExtendedTxRadioModel<wiselib::iSenseOsModel>, wiselib::NodeType<wiselib::iSenseOsModel, wiselib::iSenseExtendedTxRadioModel<wiselib::iSenseOsModel>, unsigned short, wiselib::Position2DType<wiselib::iSenseOsModel, wiselib::iSenseExtendedTxRadioModel<wiselib::iSenseOsModel>, unsigned short, wiselib::iSenseDebug<wiselib::iSenseOsModel> >, wiselib::iSenseDebug<wiselib::iSenseOsModel> >, wiselib::PLTT_NodeTargetType<wiselib::iSenseOsModel, wiselib::iSenseExtendedTxRadioModel<wiselib::iSenseOsModel>, unsigned short, unsigned char, wiselib::iSenseDebug<wiselib::iSenseOsModel> >, wiselib::vector_static<wiselib::iSenseOsModel, wiselib::PLTT_NodeTargetType<wiselib::iSenseOsModel, wiselib::iSenseExtendedTxRadioModel<wiselib::iSenseOsModel>, unsigned short, unsigned char, wiselib::iSenseDebug<wiselib::iSenseOsModel> >, 5>, wiselib::vector_static<wiselib::iSenseOsModel, wiselib::PLTT_TraceType<wiselib::iSenseOsModel, wiselib::iSenseExtendedTxRadioModel<wiselib::iSenseOsModel>, unsigned char, unsigned char, unsigned char, wiselib::NodeType<wiselib::iSenseOsModel, wiselib::iSenseExtendedTxRadioModel<wiselib::iSenseOsModel>, unsigned short, wiselib::Position2DType<wiselib::iSenseOsModel, wiselib::iSenseExtendedTxRadioModel<wiselib::iSenseOsModel>, unsigned short, wiselib::iSenseDebug<wiselib::iSenseOsModel> >, wiselib::iSenseDebug<wiselib::iSenseOsModel> >, unsigned short, wiselib::iSenseDebug<wiselib::iSenseOsModel> >, 5>, wiselib::iSenseDebug<wiselib::iSenseOsModel> >, wiselib::vector_static<wiselib::iSenseOsModel, wiselib::PLTT_NodeType<wiselib::iSenseOsModel, wiselib::iSenseExtendedTxRadioModel<wiselib::iSenseOsModel>, wiselib::NodeType<wiselib::iSenseOsModel, wiselib::iSenseExtendedTxRadioModel<wiselib::iSenseOsModel>, unsigned short, wiselib::Position2DType<wiselib::iSenseOsModel, wiselib::iSenseExtendedTxRadioModel<wiselib::iSenseOsModel>, unsigned short, wiselib::iSenseDebug<wiselib::iSenseOsModel> >, wiselib::iSenseDebug<wiselib::iSenseOsModel> >, wiselib::PLTT_NodeTargetType<wiselib::iSenseOsModel, wiselib::iSenseExtendedTxRadioModel<wiselib::iSenseOsModel>, unsigned short, unsigned char, wiselib::iSenseDebug<wiselib::iSenseOsModel> >, wiselib::vector_static<wiselib::iSenseOsModel, wiselib::PLTT_NodeTargetType<wiselib::iSenseOsModel, wiselib::iSenseExtendedTxRadioModel<wiselib::iSenseOsModel>, unsigned short, unsigned char, wiselib::iSenseDebug<wiselib::iSenseOsModel> >, 5>, wiselib::vector_static<wiselib::iSenseOsModel, wiselib::PLTT_TraceType<wiselib::iSenseOsModel, wiselib::iSenseExtendedTxRadioModel<wiselib::iSenseOsModel>, unsigned char, unsigned char, unsigned char, wiselib::NodeType<wiselib::iSenseOsModel, wiselib::iSenseExtendedTxRadioModel<wiselib::iSenseOsModel>, unsigned short, wiselib::Position2DType<wiselib::iSenseOsModel, wiselib::iSenseExtendedTxRadioModel<wiselib::iSenseOsModel>, unsigned short, wiselib::iSenseDebug<wiselib::iSenseOsModel> >, wiselib::iSenseDebug<wiselib::iSenseOsModel> >, unsigned short, wiselib::iSenseDebug<wiselib::iSenseOsModel> >, 5>, wiselib::iSenseDebug<wiselib::iSenseOsModel> >, 25>, wiselib::PLTT_TraceType<wiselib::iSenseOsModel, wiselib::iSenseExtendedTxRadioModel<wiselib::iSenseOsModel>, unsigned char, unsigned char, unsigned char, wiselib::NodeType<wiselib::iSenseOsModel, wiselib::iSenseExtendedTxRadioModel<wiselib::iSenseOsModel>, unsigned short, wiselib::Position2DType<wiselib::iSenseOsModel, wiselib::iSenseExtendedTxRadioModel<wiselib::iSenseOsModel>, unsigned short, wiselib::iSenseDebug<wiselib::iSenseOsModel> >, wiselib::iSenseDebug<wiselib::iSenseOsModel> >, unsigned short, wiselib::iSenseDebug<wiselib::iSenseOsModel> >, wiselib::vector_static<wiselib::iSenseOsModel, wiselib::PLTT_TraceType<wiselib::iSenseOsModel, wiselib::iSenseExtendedTxRadioModel<wiselib::iSenseOsModel>, unsigned char, unsigned char, unsigned char, wiselib::NodeType<wiselib::iSenseOsModel, wiselib::iSenseExtendedTxRadioModel<wiselib::iSenseOsModel>, unsigned short, wiselib::Position2DType<wiselib::iSenseOsModel, wiselib::iSenseExtendedTxRadioModel<wiselib::iSenseOsModel>, unsigned short, wiselib::iSenseDebug<wiselib::iSenseOsModel> >, wiselib::iSenseDebug<wiselib::iSenseOsModel> >, unsigned short, wiselib::iSenseDebug<wiselib::iSenseOsModel> >, 5>, wiselib::PLTT_SecureTraceType<wiselib::iSenseOsModel, wiselib::iSenseExtendedTxRadioModel<wiselib::iSenseOsModel>, unsigned char, unsigned char, unsigned char, wiselib::NodeType<wiselib::iSenseOsModel, wiselib::iSenseExtendedTxRadioModel<wiselib::iSenseOsModel>, unsigned short, wiselib::Position2DType<wiselib::iSenseOsModel, wiselib::iSenseExtendedTxRadioModel<wiselib::iSenseOsModel>, unsigned short, wiselib::iSenseDebug<wiselib::iSenseOsModel> >, wiselib::iSenseDebug<wiselib::iSenseOsModel> >, unsigned short, wiselib::iSenseDebug<wiselib::iSenseOsModel> >, wiselib::vector_static<wiselib::iSenseOsModel, wiselib::PLTT_SecureTraceType<wiselib::iSenseOsModel, wiselib::iSenseExtendedTxRadioModel<wiselib::iSenseOsModel>, unsigned char, unsigned char, unsigned char, wiselib::NodeType<wiselib::iSenseOsModel, wiselib::iSenseExtendedTxRadioModel<wiselib::iSenseOsModel>, unsigned short, wiselib::Position2DType<wiselib::iSenseOsModel, wiselib::iSenseExtendedTxRadioModel<wiselib::iSenseOsModel>, unsigned short, wiselib::iSenseDebug<wiselib::iSenseOsModel> >, wiselib::iSenseDebug<wiselib::iSenseOsModel> >, unsigned short, wiselib::iSenseDebug<wiselib::iSenseOsModel> >, 25>, wiselib::PLTT_AgentType<wiselib::iSenseOsModel, wiselib::iSenseExtendedTxRadioModel<wiselib::iSenseOsModel>, unsigned short, unsigned char, wiselib::iSenseDebug<wiselib::iSenseOsModel> >, wiselib::NeighborDiscovery_Type<wiselib::iSenseOsModel, wiselib::iSenseExtendedTxRadioModel<wiselib::iSenseOsModel>, wiselib::iSenseClockModel<wiselib::iSenseOsModel, isense::Time>, wiselib::iSenseTimerModel<wiselib::iSenseOsModel>, wiselib::iSenseRandModel<wiselib::iSenseOsModel>, wiselib::iSenseDebug<wiselib::iSenseOsModel> >, wiselib::iSenseTimerModel<wiselib::iSenseOsModel>, wiselib::iSenseExtendedTxRadioModel<wiselib::iSenseOsModel>, wiselib::ReliableRadio_Type<wiselib::iSenseOsModel, wiselib::iSenseExtendedTxRadioModel<wiselib::iSenseOsModel>, wiselib::iSenseClockModel<wiselib::iSenseOsModel, isense::Time>, wiselib::iSenseTimerModel<wiselib::iSenseOsModel>, wiselib::iSenseRandModel<wiselib::iSenseOsModel>, wiselib::iSenseDebug<wiselib::iSenseOsModel> >, wiselib::iSenseRandModel<wiselib::iSenseOsModel>, wiselib::iSenseClockModel<wiselib::iSenseOsModel, isense::Time>, wiselib::iSenseDebug<wiselib::iSenseOsModel> >*, void*)
 .text._ZN7wiselib16iSenseTimerModelINS_13iSenseOsModelEE9set_timerINS_16PLTT_PassiveTypeIS1_NS_8NodeTypeIS1_NS_26iSenseExtendedTxRadioModelIS1_EEtNS_14Position2DTypeIS1_S7_tNS_11iSenseDebugIS1_EEEESA_EENS_13PLTT_NodeTypeIS1_S7_SC_NS_19PLTT_NodeTargetTypeIS1_S7_thSA_EENS_13vector_staticIS1_SF_Li5EEENSG_IS1_NS_14PLTT_TraceTypeIS1_S7_hhhSC_tSA_EELi5EEESA_EENSG_IS1_SL_Li25EEESJ_SK_NS_20PLTT_SecureTraceTypeIS1_S7_hhhSC_tSA_EENSG_IS1_SO_Li25EEENS_14PLTT_AgentTypeIS1_S7_thSA_EENS_22NeighborDiscovery_TypeIS1_S7_NS_16iSenseClockModelIS1_N6isense4TimeEEES2_NS_15iSenseRandModelIS1_EESA_EES2_S7_NS_18ReliableRadio_TypeIS1_S7_SW_S2_SY_SA_EESY_SW_SA_EEXadL_ZNS12_25decryption_request_daemonEPvEEEEimPT_S13_
                0x04004748      0x10c out/isense/PLTT_passive_app.o
                0x04004748                int wiselib::iSenseTimerModel<wiselib::iSenseOsModel>::set_timer<wiselib::PLTT_PassiveType<wiselib::iSenseOsModel, wiselib::NodeType<wiselib::iSenseOsModel, wiselib::iSenseExtendedTxRadioModel<wiselib::iSenseOsModel>, unsigned short, wiselib::Position2DType<wiselib::iSenseOsModel, wiselib::iSenseExtendedTxRadioModel<wiselib::iSenseOsModel>, unsigned short, wiselib::iSenseDebug<wiselib::iSenseOsModel> >, wiselib::iSenseDebug<wiselib::iSenseOsModel> >, wiselib::PLTT_NodeType<wiselib::iSenseOsModel, wiselib::iSenseExtendedTxRadioModel<wiselib::iSenseOsModel>, wiselib::NodeType<wiselib::iSenseOsModel, wiselib::iSenseExtendedTxRadioModel<wiselib::iSenseOsModel>, unsigned short, wiselib::Position2DType<wiselib::iSenseOsModel, wiselib::iSenseExtendedTxRadioModel<wiselib::iSenseOsModel>, unsigned short, wiselib::iSenseDebug<wiselib::iSenseOsModel> >, wiselib::iSenseDebug<wiselib::iSenseOsModel> >, wiselib::PLTT_NodeTargetType<wiselib::iSenseOsModel, wiselib::iSenseExtendedTxRadioModel<wiselib::iSenseOsModel>, unsigned short, unsigned char, wiselib::iSenseDebug<wiselib::iSenseOsModel> >, wiselib::vector_static<wiselib::iSenseOsModel, wiselib::PLTT_NodeTargetType<wiselib::iSenseOsModel, wiselib::iSenseExtendedTxRadioModel<wiselib::iSenseOsModel>, unsigned short, unsigned char, wiselib::iSenseDebug<wiselib::iSenseOsModel> >, 5>, wiselib::vector_static<wiselib::iSenseOsModel, wiselib::PLTT_TraceType<wiselib::iSenseOsModel, wiselib::iSenseExtendedTxRadioModel<wiselib::iSenseOsModel>, unsigned char, unsigned char, unsigned char, wiselib::NodeType<wiselib::iSenseOsModel, wiselib::iSenseExtendedTxRadioModel<wiselib::iSenseOsModel>, unsigned short, wiselib::Position2DType<wiselib::iSenseOsModel, wiselib::iSenseExtendedTxRadioModel<wiselib::iSenseOsModel>, unsigned short, wiselib::iSenseDebug<wiselib::iSenseOsModel> >, wiselib::iSenseDebug<wiselib::iSenseOsModel> >, unsigned short, wiselib::iSenseDebug<wiselib::iSenseOsModel> >, 5>, wiselib::iSenseDebug<wiselib::iSenseOsModel> >, wiselib::vector_static<wiselib::iSenseOsModel, wiselib::PLTT_NodeType<wiselib::iSenseOsModel, wiselib::iSenseExtendedTxRadioModel<wiselib::iSenseOsModel>, wiselib::NodeType<wiselib::iSenseOsModel, wiselib::iSenseExtendedTxRadioModel<wiselib::iSenseOsModel>, unsigned short, wiselib::Position2DType<wiselib::iSenseOsModel, wiselib::iSenseExtendedTxRadioModel<wiselib::iSenseOsModel>, unsigned short, wiselib::iSenseDebug<wiselib::iSenseOsModel> >, wiselib::iSenseDebug<wiselib::iSenseOsModel> >, wiselib::PLTT_NodeTargetType<wiselib::iSenseOsModel, wiselib::iSenseExtendedTxRadioModel<wiselib::iSenseOsModel>, unsigned short, unsigned char, wiselib::iSenseDebug<wiselib::iSenseOsModel> >, wiselib::vector_static<wiselib::iSenseOsModel, wiselib::PLTT_NodeTargetType<wiselib::iSenseOsModel, wiselib::iSenseExtendedTxRadioModel<wiselib::iSenseOsModel>, unsigned short, unsigned char, wiselib::iSenseDebug<wiselib::iSenseOsModel> >, 5>, wiselib::vector_static<wiselib::iSenseOsModel, wiselib::PLTT_TraceType<wiselib::iSenseOsModel, wiselib::iSenseExtendedTxRadioModel<wiselib::iSenseOsModel>, unsigned char, unsigned char, unsigned char, wiselib::NodeType<wiselib::iSenseOsModel, wiselib::iSenseExtendedTxRadioModel<wiselib::iSenseOsModel>, unsigned short, wiselib::Position2DType<wiselib::iSenseOsModel, wiselib::iSenseExtendedTxRadioModel<wiselib::iSenseOsModel>, unsigned short, wiselib::iSenseDebug<wiselib::iSenseOsModel> >, wiselib::iSenseDebug<wiselib::iSenseOsModel> >, unsigned short, wiselib::iSenseDebug<wiselib::iSenseOsModel> >, 5>, wiselib::iSenseDebug<wiselib::iSenseOsModel> >, 25>, wiselib::PLTT_TraceType<wiselib::iSenseOsModel, wiselib::iSenseExtendedTxRadioModel<wiselib::iSenseOsModel>, unsigned char, unsigned char, unsigned char, wiselib::NodeType<wiselib::iSenseOsModel, wiselib::iSenseExtendedTxRadioModel<wiselib::iSenseOsModel>, unsigned short, wiselib::Position2DType<wiselib::iSenseOsModel, wiselib::iSenseExtendedTxRadioModel<wiselib::iSenseOsModel>, unsigned short, wiselib::iSenseDebug<wiselib::iSenseOsModel> >, wiselib::iSenseDebug<wiselib::iSenseOsModel> >, unsigned short, wiselib::iSenseDebug<wiselib::iSenseOsModel> >, wiselib::vector_static<wiselib::iSenseOsModel, wiselib::PLTT_TraceType<wiselib::iSenseOsModel, wiselib::iSenseExtendedTxRadioModel<wiselib::iSenseOsModel>, unsigned char, unsigned char, unsigned char, wiselib::NodeType<wiselib::iSenseOsModel, wiselib::iSenseExtendedTxRadioModel<wiselib::iSenseOsModel>, unsigned short, wiselib::Position2DType<wiselib::iSenseOsModel, wiselib::iSenseExtendedTxRadioModel<wiselib::iSenseOsModel>, unsigned short, wiselib::iSenseDebug<wiselib::iSenseOsModel> >, wiselib::iSenseDebug<wiselib::iSenseOsModel> >, unsigned short, wiselib::iSenseDebug<wiselib::iSenseOsModel> >, 5>, wiselib::PLTT_SecureTraceType<wiselib::iSenseOsModel, wiselib::iSenseExtendedTxRadioModel<wiselib::iSenseOsModel>, unsigned char, unsigned char, unsigned char, wiselib::NodeType<wiselib::iSenseOsModel, wiselib::iSenseExtendedTxRadioModel<wiselib::iSenseOsModel>, unsigned short, wiselib::Position2DType<wiselib::iSenseOsModel, wiselib::iSenseExtendedTxRadioModel<wiselib::iSenseOsModel>, unsigned short, wiselib::iSenseDebug<wiselib::iSenseOsModel> >, wiselib::iSenseDebug<wiselib::iSenseOsModel> >, unsigned short, wiselib::iSenseDebug<wiselib::iSenseOsModel> >, wiselib::vector_static<wiselib::iSenseOsModel, wiselib::PLTT_SecureTraceType<wiselib::iSenseOsModel, wiselib::iSenseExtendedTxRadioModel<wiselib::iSenseOsModel>, unsigned char, unsigned char, unsigned char, wiselib::NodeType<wiselib::iSenseOsModel, wiselib::iSenseExtendedTxRadioModel<wiselib::iSenseOsModel>, unsigned short, wiselib::Position2DType<wiselib::iSenseOsModel, wiselib::iSenseExtendedTxRadioModel<wiselib::iSenseOsModel>, unsigned short, wiselib::iSenseDebug<wiselib::iSenseOsModel> >, wiselib::iSenseDebug<wiselib::iSenseOsModel> >, unsigned short, wiselib::iSenseDebug<wiselib::iSenseOsModel> >, 25>, wiselib::PLTT_AgentType<wiselib::iSenseOsModel, wiselib::iSenseExtendedTxRadioModel<wiselib::iSenseOsModel>, unsigned short, unsigned char, wiselib::iSenseDebug<wiselib::iSenseOsModel> >, wiselib::NeighborDiscovery_Type<wiselib::iSenseOsModel, wiselib::iSenseExtendedTxRadioModel<wiselib::iSenseOsModel>, wiselib::iSenseClockModel<wiselib::iSenseOsModel, isense::Time>, wiselib::iSenseTimerModel<wiselib::iSenseOsModel>, wiselib::iSenseRandModel<wiselib::iSenseOsModel>, wiselib::iSenseDebug<wiselib::iSenseOsModel> >, wiselib::iSenseTimerModel<wiselib::iSenseOsModel>, wiselib::iSenseExtendedTxRadioModel<wiselib::iSenseOsModel>, wiselib::ReliableRadio_Type<wiselib::iSenseOsModel, wiselib::iSenseExtendedTxRadioModel<wiselib::iSenseOsModel>, wiselib::iSenseClockModel<wiselib::iSenseOsModel, isense::Time>, wiselib::iSenseTimerModel<wiselib::iSenseOsModel>, wiselib::iSenseRandModel<wiselib::iSenseOsModel>, wiselib::iSenseDebug<wiselib::iSenseOsModel> >, wiselib::iSenseRandModel<wiselib::iSenseOsModel>, wiselib::iSenseClockModel<wiselib::iSenseOsModel, isense::Time>, wiselib::iSenseDebug<wiselib::iSenseOsModel> >, &(wiselib::PLTT_PassiveType<wiselib::iSenseOsModel, wiselib::NodeType<wiselib::iSenseOsModel, wiselib::iSenseExtendedTxRadioModel<wiselib::iSenseOsModel>, unsigned short, wiselib::Position2DType<wiselib::iSenseOsModel, wiselib::iSenseExtendedTxRadioModel<wiselib::iSenseOsModel>, unsigned short, wiselib::iSenseDebug<wiselib::iSenseOsModel> >, wiselib::iSenseDebug<wiselib::iSenseOsModel> >, wiselib::PLTT_NodeType<wiselib::iSenseOsModel, wiselib::iSenseExtendedTxRadioModel<wiselib::iSenseOsModel>, wiselib::NodeType<wiselib::iSenseOsModel, wiselib::iSenseExtendedTxRadioModel<wiselib::iSenseOsModel>, unsigned short, wiselib::Position2DType<wiselib::iSenseOsModel, wiselib::iSenseExtendedTxRadioModel<wiselib::iSenseOsModel>, unsigned short, wiselib::iSenseDebug<wiselib::iSenseOsModel> >, wiselib::iSenseDebug<wiselib::iSenseOsModel> >, wiselib::PLTT_NodeTargetType<wiselib::iSenseOsModel, wiselib::iSenseExtendedTxRadioModel<wiselib::iSenseOsModel>, unsigned short, unsigned char, wiselib::iSenseDebug<wiselib::iSenseOsModel> >, wiselib::vector_static<wiselib::iSenseOsModel, wiselib::PLTT_NodeTargetType<wiselib::iSenseOsModel, wiselib::iSenseExtendedTxRadioModel<wiselib::iSenseOsModel>, unsigned short, unsigned char, wiselib::iSenseDebug<wiselib::iSenseOsModel> >, 5>, wiselib::vector_static<wiselib::iSenseOsModel, wiselib::PLTT_TraceType<wiselib::iSenseOsModel, wiselib::iSenseExtendedTxRadioModel<wiselib::iSenseOsModel>, unsigned char, unsigned char, unsigned char, wiselib::NodeType<wiselib::iSenseOsModel, wiselib::iSenseExtendedTxRadioModel<wiselib::iSenseOsModel>, unsigned short, wiselib::Position2DType<wiselib::iSenseOsModel, wiselib::iSenseExtendedTxRadioModel<wiselib::iSenseOsModel>, unsigned short, wiselib::iSenseDebug<wiselib::iSenseOsModel> >, wiselib::iSenseDebug<wiselib::iSenseOsModel> >, unsigned short, wiselib::iSenseDebug<wiselib::iSenseOsModel> >, 5>, wiselib::iSenseDebug<wiselib::iSenseOsModel> >, wiselib::vector_static<wiselib::iSenseOsModel, wiselib::PLTT_NodeType<wiselib::iSenseOsModel, wiselib::iSenseExtendedTxRadioModel<wiselib::iSenseOsModel>, wiselib::NodeType<wiselib::iSenseOsModel, wiselib::iSenseExtendedTxRadioModel<wiselib::iSenseOsModel>, unsigned short, wiselib::Position2DType<wiselib::iSenseOsModel, wiselib::iSenseExtendedTxRadioModel<wiselib::iSenseOsModel>, unsigned short, wiselib::iSenseDebug<wiselib::iSenseOsModel> >, wiselib::iSenseDebug<wiselib::iSenseOsModel> >, wiselib::PLTT_NodeTargetType<wiselib::iSenseOsModel, wiselib::iSenseExtendedTxRadioModel<wiselib::iSenseOsModel>, unsigned short, unsigned char, wiselib::iSenseDebug<wiselib::iSenseOsModel> >, wiselib::vector_static<wiselib::iSenseOsModel, wiselib::PLTT_NodeTargetType<wiselib::iSenseOsModel, wiselib::iSenseExtendedTxRadioModel<wiselib::iSenseOsModel>, unsigned short, unsigned char, wiselib::iSenseDebug<wiselib::iSenseOsModel> >, 5>, wiselib::vector_static<wiselib::iSenseOsModel, wiselib::PLTT_TraceType<wiselib::iSenseOsModel, wiselib::iSenseExtendedTxRadioModel<wiselib::iSenseOsModel>, unsigned char, unsigned char, unsigned char, wiselib::NodeType<wiselib::iSenseOsModel, wiselib::iSenseExtendedTxRadioModel<wiselib::iSenseOsModel>, unsigned short, wiselib::Position2DType<wiselib::iSenseOsModel, wiselib::iSenseExtendedTxRadioModel<wiselib::iSenseOsModel>, unsigned short, wiselib::iSenseDebug<wiselib::iSenseOsModel> >, wiselib::iSenseDebug<wiselib::iSenseOsModel> >, unsigned short, wiselib::iSenseDebug<wiselib::iSenseOsModel> >, 5>, wiselib::iSenseDebug<wiselib::iSenseOsModel> >, 25>, wiselib::PLTT_TraceType<wiselib::iSenseOsModel, wiselib::iSenseExtendedTxRadioModel<wiselib::iSenseOsModel>, unsigned char, unsigned char, unsigned char, wiselib::NodeType<wiselib::iSenseOsModel, wiselib::iSenseExtendedTxRadioModel<wiselib::iSenseOsModel>, unsigned short, wiselib::Position2DType<wiselib::iSenseOsModel, wiselib::iSenseExtendedTxRadioModel<wiselib::iSenseOsModel>, unsigned short, wiselib::iSenseDebug<wiselib::iSenseOsModel> >, wiselib::iSenseDebug<wiselib::iSenseOsModel> >, unsigned short, wiselib::iSenseDebug<wiselib::iSenseOsModel> >, wiselib::vector_static<wiselib::iSenseOsModel, wiselib::PLTT_TraceType<wiselib::iSenseOsModel, wiselib::iSenseExtendedTxRadioModel<wiselib::iSenseOsModel>, unsigned char, unsigned char, unsigned char, wiselib::NodeType<wiselib::iSenseOsModel, wiselib::iSenseExtendedTxRadioModel<wiselib::iSenseOsModel>, unsigned short, wiselib::Position2DType<wiselib::iSenseOsModel, wiselib::iSenseExtendedTxRadioModel<wiselib::iSenseOsModel>, unsigned short, wiselib::iSenseDebug<wiselib::iSenseOsModel> >, wiselib::iSenseDebug<wiselib::iSenseOsModel> >, unsigned short, wiselib::iSenseDebug<wiselib::iSenseOsModel> >, 5>, wiselib::PLTT_SecureTraceType<wiselib::iSenseOsModel, wiselib::iSenseExtendedTxRadioModel<wiselib::iSenseOsModel>, unsigned char, unsigned char, unsigned char, wiselib::NodeType<wiselib::iSenseOsModel, wiselib::iSenseExtendedTxRadioModel<wiselib::iSenseOsModel>, unsigned short, wiselib::Position2DType<wiselib::iSenseOsModel, wiselib::iSenseExtendedTxRadioModel<wiselib::iSenseOsModel>, unsigned short, wiselib::iSenseDebug<wiselib::iSenseOsModel> >, wiselib::iSenseDebug<wiselib::iSenseOsModel> >, unsigned short, wiselib::iSenseDebug<wiselib::iSenseOsModel> >, wiselib::vector_static<wiselib::iSenseOsModel, wiselib::PLTT_SecureTraceType<wiselib::iSenseOsModel, wiselib::iSenseExtendedTxRadioModel<wiselib::iSenseOsModel>, unsigned char, unsigned char, unsigned char, wiselib::NodeType<wiselib::iSenseOsModel, wiselib::iSenseExtendedTxRadioModel<wiselib::iSenseOsModel>, unsigned short, wiselib::Position2DType<wiselib::iSenseOsModel, wiselib::iSenseExtendedTxRadioModel<wiselib::iSenseOsModel>, unsigned short, wiselib::iSenseDebug<wiselib::iSenseOsModel> >, wiselib::iSenseDebug<wiselib::iSenseOsModel> >, unsigned short, wiselib::iSenseDebug<wiselib::iSenseOsModel> >, 25>, wiselib::PLTT_AgentType<wiselib::iSenseOsModel, wiselib::iSenseExtendedTxRadioModel<wiselib::iSenseOsModel>, unsigned short, unsigned char, wiselib::iSenseDebug<wiselib::iSenseOsModel> >, wiselib::NeighborDiscovery_Type<wiselib::iSenseOsModel, wiselib::iSenseExtendedTxRadioModel<wiselib::iSenseOsModel>, wiselib::iSenseClockModel<wiselib::iSenseOsModel, isense::Time>, wiselib::iSenseTimerModel<wiselib::iSenseOsModel>, wiselib::iSenseRandModel<wiselib::iSenseOsModel>, wiselib::iSenseDebug<wiselib::iSenseOsModel> >, wiselib::iSenseTimerModel<wiselib::iSenseOsModel>, wiselib::iSenseExtendedTxRadioModel<wiselib::iSenseOsModel>, wiselib::ReliableRadio_Type<wiselib::iSenseOsModel, wiselib::iSenseExtendedTxRadioModel<wiselib::iSenseOsModel>, wiselib::iSenseClockModel<wiselib::iSenseOsModel, isense::Time>, wiselib::iSenseTimerModel<wiselib::iSenseOsModel>, wiselib::iSenseRandModel<wiselib::iSenseOsModel>, wiselib::iSenseDebug<wiselib::iSenseOsModel> >, wiselib::iSenseRandModel<wiselib::iSenseOsModel>, wiselib::iSenseClockModel<wiselib::iSenseOsModel, isense::Time>, wiselib::iSenseDebug<wiselib::iSenseOsModel> >::decryption_request_daemon(void*))>(unsigned long, wiselib::PLTT_PassiveType<wiselib::iSenseOsModel, wiselib::NodeType<wiselib::iSenseOsModel, wiselib::iSenseExtendedTxRadioModel<wiselib::iSenseOsModel>, unsigned short, wiselib::Position2DType<wiselib::iSenseOsModel, wiselib::iSenseExtendedTxRadioModel<wiselib::iSenseOsModel>, unsigned short, wiselib::iSenseDebug<wiselib::iSenseOsModel> >, wiselib::iSenseDebug<wiselib::iSenseOsModel> >, wiselib::PLTT_NodeType<wiselib::iSenseOsModel, wiselib::iSenseExtendedTxRadioModel<wiselib::iSenseOsModel>, wiselib::NodeType<wiselib::iSenseOsModel, wiselib::iSenseExtendedTxRadioModel<wiselib::iSenseOsModel>, unsigned short, wiselib::Position2DType<wiselib::iSenseOsModel, wiselib::iSenseExtendedTxRadioModel<wiselib::iSenseOsModel>, unsigned short, wiselib::iSenseDebug<wiselib::iSenseOsModel> >, wiselib::iSenseDebug<wiselib::iSenseOsModel> >, wiselib::PLTT_NodeTargetType<wiselib::iSenseOsModel, wiselib::iSenseExtendedTxRadioModel<wiselib::iSenseOsModel>, unsigned short, unsigned char, wiselib::iSenseDebug<wiselib::iSenseOsModel> >, wiselib::vector_static<wiselib::iSenseOsModel, wiselib::PLTT_NodeTargetType<wiselib::iSenseOsModel, wiselib::iSenseExtendedTxRadioModel<wiselib::iSenseOsModel>, unsigned short, unsigned char, wiselib::iSenseDebug<wiselib::iSenseOsModel> >, 5>, wiselib::vector_static<wiselib::iSenseOsModel, wiselib::PLTT_TraceType<wiselib::iSenseOsModel, wiselib::iSenseExtendedTxRadioModel<wiselib::iSenseOsModel>, unsigned char, unsigned char, unsigned char, wiselib::NodeType<wiselib::iSenseOsModel, wiselib::iSenseExtendedTxRadioModel<wiselib::iSenseOsModel>, unsigned short, wiselib::Position2DType<wiselib::iSenseOsModel, wiselib::iSenseExtendedTxRadioModel<wiselib::iSenseOsModel>, unsigned short, wiselib::iSenseDebug<wiselib::iSenseOsModel> >, wiselib::iSenseDebug<wiselib::iSenseOsModel> >, unsigned short, wiselib::iSenseDebug<wiselib::iSenseOsModel> >, 5>, wiselib::iSenseDebug<wiselib::iSenseOsModel> >, wiselib::vector_static<wiselib::iSenseOsModel, wiselib::PLTT_NodeType<wiselib::iSenseOsModel, wiselib::iSenseExtendedTxRadioModel<wiselib::iSenseOsModel>, wiselib::NodeType<wiselib::iSenseOsModel, wiselib::iSenseExtendedTxRadioModel<wiselib::iSenseOsModel>, unsigned short, wiselib::Position2DType<wiselib::iSenseOsModel, wiselib::iSenseExtendedTxRadioModel<wiselib::iSenseOsModel>, unsigned short, wiselib::iSenseDebug<wiselib::iSenseOsModel> >, wiselib::iSenseDebug<wiselib::iSenseOsModel> >, wiselib::PLTT_NodeTargetType<wiselib::iSenseOsModel, wiselib::iSenseExtendedTxRadioModel<wiselib::iSenseOsModel>, unsigned short, unsigned char, wiselib::iSenseDebug<wiselib::iSenseOsModel> >, wiselib::vector_static<wiselib::iSenseOsModel, wiselib::PLTT_NodeTargetType<wiselib::iSenseOsModel, wiselib::iSenseExtendedTxRadioModel<wiselib::iSenseOsModel>, unsigned short, unsigned char, wiselib::iSenseDebug<wiselib::iSenseOsModel> >, 5>, wiselib::vector_static<wiselib::iSenseOsModel, wiselib::PLTT_TraceType<wiselib::iSenseOsModel, wiselib::iSenseExtendedTxRadioModel<wiselib::iSenseOsModel>, unsigned char, unsigned char, unsigned char, wiselib::NodeType<wiselib::iSenseOsModel, wiselib::iSenseExtendedTxRadioModel<wiselib::iSenseOsModel>, unsigned short, wiselib::Position2DType<wiselib::iSenseOsModel, wiselib::iSenseExtendedTxRadioModel<wiselib::iSenseOsModel>, unsigned short, wiselib::iSenseDebug<wiselib::iSenseOsModel> >, wiselib::iSenseDebug<wiselib::iSenseOsModel> >, unsigned short, wiselib::iSenseDebug<wiselib::iSenseOsModel> >, 5>, wiselib::iSenseDebug<wiselib::iSenseOsModel> >, 25>, wiselib::PLTT_TraceType<wiselib::iSenseOsModel, wiselib::iSenseExtendedTxRadioModel<wiselib::iSenseOsModel>, unsigned char, unsigned char, unsigned char, wiselib::NodeType<wiselib::iSenseOsModel, wiselib::iSenseExtendedTxRadioModel<wiselib::iSenseOsModel>, unsigned short, wiselib::Position2DType<wiselib::iSenseOsModel, wiselib::iSenseExtendedTxRadioModel<wiselib::iSenseOsModel>, unsigned short, wiselib::iSenseDebug<wiselib::iSenseOsModel> >, wiselib::iSenseDebug<wiselib::iSenseOsModel> >, unsigned short, wiselib::iSenseDebug<wiselib::iSenseOsModel> >, wiselib::vector_static<wiselib::iSenseOsModel, wiselib::PLTT_TraceType<wiselib::iSenseOsModel, wiselib::iSenseExtendedTxRadioModel<wiselib::iSenseOsModel>, unsigned char, unsigned char, unsigned char, wiselib::NodeType<wiselib::iSenseOsModel, wiselib::iSenseExtendedTxRadioModel<wiselib::iSenseOsModel>, unsigned short, wiselib::Position2DType<wiselib::iSenseOsModel, wiselib::iSenseExtendedTxRadioModel<wiselib::iSenseOsModel>, unsigned short, wiselib::iSenseDebug<wiselib::iSenseOsModel> >, wiselib::iSenseDebug<wiselib::iSenseOsModel> >, unsigned short, wiselib::iSenseDebug<wiselib::iSenseOsModel> >, 5>, wiselib::PLTT_SecureTraceType<wiselib::iSenseOsModel, wiselib::iSenseExtendedTxRadioModel<wiselib::iSenseOsModel>, unsigned char, unsigned char, unsigned char, wiselib::NodeType<wiselib::iSenseOsModel, wiselib::iSenseExtendedTxRadioModel<wiselib::iSenseOsModel>, unsigned short, wiselib::Position2DType<wiselib::iSenseOsModel, wiselib::iSenseExtendedTxRadioModel<wiselib::iSenseOsModel>, unsigned short, wiselib::iSenseDebug<wiselib::iSenseOsModel> >, wiselib::iSenseDebug<wiselib::iSenseOsModel> >, unsigned short, wiselib::iSenseDebug<wiselib::iSenseOsModel> >, wiselib::vector_static<wiselib::iSenseOsModel, wiselib::PLTT_SecureTraceType<wiselib::iSenseOsModel, wiselib::iSenseExtendedTxRadioModel<wiselib::iSenseOsModel>, unsigned char, unsigned char, unsigned char, wiselib::NodeType<wiselib::iSenseOsModel, wiselib::iSenseExtendedTxRadioModel<wiselib::iSenseOsModel>, unsigned short, wiselib::Position2DType<wiselib::iSenseOsModel, wiselib::iSenseExtendedTxRadioModel<wiselib::iSenseOsModel>, unsigned short, wiselib::iSenseDebug<wiselib::iSenseOsModel> >, wiselib::iSenseDebug<wiselib::iSenseOsModel> >, unsigned short, wiselib::iSenseDebug<wiselib::iSenseOsModel> >, 25>, wiselib::PLTT_AgentType<wiselib::iSenseOsModel, wiselib::iSenseExtendedTxRadioModel<wiselib::iSenseOsModel>, unsigned short, unsigned char, wiselib::iSenseDebug<wiselib::iSenseOsModel> >, wiselib::NeighborDiscovery_Type<wiselib::iSenseOsModel, wiselib::iSenseExtendedTxRadioModel<wiselib::iSenseOsModel>, wiselib::iSenseClockModel<wiselib::iSenseOsModel, isense::Time>, wiselib::iSenseTimerModel<wiselib::iSenseOsModel>, wiselib::iSenseRandModel<wiselib::iSenseOsModel>, wiselib::iSenseDebug<wiselib::iSenseOsModel> >, wiselib::iSenseTimerModel<wiselib::iSenseOsModel>, wiselib::iSenseExtendedTxRadioModel<wiselib::iSenseOsModel>, wiselib::ReliableRadio_Type<wiselib::iSenseOsModel, wiselib::iSenseExtendedTxRadioModel<wiselib::iSenseOsModel>, wiselib::iSenseClockModel<wiselib::iSenseOsModel, isense::Time>, wiselib::iSenseTimerModel<wiselib::iSenseOsModel>, wiselib::iSenseRandModel<wiselib::iSenseOsModel>, wiselib::iSenseDebug<wiselib::iSenseOsModel> >, wiselib::iSenseRandModel<wiselib::iSenseOsModel>, wiselib::iSenseClockModel<wiselib::iSenseOsModel, isense::Time>, wiselib::iSenseDebug<wiselib::iSenseOsModel> >*, void*)
 .text._ZN7wiselib16iSenseTimerModelINS_13iSenseOsModelEE9set_timerINS_16PLTT_PassiveTypeIS1_NS_8NodeTypeIS1_NS_26iSenseExtendedTxRadioModelIS1_EEtNS_14Position2DTypeIS1_S7_tNS_11iSenseDebugIS1_EEEESA_EENS_13PLTT_NodeTypeIS1_S7_SC_NS_19PLTT_NodeTargetTypeIS1_S7_thSA_EENS_13vector_staticIS1_SF_Li5EEENSG_IS1_NS_14PLTT_TraceTypeIS1_S7_hhhSC_tSA_EELi5EEESA_EENSG_IS1_SL_Li25EEESJ_SK_NS_20PLTT_SecureTraceTypeIS1_S7_hhhSC_tSA_EENSG_IS1_SO_Li25EEENS_14PLTT_AgentTypeIS1_S7_thSA_EENS_22NeighborDiscovery_TypeIS1_S7_NS_16iSenseClockModelIS1_N6isense4TimeEEES2_NS_15iSenseRandModelIS1_EESA_EES2_S7_NS_18ReliableRadio_TypeIS1_S7_SW_S2_SY_SA_EESY_SW_SA_EEXadL_ZNS12_13update_tracesEPvEEEEimPT_S13_
                0x04004854      0x10c out/isense/PLTT_passive_app.o
